(lp0
(VPt
p1
(lp2
F0.3468525165185674
aF5.804722445596211
aF0.3111759407045315
aF5.529177478791006
aF0.18812094373944682
aF4.471677160584084
aF0.018386494556381545
aF2.0697269917406698
aF0.01396580768079333
aF0.3657740460278085
aF6.131276775942658
aF0.0009488764250424279
aF0.0781329817628978
aF2.632936960146433
aF0.011466421419981677
aF0.23236996210466204
aF3.222786641300638
aF2.4633872264020057e-07
aF0.003661741037165118
aF0.4844619254976333
atp3
a(g1
(lp4
F0.7991702493915568
aF5.312221217734102
aF0.7622729852700968
aF5.0352329054316085
aF0.6204944705878788
aF3.9830816560810782
aF0.28259640701048955
aF1.7059538047077085
aF0.11900532178895044
aF0.8764881925883061
aF4.962136661563409
aF0.004993784172296272
aF0.8060143008448565
aF1.8014116356384835
aF0.10578967155411438
aF0.29088844652172186
aF2.9906170396848903
aF1.0483256035065907e-05
aF0.22627733319142165
aF0.3509688540144471
atp5
a(g1
(lp6
F0.44263613307539806
aF5.727622581096446
aF0.3984410084611073
aF5.444342581863987
aF0.24514342809570355
aF4.351994648293417
aF0.026742341030164443
aF1.8314442314449775
aF0.03443981938476705
aF0.4809155690596314
aF5.821431380515111
aF0.004758999251281253
aF0.0862310355822347
aF2.2977626437177565
aF0.0244785514639543
aF0.32639594226293883
aF3.2320144586157307
aF4.332062980483348e-05
aF0.00250008090645268
aF0.47500994615113495
atp7
a(g1
(lp8
F0.6712764428700911
aF5.4788043288067785
aF0.6243307915227991
aF5.199721163909519
aF0.45168241058618835
aF4.137610409104122
aF0.12228953576238595
aF1.8049163243792332
aF0.044209334930567626
aF1.0494659777288544
aF4.895341537775271
aF0.006611667402595866
aF0.38066685759363944
aF2.1340235279941395
aF0.03282438753848351
aF0.5518326480367938
aF2.755032258875864
aF0.00020774358681662156
aF0.04163700614033561
aF0.4584785113027945
atp9
a(g1
(lp10
F0.03757148700379006
aF5.341748061153832
aF0.032587856061147266
aF5.085147862634097
aF0.01684609267941806
aF4.094934726938642
aF0.0007973448219560292
aF1.7892680588238192
aF7.948527572424841e-06
aF0.0524539622846378
aF5.893015283095864
aF2.1368297285461557e-06
aF0.0064558153023441525
aF2.076572536067567
aF3.891104314423726e-06
aF0.03897682742500885
aF3.3269584075658964
aF2.0323841626274194e-08
aF7.890112983828225e-05
aF0.27211202501005854
atp11
a(g1
(lp12
F0.1304342725672323
aF4.676824194401817
aF0.11737551805896221
aF4.416032976160007
aF0.07193278095194722
aF3.427081087419344
aF0.007411222782377204
aF1.2789510296308175
aF0.0
aF0.2514999966204878
aF4.750031232709419
aF0.0
aF0.04385762174930562
aF1.2643703068179895
aF0.0
aF0.1665562265557872
aF2.952215438684869
aF0.0
aF0.0008087661113663294
aF0.14133531001811933
atp13
a(g1
(lp14
F0.18479953306409844
aF5.5172918064202525
aF0.16800350623659668
aF5.264482764783919
aF0.10811175264467841
aF4.302224981694799
aF0.014219655195256706
aF2.1345665158620406
aF2.4680040675835527e-06
aF0.30454319989491624
aF5.540622160348127
aF1.0824091616803033e-07
aF0.06195992765647198
aF2.8107394532689858
aF2.1698115020409904e-06
aF0.21542300105686413
aF2.8501898723346604
aF8.027944486536396e-12
aF0.005918647982764021
aF0.6024307207452712
atp15
a(g1
(lp16
F1.6148953293940722
aF4.067002511393891
aF1.546858847785144
aF3.808159975521823
aF1.2719449866703085
aF2.8439260350872773
aF0.5426659826866186
aF0.9201228914676238
aF0.45699270604543435
aF1.0373542341382933
aF3.239566274809124
aF0.1639258490523684
aF0.6852548486492979
aF0.7624939743704702
aF0.21207959283075772
aF0.45968880286860314
aF2.148080043064585
aF0.011671111466879972
aF0.21107523016595048
aF0.06486855992818182
atp17
a(VCu
p18
(lp19
F0.959912789075387
aF1.1476041365354113
aF0.9112129158695479
aF1.067525328858187
aF0.7268781855228202
aF0.7794263660157166
aF0.3168979515548793
aF0.2554715409493159
aF0.03158487133671822
aF0.6423457441381905
aF0.3517048513163026
aF0.012222345304024189
aF0.17796496526736297
aF0.03591387015528653
aF0.017929372113626503
aF0.33925804282148997
aF0.2688785895689759
aF0.0016515926936664295
aF0.0037765927299126837
aF0.0001638512976590015
atp20
a(g18
(lp21
F0.9599127890753871
aF3.0800318273493956
aF0.9112129158695479
aF2.893521125242198
aF0.7268781855228204
aF2.1948504999398533
aF0.3168979515548793
aF0.7596374428963142
aF0.03158487133671825
aF0.5594944975397063
aF2.3639947111914954
aF0.012222345304024192
aF0.31992444852750396
aF0.5319208510789072
aF0.01792937211362653
aF0.2451411206026712
aF1.5242462436821407
aF0.0016515926936664298
aF0.09345407837805743
aF0.027255523606731082
atp22
a.