(lp0
(VPt
p1
(lp2
F0.18003912133651173
aF5.794877015962332
aF0.16394409081625985
aF5.505963861946735
aF0.1061493073321318
aF4.394324522500011
aF0.01411511785182499
aF1.8664348355051439
aF0.0
aF0.16249357387480626
aF5.830336249172451
aF0.0
aF0.06530284099110269
aF2.3500664198477894
aF0.0
aF0.08626128407799255
aF3.3416086525071824
aF0.0
aF0.006594914037443279
aF0.6056947856206979
atp3
a(g1
(lp4
F0.10556662248355475
aF5.65452539177325
aF0.09340490493822125
aF5.36547178830045
aF0.05303114592194526
aF4.257835662081115
aF0.003967325962858272
aF1.7843507877843179
aF0.0018609438341791967
aF0.08878649567288972
aF5.526346114280217
aF9.208358075207172e-05
aF0.017969778273097696
aF2.1467340481734905
aF0.0016099338957190274
aF0.05969985425441961
aF3.1630490459382252
aF9.651699162442084e-09
aF0.0008013667761913871
aF0.5067592465303647
atp5
a(g1
(lp6
F0.14781268006573067
aF5.770591187280322
aF0.13114786942086226
aF5.480739421921699
aF0.07537520684579904
aF4.362489195949617
aF0.005922440503440727
aF1.795344515897619
aF0.0003720955629072702
aF0.14124213529314103
aF5.762464895763012
aF0.0001344291370604578
aF0.030208323983296616
aF2.2639766060200617
aF0.000147508172030391
aF0.0934985286154831
aF3.226853358268955
aF2.5128800543454225e-06
aF0.001275266029569251
aF0.463414580844451
atp7
a(g1
(lp8
F0.028361363661225845
aF5.6417511450357685
aF0.024219162193578517
aF5.357522363032911
aF0.011640802716094321
aF4.2622002256445475
aF0.0003898454250272395
aF1.7521184003843875
aF7.917444835013912e-05
aF0.018681692817938824
aF5.630557199633064
aF7.46303666166575e-06
aF0.002638220887479233
aF2.124393023086304
aF6.261467925746033e-05
aF0.013774529604355632
aF3.1588034979570816
aF4.3371052089678497e-08
aF3.9558643818311885e-05
aF0.4146128421588133
atp9
a(g1
(lp10
F0.16741202633982483
aF5.4384167037338305
aF0.1467723348618735
aF5.160569977396763
aF0.07979381197250268
aF4.090154266988343
aF0.0048262812763245
aF1.6368101949193432
aF0.00044489136210771257
aF0.06832253893599434
aF5.633923183685914
aF0.00014840052476743532
aF0.019079312534275097
aF1.9744072474528818
aF0.00019224747867291401
aF0.037311099659405336
aF3.2000353629368776
aF2.5894170236219383e-06
aF0.000589957940776829
aF0.2988796734195714
atp11
a(g1
(lp12
F0.1350708606699538
aF5.646402315621099
aF0.12092921924050885
aF5.360409583164559
aF0.0725351791019979
aF4.273328678406743
aF0.00698341854437666
aF1.8923799166945667
aF0.00010380814284973946
aF0.1243511130787397
aF5.354116268635262
aF3.345888403165918e-05
aF0.04032046305759787
aF2.398757751211922
aF4.489800089381697e-05
aF0.06834563674636747
aF3.0058946555332264
aF4.845595138494906e-07
aF0.0025076874592483652
aF0.6959539761518987
atp13
a(g1
(lp14
F0.07186401686668016
aF5.707637099862994
aF0.06243408872341046
aF5.422738388771994
aF0.03254928339880169
aF4.3304560512643775
aF0.0016315515831911006
aF1.8548050077323737
aF0.00018996806148137684
aF0.0406449930043203
aF5.645923772975313
aF1.7266365364074245e-05
aF0.01013782045404019
aF2.315759356478168
aF0.00015283552657767882
aF0.023134728067569096
aF3.2229585500947278
aF1.6895235144040993e-07
aF0.00022658975059733247
aF0.5809991657923521
atp15
a(g1
(lp16
F1.2323050156502147
aF3.9133395413656236
aF1.176245604528413
aF3.6451150073039775
aF0.955523029753141
aF2.6432842183539744
aF0.41518212502076285
aF0.683274269133341
aF0.3242135083053458
aF0.1696665312415015
aF3.446397668962271
aF0.06054544223100077
aF0.2581253166560592
aF0.6927052665322395
aF0.20112894197194517
aF0.03059323552367428
aF2.216754552385758
aF0.0012436487784182628
aF0.08954063101929452
aF0.022266029094309848
atp17
a(VCu
p18
(lp19
F0.8446533463652715
aF0.48076788885144106
aF0.8037367020137272
aF0.4470042564274388
aF0.6521206503993078
aF0.3233593867382013
aF0.31564778544109384
aF0.0850324974765443
aF0.009154463374173619
aF0.3236544790685542
aF0.015704493002359342
aF0.0034584952964330728
aF0.052663626108263834
aF0.0024780568826585896
aF0.004586914813586387
aF0.2065726927595857
aF0.010424031160258798
aF0.00018552407782078544
aF0.00018391885875164188
aF1.4717005457553383e-05
atp20
a(g18
(lp21
F0.8446533463652715
aF1.5876638182222553
aF0.8037367020137272
aF1.4720930182956888
aF0.6521206503993079
aF1.0632383803042122
aF0.31564778544109384
aF0.36798560869126207
aF0.009154463374173619
aF0.2030455322458397
aF0.5304322016421107
aF0.003458495296433073
aF0.19712222953106123
aF0.08037082385101145
aF0.0045869148135863885
aF0.0370489486663611
aF0.36755210580379405
aF0.00018552407782078541
aF0.0276001110749334
aF0.0014896952836191656
atp22
a.