(lp0
(VPt
p1
(lp2
F0.465874191163829
aF5.758468808131024
aF0.4208340122984768
aF5.481909462262744
aF0.2629571260727141
aF4.423295550819968
aF0.03048635276797628
aF2.0341878384507814
aF0.04223477263262461
aF0.45390328180443335
aF6.115089165709222
aF0.0019145181065626077
aF0.10723013537426905
aF2.565425438986312
aF0.03712160764385345
aF0.28984891599133283
aF3.063223944346386
aF2.2418613044242702e-06
aF0.011363751271027742
aF0.3643930057164558
atp3
a(g1
(lp4
F1.0229786516086559
aF5.136181852530474
aF0.9712203903656283
aF4.865725635396741
aF0.771626144538753
aF3.8388448983865304
aF0.3112090613197546
aF1.6200780477211116
aF0.3228176452592875
aF1.050936118149235
aF4.711264879447533
aF0.01903783697765801
aF0.8102519005252093
aF1.6408796333908278
aF0.2762021146754647
aF0.42377323629951
aF2.8888087948251524
aF9.347329760878388e-05
aF0.2215915003912946
aF0.3094415404828318
atp5
a(g1
(lp6
F0.5552851393126813
aF5.740852899556504
aF0.5046371455397035
aF5.459207589786544
aF0.32578730997707767
aF4.374664485497058
aF0.04805424707018796
aF1.8755327555060464
aF0.06911767760956324
aF0.6217313397181454
aF5.956884410763063
aF0.00642819929228924
aF0.1331008183117855
aF2.362178384363728
aF0.05585049402546569
aF0.4093195707875517
aF3.2739052748398665
aF6.609466888618934e-05
aF0.010728929630152437
aF0.4766374403420692
atp7
a(g1
(lp8
F0.8494779171637203
aF5.400660875042926
aF0.7860359260430083
aF5.125292206914436
aF0.5524698908738591
aF4.07845633174259
aF0.12488011232432035
aF1.7948711490156564
aF0.157046538932785
aF1.2548145970463476
aF4.653383135516638
aF0.01669529212651605
aF0.3736842726067875
aF2.147989459035941
aF0.12649251065901362
aF0.7426725708045667
aF2.6194413601437634
aF0.0003650539764328706
aF0.038853722669248844
aF0.5164581759241558
atp9
a(g1
(lp10
F0.01995095002674855
aF5.310365847806178
aF0.01702194941804106
aF5.057576726121452
aF0.008146709867614902
aF4.086219434298507
aF0.0002668066524061065
aF1.8541117163027945
aF0.0
aF0.022534326484976046
aF5.793097374328437
aF0.0
aF0.002073752187935782
aF2.193286676267938
aF0.0
aF0.018182755318695967
aF3.1178978359109366
aF0.0
aF2.2677355104571236e-05
aF0.2736861850495016
atp11
a(g1
(lp12
F0.13006890677260954
aF4.545159530915437
aF0.11479862266007262
aF4.291270278419017
aF0.06450956801941876
aF3.327553655418612
aF0.004713325122399555
aF1.2249640367810377
aF0.0038037695302906025
aF0.2064925598306516
aF4.649863330947781
aF0.0001950546638721793
aF0.032265594384815875
aF1.1874639776789642
aF0.00332360126367133
aF0.14164324905448347
aF2.9175597362981796
aF4.1261163600904403e-07
aF0.0004474739354212812
aF0.12810430245775298
atp13
a(g1
(lp14
F0.11958733061068415
aF5.417425674862183
aF0.10596251630519338
aF5.166065059957106
aF0.06061936479433968
aF4.21009642580671
aF0.004763523715293183
aF2.0609790064511215
aF9.894692144113784e-05
aF0.16745129315201038
aF5.550664713945294
aF2.365023890523797e-06
aF0.022676968083858703
aF2.620366860878643
aF9.218011136072028e-05
aF0.12744627260734306
aF2.7018131394346505
aF3.101364855527766e-11
aF0.0008782980583204429
aF0.3681103311752888
atp15
a(g1
(lp16
F1.7437381634353795
aF4.297372444370762
aF1.6747999132172218
aF4.030442991212832
aF1.3978543507254424
aF3.0345630807697948
aF0.6664795190362924
aF1.0222307800338706
aF0.7244558536368618
aF1.22569635056972
aF3.4563837152150136
aF0.16191489061480352
aF1.0343570316142137
aF0.8482951731575258
aF0.4620850563510629
aF0.46795313700954666
aF2.298747076206667
aF0.01137184663938811
aF0.3491224319211651
aF0.08846112820792182
atp17
a(VCu
p18
(lp19
F1.1405717252370857
aF2.0815501341830496
aF1.0968065590405545
aF1.9432601774732254
aF0.9312943114818879
aF1.4394861171120228
aF0.5518069930053708
aF0.507428645748625
aF0.043047592844865826
aF1.0277492216776283
aF1.1171527137535504
aF0.018561151466196833
aF0.4818981095724062
aF0.173279638967705
aF0.030274407249146165
aF0.47510906479766946
aF0.7737018220031844
aF0.006346715011291341
aF0.047655833271562364
aF0.00235786779992287
atp20
a(g18
(lp21
F1.1405717252370855
aF2.8254111159112587
aF1.0968065590405545
aF2.652050298374121
aF0.9312943114818879
aF2.004484347757197
aF0.5518069930053708
aF0.6834243022600055
aF0.043047592844865826
aF0.9615176321361224
aF2.0321498783389735
aF0.01856115146619683
aF0.5803617592707352
aF0.43701793886196816
aF0.03027440724914617
aF0.4660833630466339
aF1.3191603877312896
aF0.006346715011291341
aF0.17721969494030415
aF0.018041081846345043
atp22
a.