(lp0
(VPt
p1
(lp2
F0.18372539177564445
aF6.020842169408962
aF0.16363889481030752
aF5.724625209682702
aF0.0956553637960631
aF4.5831723947791385
aF0.007996066924247678
aF1.9601809487554995
aF0.016104941701200578
aF0.15291110821893325
aF6.878329180096887
aF0.00012054816585968535
aF0.039064167207936915
aF2.5461124719169503
aF0.015748644352064422
aF0.09207054735291856
aF4.034547028888143
aF4.943664334035982e-11
aF0.0020564385950080644
aF0.5955133567164936
atp3
a(g1
(lp4
F0.24836798927807302
aF5.997439173426442
aF0.22312591898565728
aF5.703667473765122
aF0.13585082935117782
aF4.571201252833317
aF0.013885036942167786
aF1.968467117924138
aF0.028444093935445818
aF0.24741754706309071
aF6.909817367363107
aF0.0002446475425723461
aF0.07535328198957914
aF2.613913031767789
aF0.027750226948841612
aF0.13876513558216214
aF4.020978257741714
aF2.697951856709768e-07
aF0.004432965064807854
aF0.612492116286201
atp5
a(g1
(lp6
F0.1836935146592985
aF5.936554621333831
aF0.16286654021809915
aF5.64381741666897
aF0.09326260893553147
aF4.51752626306536
aF0.007128919861274691
aF1.9328092987635712
aF0.015347965897434089
aF0.17516297363090452
aF6.6321875789197
aF0.00018539336956116244
aF0.034524549938488074
aF2.533934654878858
aF0.014866083413742445
aF0.11959635086984532
aF3.8217418005234522
aF5.800514348496411e-07
aF0.0014844654822174896
aF0.5570628298287924
atp7
a(g1
(lp8
F0.23093619497526613
aF6.036004416569544
aF0.20618083823202088
aF5.748378334255313
aF0.12237305442766155
aF4.635905681640754
aF0.011771586022648195
aF2.0349631824103733
aF0.017871044666544253
aF0.23061876678384907
aF6.960620530354316
aF0.0002331457360214722
aF0.06507721574047357
aF2.7896140999738845
aF0.017357321399422317
aF0.13654165038995533
aF3.9414226217558053
aF1.8868506555972367e-06
aF0.0037356884177503703
aF0.6443066268883737
atp9
a(g1
(lp10
F0.13935638866106295
aF6.055121575877849
aF0.12121557946230338
aF5.770312774071973
aF0.06363390969471033
aF4.667723489353056
aF0.0033879818768445444
aF2.0811050493420304
aF0.0013611100566865474
aF0.07371413401865999
aF7.294649220550965
aF9.062473487291377e-05
aF0.01936402139632315
aF2.906092139219964
aF0.0011889184565613256
aF0.039917068929153934
aF4.133502343146186
aF1.001301037407758e-06
aF0.00039589013346464296
aF0.6473153251775143
atp11
a(g1
(lp12
F0.45898590808739664
aF5.901044869832913
aF0.41230890070925985
aF5.5996177328214145
aF0.2508984037778416
aF4.445247547358064
aF0.025518226218507953
aF1.847967993972354
aF0.05844999860457641
aF0.3980941150966331
aF6.207337233752971
aF0.002469891851565275
aF0.10800947758606147
aF2.321951326781867
aF0.05386376921396676
aF0.23679282068892596
aF3.6180715473776996
aF4.516198456214883e-05
aF0.00621079969260534
aF0.5467555623838645
atp13
a(g1
(lp14
F0.18361547759233635
aF6.184588234672784
aF0.16246892405321584
aF5.895880420566679
aF0.09241561290186227
aF4.781810091881559
aF0.0072232570170737784
aF2.199318266554231
aF0.008659293885608777
aF0.13507802945829206
aF7.206351384323896
aF3.539858407492378e-05
aF0.04068842233656809
aF3.173596807707904
aF0.008553963300414706
aF0.07215383363725464
aF4.059535861504875
aF2.4450889486996323e-12
aF0.001588086645917448
aF0.8771857046383174
atp15
a(g1
(lp16
F1.1489713810870779
aF5.241762182981285
aF1.0998775496920175
aF4.947214235454074
aF0.9026497878899065
aF3.823054413867441
aF0.380357684892109
aF1.3635941800004618
aF0.5746894776433645
aF0.2934074658224768
aF5.618845767035408
aF0.01543822405730532
aF0.6475149979454271
aF1.552498869093317
aF0.5338162364620295
aF0.019594050076202928
aF3.4347727757018864
aF7.077599575291976e-05
aF0.2412246480604526
aF0.1685204510628925
atp17
a(VCu
p18
(lp19
F1.1712079918071274
aF1.5487169567638643
aF1.1420583616791782
aF1.4259556013190904
aF1.0405541295258178
aF0.9911705638267461
aF0.8634607656149527
aF0.26859875394498234
aF0.02557611395826319
aF0.322564096117492
aF0.7772980872753918
aF0.011713396886164256
aF0.41683425512989225
aF0.0808960171204806
aF0.01724984970237298
aF0.034991916922602784
aF0.5886533983086769
aF0.0036429172965144877
aF0.08580841866533061
aF0.0003053569488583447
atp20
a(g18
(lp21
F1.1712079918071274
aF1.2289352893522913
aF1.142058361679178
aF1.1257275448437913
aF1.0405541295258178
aF0.7655690069480087
aF0.8634607656149526
aF0.1886700058098913
aF0.025576113958263164
aF0.5196241486663251
aF0.4641820881682247
aF0.011713396886164228
aF0.22046910095167888
aF0.045623944552751386
aF0.01724984970237295
aF0.19359885137764357
aF0.35624086630713
aF0.0036429172965144743
aF0.00982531179629366
aF0.00014561379841362653
atp22
a.