(lp0
(VPt
p1
(lp2
F0.18300146480761126
aF5.805544026304571
aF0.16674844533818575
aF5.517611834748972
aF0.10828670819360767
aF4.4093166590919335
aF0.014599542584662036
aF1.88432326751247
aF0.0
aF0.17111715495203608
aF5.885042872741723
aF0.0
aF0.06873508710806042
aF2.3768082516052065
aF0.0
aF0.09047718815177345
aF3.3869107293986693
aF0.0
aF0.0068772884427734425
aF0.6218172888270821
atp3
a(g1
(lp4
F0.1270531839197527
aF5.66293278226791
aF0.11313430141352587
aF5.3746405099181915
aF0.06618332263350883
aF4.269777559969875
aF0.005712183135142505
aF1.8008999655924094
aF0.0024975525528684937
aF0.11279164907671657
aF5.549140893458618
aF0.000109983071312294
aF0.026300325523212948
aF2.157698858195017
aF0.0021946627367609582
aF0.07261425628958372
aF3.178186638371695
aF8.253014761210466e-09
aF0.0014618608400080084
aF0.5092595541424211
atp5
a(g1
(lp6
F0.15920526105922303
aF5.805863164009832
aF0.14134698082714922
aF5.517406045741032
aF0.08143944476987543
aF4.403639014173497
aF0.0064149848811833055
aF1.8362227107551632
aF0.00046486267120424233
aF0.15463440501002415
aF5.859925066328505
aF0.00017333261393044007
aF0.03331802370061915
aF2.3349029990237153
aF0.00017965442540090706
aF0.10181805479115152
aF3.283955010432742
aF3.4726448623809136e-06
aF0.001368250989922955
aF0.4869449486041127
atp7
a(g1
(lp8
F0.04021804206620701
aF5.628408373702898
aF0.03453816677897342
aF5.344891579495405
aF0.017043118232380576
aF4.253591989932194
aF0.0006468748382872885
aF1.7601867325328933
aF0.00010763403868840325
aF0.028083358820471967
aF5.6160359115744045
aF1.3249572612707956e-05
aF0.004739123797227378
aF2.110968539138863
aF8.008926656584776e-05
aF0.01934350500691369
aF3.1676761686571284
aF1.0212246278092986e-07
aF7.315591406023213e-05
aF0.4185642067827443
atp9
a(g1
(lp10
F0.14398454876750202
aF5.438206660815677
aF0.12589855675906175
aF5.160728265965281
aF0.0676144735464789
aF4.092362339926827
aF0.0038735659894864284
aF1.6439647378570514
aF0.00030784308755680575
aF0.062486678889109776
aF5.585189377654978
aF9.635596416599353e-05
aF0.016921879866105126
aF1.959973226856187
aF0.0001408093875546504
aF0.034472566381456286
aF3.1981283318311404
aF1.5589546177803694e-06
aF0.00047766557002783077
aF0.3147265467941388
atp11
a(g1
(lp12
F0.14284825994826708
aF5.671194972154139
aF0.1282634663976259
aF5.3889594911735195
aF0.077966829546991
aF4.316374662378371
aF0.007962970802473487
aF1.9631607629287027
aF9.568520574173723e-05
aF0.13784426476641548
aF5.457162216991157
aF3.082545160521525e-05
aF0.04842749055808724
aF2.5498052512176796
aF4.139976187362142e-05
aF0.07252545963643328
aF3.0441323904904833
aF4.4591948996551466e-07
aF0.003190187820335324
aF0.7730987647373305
atp13
a(g1
(lp14
F0.06535737199492005
aF5.656979484145922
aF0.05660646663142021
aF5.3714157908644555
aF0.02908512536243118
aF4.2774227409348695
aF0.0013577936829063174
aF1.8055846428465414
aF0.0001969207985688614
aF0.03759828822917845
aF5.569115168219149
aF1.0909679703713445e-05
aF0.008708384767969386
aF2.1840658095463943
aF0.00017006132885530317
aF0.022169783500863294
aF3.236349718472273
aF5.9137729918032446e-08
aF0.00017736239631297286
aF0.5330678356073962
atp15
a(g1
(lp16
F1.2811758267942202
aF3.881854057189924
aF1.2237181386582654
aF3.614931167848593
aF0.9968684302960996
aF2.6185589440130657
aF0.4375183610364325
aF0.6751068526334378
aF0.3592430854107751
aF0.18796679711240363
aF3.447122890159421
aF0.064380802664479
aF0.27587146595111106
aF0.6807101148379104
aF0.2297242845859097
aF0.03622728655932731
aF2.232974891536256
aF0.0017806934901590486
aF0.09578542795223516
aF0.02108906356990345
atp17
a(VCu
p18
(lp19
F0.8766931736314392
aF0.4817279782868445
aF0.8365203890658276
aF0.449528783480261
aF0.6870672891308859
aF0.3304104829719819
aF0.35020847609167916
aF0.09191095626312235
aF0.012567361714022167
aF0.3557511179149508
aF0.013711066138234404
aF0.004788870779561066
aF0.05810799718210727
aF0.0020600448844251234
aF0.006384029462846348
aF0.22683087091064716
aF0.009272801200245555
aF0.0002866905255077179
aF0.0002097287956475758
aF1.1782117213616258e-05
atp20
a(g18
(lp21
F0.8766931736314392
aF1.6611159810708584
aF0.8365203890658276
aF1.5407257393239462
aF0.6870672891308859
aF1.1140769696093913
aF0.3502084760916792
aF0.3861753206874515
aF0.012567361714022165
aF0.22012143711588913
aF0.5816708538439511
aF0.004788870779561066
aF0.22147753335347878
aF0.09033022419776383
aF0.0063840294628463475
aF0.04167667975350594
aF0.401682795738632
aF0.0002866905255077179
aF0.03391683248760247
aF0.0020332428277160973
atp22
a.