(lp0
(VPt
p1
(lp2
F0.2761519614470304
aF5.843347860894736
aF0.2487221300893988
aF5.564335824182091
aF0.15349582767357
aF4.489412175346235
aF0.017178198303030013
aF2.0217337392479044
aF0.002336771209576938
aF0.39043527381765275
aF6.2611264574730505
aF0.00015304984569072686
aF0.08627131118163453
aF2.547594703123339
aF0.001931792017600886
aF0.24064821754768811
aF3.6366108116089215
aF3.5548982815976164e-08
aF0.004743513292401825
aF0.6292140240603088
atp3
a(g1
(lp4
F0.6563149451105638
aF5.709989745357738
aF0.6286004725804725
aF5.427864922697244
aF0.5194760202134332
aF4.349934434214847
aF0.23667406390487472
aF1.9633561270007707
aF0.03505272418916112
aF0.9606261786909035
aF5.775957473425733
aF0.0009315317714448624
aF0.8574070729896183
aF2.348338103530142
aF0.03258390904279297
aF0.29868265058454097
aF3.311338128171713
aF3.413227030394376e-06
aF0.18852694788451224
aF0.5243085305906275
atp5
a(g1
(lp6
F0.39928270125515464
aF5.827147009784201
aF0.36123435721382685
aF5.5409552811598815
aF0.2275118429274037
aF4.438800329453813
aF0.02784332200949646
aF1.8981571955552545
aF0.014565357409182831
aF0.5759675717991417
aF5.940986090000765
aF0.002774589073723962
aF0.12062919358001903
aF2.438478484011285
aF0.009346376268108633
aF0.366109237894089
aF3.3496046510700537
aF5.1806759697160206e-05
aF0.003775937106143273
aF0.5386100422203993
atp7
a(g1
(lp8
F0.5910190943413189
aF5.736192938092038
aF0.5534495888203603
aF5.457808988272921
aF0.4115836230089513
aF4.394824873647233
aF0.11812344982737431
aF2.0132006755474015
aF0.008468858788038035
aF1.0739032020791248
aF5.757052044004586
aF0.0032456114455960278
aF0.4601225133606232
aF2.527106118630233
aF0.004160760152457422
aF0.49697873143844246
aF3.1558135798041023
aF0.00019111680783522985
aF0.04557819005818832
aF0.5364960203657405
atp9
a(g1
(lp10
F0.13246767462401277
aF5.65300420810447
aF0.11720888559860254
aF5.383520433283225
aF0.06659395261785432
aF4.341418055341342
aF0.005062608547776988
aF1.887881123548833
aF0.0002359869269064297
aF0.19535614796323994
aF6.277605031995217
aF8.060023237677884e-05
aF0.031312009844447694
aF2.221985106280289
aF9.773990019816435e-05
aF0.13173668201416158
aF3.7390457095965313
aF1.3300417929603701e-06
aF0.00047861761394479537
aF0.44668351737767414
atp11
a(g1
(lp12
F0.25077694757795177
aF5.205591892363355
aF0.23097199393654186
aF4.936557944825998
aF0.15790060601457326
aF3.914361850837951
aF0.027484453939247304
aF1.6649381196199409
aF9.966818196117202e-05
aF0.5739513417833406
aF5.5531724296919185
aF3.383151696138606e-05
aF0.14945227143801773
aF1.858497719855813
aF4.1474894202330105e-05
aF0.32003644074370163
aF3.3585857716913505
aF5.506111820036442e-07
aF0.004936432792903042
aF0.3310406717130893
atp13
a(g1
(lp14
F0.28458761246505876
aF5.6138268495393735
aF0.2629214119815731
aF5.350177640261492
aF0.18258274201030622
aF4.3453688002579005
aF0.034755921616266644
aF2.082079654970927
aF0.0
aF0.4930718750146433
aF5.7906755992262
aF0.0
aF0.1413870025844481
aF2.6316581551903315
aF0.0
aF0.30010747301974877
aF3.396441379291198
aF0.0
aF0.021933969342792823
aF0.8696722716009927
atp15
a(g1
(lp16
F1.5540232430201675
aF4.079682090060629
aF1.4891327478645735
aF3.8148077475173863
aF1.2258860585572071
aF2.8250273912060004
aF0.5257452411011928
aF0.8577377584914565
aF0.33221322366123945
aF1.0662891908566066
aF3.643680662384599
aF0.14528724645202032
aF0.6154993036215575
aF0.7714845068564299
aF0.13290989254947358
aF0.46572627493204155
aF2.4281146831464357
aF0.0146743606599434
aF0.17085645738461935
aF0.04426245841193771
atp17
a(VCu
p18
(lp19
F0.8380498880350595
aF0.6405828697904061
aF0.7887920824437116
aF0.5987079302925177
aF0.6042280614984011
aF0.44542527000891574
aF0.21671456825983323
aF0.1415737099596008
aF0.02319913453700018
aF0.4278607684575427
aF0.07794278979043823
aF0.008578173158052111
aF0.08069750416722223
aF0.004521346125868441
aF0.011989365879032321
aF0.2595747531361396
aF0.06649510944804544
aF0.000685886516258498
aF0.00045833304041175674
aF1.0752212688911476e-05
atp20
a(g18
(lp21
F0.8380498880350595
aF3.504041310050852
aF0.7887920824437118
aF3.293533657792832
aF0.6042280614984011
aF2.499605403014383
aF0.2167145682598332
aF0.8512935492896583
aF0.0231991345370002
aF0.38560853744378804
aF3.0953019634880565
aF0.008578173158052113
aF0.19679129133920711
aF0.7180746308981452
aF0.011989365879032338
aF0.1584591997906089
aF1.973454131239051
aF0.0006858865162584981
aF0.03591910587104966
aF0.04400417176734149
atp22
a.