(lp0
(VPt
p1
(lp2
F0.29002606176878665
aF5.843411818722555
aF0.26106152698618135
aF5.565696892602095
aF0.1605398935958283
aF4.496609152623013
aF0.01741140346234463
aF2.0472893402831627
aF0.0026838658470970753
aF0.4071425189758172
aF6.250139772306532
aF0.0001972786652617187
aF0.08547973986885618
aF2.5935288429344374
aF0.002169442225648824
aF0.25653116441721513
aF3.6000476072391847
aF6.333231413759336e-08
aF0.004614030449639642
aF0.6316785195932524
atp3
a(g1
(lp4
F0.6922126320736244
aF5.647887800853598
aF0.6643033616572616
aF5.366042641422286
aF0.5546443022281614
aF4.290541619181305
aF0.26759804578148466
aF1.9199922890880354
aF0.0384783192136928
aF0.9933297249098799
aF5.638278411929129
aF0.0011842488438744572
aF0.9258591827465219
aF2.2457812456217465
aF0.03540722341486149
aF0.30112493507760757
aF3.2712586682390024
aF5.487907269400363e-06
aF0.2167001757782409
aF0.4889925804147688
atp5
a(g1
(lp6
F0.40458541780209434
aF5.804258264931842
aF0.3655633975683043
aF5.51862730361955
aF0.22888713999763052
aF4.418122122282728
aF0.027277254171993594
aF1.8802387751467198
aF0.015517585531408596
aF0.5685495228305883
aF5.898464205127629
aF0.0029868924165148826
aF0.11434958591366635
aF2.400875300372572
aF0.00983429839208674
aF0.36746587264290465
aF3.317462065758126
aF5.118037031555429e-05
aF0.0033535547299514976
aF0.5243972884074082
atp7
a(g1
(lp8
F0.6228056728339335
aF5.695117787544329
aF0.5845369215579949
aF5.4160667789806665
aF0.4395335631236067
aF4.351206595537253
aF0.13363102247614514
aF1.9729352569443421
aF0.00968226574969363
aF1.144910852080467
aF5.609145467088561
aF0.0037245956122839447
aF0.4911440313350106
aF2.4454749590820395
aF0.004839381696340631
aF0.5363854744351082
aF3.094324753901238
aF0.0002374164860565181
aF0.05205263224919977
aF0.5101574299455036
atp9
a(g1
(lp10
F0.12595627909188153
aF5.6023926967718305
aF0.11143467060629478
aF5.335405108422543
aF0.06326356572674009
aF4.302691246311087
aF0.004770896524289558
aF1.8707337053809134
aF0.00021542804456797527
aF0.19415118566182085
aF6.247748294070776
aF7.280043053706686e-05
aF0.029733060150179482
aF2.1965125985787326
aF8.99494071588554e-05
aF0.13377994265290447
aF3.6977286260195603
aF1.1730732691123083e-06
aF0.0004985606721150344
aF0.4080857039614315
atp11
a(g1
(lp12
F0.23978792015930425
aF5.1063054610259115
aF0.22052170052895526
aF4.837753457507092
aF0.14967360122738574
aF3.8176691874225566
aF0.02511352961542598
aF1.5786062642848697
aF7.429811093394153e-05
aF0.5519804739948604
aF5.39581516026683
aF2.4714855412371092e-05
aF0.13224311288631252
aF1.7110135817103633
aF3.139314829561891e-05
aF0.3219420859424264
aF3.288695971676081
aF3.8437583883734823e-07
aF0.004132626073084416
aF0.2763717887434779
atp13
a(g1
(lp14
F0.29497605963784834
aF5.61288996401151
aF0.2730643757285664
aF5.35207253719731
aF0.1913784434472341
aF4.358411384816561
aF0.03795952551824498
aF2.1212088039883823
aF0.0
aF0.5269502353284599
aF5.754837044095385
aF0.0
aF0.1525528436006421
aF2.735563258688049
aF0.0
aF0.328759412513945
aF3.3201161965576707
aF0.0
aF0.026397229624048817
aF0.9183113602014251
atp15
a(g1
(lp16
F1.5531286068874457
aF4.053318099588866
aF1.487790178679602
aF3.7901924333678596
aF1.2227816182805131
aF2.808218317474127
aF0.5187855466761394
aF0.8608444743796303
aF0.3141677129427134
aF1.105562305606022
aF3.5273402531208995
aF0.14655538866681259
aF0.6095608360004401
aF0.7584895164936076
aF0.11872833948731318
aF0.5084804823475196
aF2.3499101617519345
aF0.014810281234812745
aF0.1697575819093748
aF0.04641984981246277
atp17
a(VCu
p18
(lp19
F0.8108885857826866
aF0.6651605377969672
aF0.7616261954090383
aF0.6210174085290567
aF0.5775733221259614
aF0.45998666238366376
aF0.19720228574340282
aF0.14513558393685155
aF0.021561370028045604
aF0.4188813388823637
aF0.0900673826892425
aF0.007905770062922033
aF0.07928514261061242
aF0.005488486091426233
aF0.01095853413519626
aF0.254360624330234
aF0.07621732866312768
aF0.0005696815244548039
aF0.0004752377202739896
aF1.2904934870087988e-05
atp20
a(g18
(lp21
F0.8108885857826871
aF3.5583181124579513
aF0.7616261954090388
aF3.347258724784104
aF0.5775733221259616
aF2.5507154652434365
aF0.19720228574340287
aF0.8874116402892163
aF0.02156137002804566
aF0.3844849563058327
aF3.1748565540983793
aF0.007905770062922049
aF0.18847935206280028
aF0.7463371830657253
aF0.010958534135196301
aF0.16414323973951528
aF2.0225693238435514
aF0.0005696815244548058
aF0.03671828652408294
aF0.04748001041628188
atp22
a.