(lp0
(VPt
p1
(lp2
F0.24507811498439874
aF6.058032395309582
aF0.2201292811249567
aF5.76015452811383
aF0.13399598186178288
aF4.611427125618121
aF0.013838479453969368
aF1.9676340508825139
aF0.025991699186147302
aF0.2763839775251886
aF7.025471128166912
aF0.0002701946682577482
aF0.07216722231907038
aF2.5912853091165906
aF0.025235767515010027
aF0.16384885827119453
aF4.112182668276013
aF4.182569980289781e-07
aF0.0038706039501450644
aF0.591813207586994
atp3
a(g1
(lp4
F0.30652474169539995
aF5.967877572448314
aF0.2776626133089428
aF5.6705536111618144
aF0.17630954990836262
aF4.524827289614545
aF0.023236892291527145
aF1.8990991308320093
aF0.032575955812590165
aF0.39855161426815255
aF6.872898315323738
aF0.00029722617868740986
aF0.1254063702206661
aF2.474916309978937
aF0.03188550262955722
aF0.21600451187299294
aF4.028442527247048
aF2.4887930618173215e-06
aF0.007314747208321872
aF0.529863607160312
atp5
a(g1
(lp6
F0.2669389301216271
aF6.0110286465233695
aF0.24046359076088442
aF5.71983687280029
aF0.14871421263542298
aF4.598873473873868
aF0.01716674396377988
aF2.014909425787061
aF0.025892992916635812
aF0.34076061827618476
aF6.874577633683189
aF0.00023918496683092763
aF0.0855724353408945
aF2.7241187626039967
aF0.0252850250041485
aF0.2119304197570588
aF3.9199875269599267
aF1.2291054992246886e-06
aF0.005118416493761387
aF0.6329205311626513
atp7
a(g1
(lp8
F0.3228582663959323
aF6.0207068985406655
aF0.2925365443494637
aF5.7306634866620385
aF0.1863810809216897
aF4.611836833171844
aF0.02577553361924095
aF2.016001181471947
aF0.027652760907374806
aF0.4275966539265195
aF6.902304932053528
aF0.00028995420003474006
aF0.13534425969852137
aF2.7399369334513164
aF0.027175193553367488
aF0.23627868039216873
aF3.9233974988696705
aF6.08358271522982e-06
aF0.009004249546558766
aF0.6382904683259227
atp9
a(g1
(lp10
F0.18025248801621807
aF6.073879813612054
aF0.15734713434695285
aF5.786161750602371
aF0.08396679366263224
aF4.674138503524797
aF0.004802892657624851
aF2.0788305833641174
aF0.001663423124809806
aF0.13608277778175729
aF7.264985982789338
aF0.00012928837910619305
aF0.03068651262507988
aF2.893717844388627
aF0.001426298613332347
aF0.07884036003149149
aF4.125433402894154
aF1.7556181460002223e-06
aF0.0005076005137692656
aF0.6653941901592705
atp11
a(g1
(lp12
F0.6989366615322066
aF5.981686077576905
aF0.6384070294769213
aF5.6832297310929665
aF0.4202003898807819
aF4.537849838092274
aF0.06277669371522676
aF1.9329353686273916
aF0.11361845293409764
aF0.7526645528041832
aF6.501681037417051
aF0.00598779567408161
aF0.24123926098336798
aF2.5162485014072953
aF0.10438652129679704
aF0.4137930393194131
aF3.7429567368935652
aF0.0002490943566685434
aF0.018372953414018418
aF0.6033556309425835
atp13
a(g1
(lp14
F0.27071528707660075
aF6.171313288047425
aF0.24135132780729637
aF5.878621639560745
aF0.14233410582888412
aF4.748933401870061
aF0.013452277434588378
aF2.1323273541421615
aF0.01378754302685907
aF0.2535517182246254
aF7.218749699180711
aF5.01041032304161e-05
aF0.07305915736898823
aF3.006247642443241
aF0.01363866735793555
aF0.1373404592993364
aF4.0993236862165
aF1.0680626848726806e-11
aF0.002728384515773367
aF0.7800794265738888
atp15
a(g1
(lp16
F1.133012326171191
aF5.553109911553765
aF1.087484511241186
aF5.256456438537547
aF0.9042575991573738
aF4.1192458468885444
aF0.41320699771349445
aF1.5765924465251804
aF0.5532855977696457
aF0.48813314210753467
aF6.179571041738537
aF0.005645937436195013
aF0.991733305276781
aF1.8860605690475079
aF0.5382669544469355
aF0.0304633939421985
aF3.7100461942530347
aF2.972633796118479e-05
aF0.328816519224475
aF0.2677460449581488
atp17
a(VCu
p18
(lp19
F1.1389806195856644
aF2.3637668977694424
aF1.1102425626893013
aF2.188287512917326
aF1.0100998661691847
aF1.554757307603784
aF0.8280580816465545
aF0.4422653273280795
aF0.021473914975640863
aF0.1197932253890267
aF1.7742079667967137
aF0.00952957018036013
aF0.6950244785256176
aF0.22426972615465038
aF0.012826212620035943
aF0.012237510122502243
aF1.2767086453341072
aF0.001644245834605802
aF0.4840820700644442
aF0.0014945083815023242
atp20
a(g18
(lp21
F1.1389806195856644
aF1.0605499182241318
aF1.1102425626893013
aF0.9670945194992786
aF1.0100998661691847
aF0.6414024062531463
aF0.8280580816465545
aF0.13199118352137232
aF0.02147391497564088
aF0.7377083000770334
aF0.3815501515699468
aF0.009529570180360132
aF0.062230218577491156
aF0.0344389448524461
aF0.012826212620035964
aF0.5954500946143966
aF0.2981930345059303
aF0.0016442458346058026
aF0.0004128005138749855
aF8.163652391422863e-05
atp22
a.