(lp0
(VPt
p1
(lp2
F0.377462187096326
aF5.78770603731736
aF0.3389928025770942
aF5.511865854329575
aF0.20591240814244832
aF4.454210696221584
aF0.020470755815617345
aF2.057135007534035
aF0.022744976448532565
aF0.36865275661158803
aF6.12328866796161
aF0.001296811500108508
aF0.0802961418002153
aF2.6081404412709994
aF0.01927457151442333
aF0.23462352952891513
aF3.141211131762917
aF3.9983640516424847e-07
aF0.00450807283676764
aF0.4323155145001744
atp3
a(g1
(lp4
F0.8522426073797691
aF5.2470994178352015
aF0.8096304986897771
aF4.9724611599005195
aF0.64641295252694
aF3.9295714883769053
aF0.2710224739331033
aF1.6748009802495158
aF0.17934030658236838
aF0.8832914234680732
aF4.863838991861194
aF0.008379790280996655
aF0.7451552946801144
aF1.7425164844639138
aF0.15757809389427188
aF0.31861337347945334
aF2.9491456231746764
aF1.8766174881208032e-05
aF0.20505695272861266
aF0.3360716884742355
atp5
a(g1
(lp6
F0.47755703736033034
aF5.728013787350646
aF0.4313358343957308
aF5.445149237719682
aF0.2699108222132423
aF4.355007080337418
aF0.032646747066792575
aF1.8412868537272638
aF0.04714308873751076
aF0.5089478005705445
aF5.859984817970714
aF0.005526465995149981
aF0.09501430694839692
aF2.3108490031667377
aF0.035450717057404296
aF0.34236479521212226
aF3.244138323243112
aF4.7254443302853835e-05
aF0.0032516303053545083
aF0.47347457547952065
atp7
a(g1
(lp8
F0.7104474800633379
aF5.443952710848491
aF0.6577806226180294
aF5.166202313665388
aF0.4654643346716139
aF4.109696563448301
aF0.11393433358440243
aF1.7963517511612548
aF0.076908655227486
aF1.0464826635988747
aF4.7887469518756145
aF0.009237916750637246
aF0.35064719147595974
aF2.128307770928736
aF0.05994187950186172
aF0.5733101587899172
aF2.6984044998463608
aF0.0002075774237526815
aF0.036319322192152746
aF0.4786173000145825
atp9
a(g1
(lp10
F0.02100936102838662
aF5.3192209389485425
aF0.018088967231997072
aF5.064120846802323
aF0.009031390010294684
aF4.081167480949246
aF0.00035995069684352347
aF1.803298959983769
aF3.284418338509751e-07
aF0.02766090007544188
aF5.845272461058498
aF8.234301801525218e-08
aF0.0031291894967339804
aF2.1028499018081974
aF1.6787677319915927e-07
aF0.02103609188536724
aF3.246888642240928
aF6.632295410583818e-10
aF3.2027822713033025e-05
aF0.26622076285902885
atp11
a(g1
(lp12
F0.11265659520661077
aF4.615146722028124
aF0.10069433040844902
aF4.356873816740105
aF0.059855093364325644
aF3.3772951434244654
aF0.0054143186500461805
aF1.248233660063483
aF0.00031629262645247293
aF0.20335731059434953
aF4.687041809038365
aF1.2530114319909122e-05
aF0.03416918298469514
aF1.2215112841261326
aF0.00028304543652455435
aF0.13584602957329817
aF2.924240905609243
aF9.796577209876188e-09
aF0.0005458525020475359
aF0.13261702057565017
atp13
a(g1
(lp14
F0.14494665533999637
aF5.481492255402439
aF0.1303090461835457
aF5.229456408414785
aF0.07967517314911957
aF4.270410383578714
aF0.0083563108309442
aF2.110356243918694
aF1.7631987358111104e-05
aF0.22275718258575894
aF5.537260528677538
aF6.122661240858494e-07
aF0.03781912390836777
aF2.7509914681411405
aF1.5915737596747958e-05
aF0.16295558498906862
aF2.770865935957989
aF2.3141027140128844e-11
aF0.0025040787675080557
aF0.49123425997277165
atp15
a(g1
(lp16
F1.659565250717204
aF4.142148814559345
aF1.5910636936055917
aF3.88086637195436
aF1.3147651982875346
aF2.907030324386416
aF0.5813006331461611
aF0.954668231749725
aF0.5640304487984061
aF1.0494439564107785
aF3.29748660789294
aF0.1665831504624668
aF0.7863268876498015
aF0.7895192822645959
aF0.3009247902605396
aF0.4305776647742152
aF2.1890211316921673
aF0.010889429209678078
aF0.2503025231901879
aF0.07274675638196595
atp17
a(VCu
p18
(lp19
F1.0533627408146493
aF1.4474350809570486
aF1.0061623976231513
aF1.347674395919508
aF0.8268065239720013
aF0.9875348241673481
aF0.4159855946092932
aF0.3333090388368597
aF0.038386489349157116
aF0.7874586377530932
aF0.5617970282993704
aF0.015573454700916431
aF0.26895788148428185
aF0.06791067216648085
aF0.024018179318010056
aF0.3869580634112986
aF0.4126667542772596
aF0.0033205161821622015
aF0.010484470037041975
aF0.0004565824161335587
atp20
a(g18
(lp21
F1.053362740814649
aF2.9084520932349127
aF1.006162397623151
aF2.730221399790707
aF0.8268065239720013
aF2.0634925481981714
aF0.4159855946092932
aF0.700196484887051
aF0.03838648934915706
aF0.691650849821655
aF2.1248438535951295
aF0.015573454700916426
aF0.4150108080665084
aF0.4670241023688657
aF0.024018179318010008
aF0.30926655881113285
aF1.3738808602236046
aF0.0033205161821622
aF0.12807863742224415
aF0.021414658264107732
atp22
a.