(lp0
(VPt
p1
(lp2
F0.20430959033589163
aF5.715495315183957
aF0.18588060136293616
aF5.419972137941289
aF0.12018431054656281
aF4.282699646152289
aF0.016445283028432515
aF1.6986321049388726
aF0.00018200757361225867
aF0.3574094445001497
aF5.967675919166824
aF6.315585346738773e-05
aF0.09028425028527305
aF2.1911895239064063
aF7.447161793234266e-05
aF0.21205928979421446
aF3.225113066969377
aF1.0796609228734254e-06
aF0.003746172212464847
aF0.3497027561985899
atp3
a(g1
(lp4
F0.20833399693038138
aF5.67539428197756
aF0.1896427205630412
aF5.37977237111357
aF0.12293257704903482
aF4.242741761625423
aF0.01704814385779519
aF1.666261488197335
aF0.0001964177454558942
aF0.36633446025430544
aF5.890563393537852
aF6.869191976470735e-05
aF0.0935881543294652
aF2.128083556860435
aF7.988149849726102e-05
aF0.2152887498948437
aF3.2002595849164552
aF1.19493954016354e-06
aF0.003791555107024565
aF0.3310169532425881
atp5
a(g1
(lp6
F0.2096305988499596
aF5.719018891862357
aF0.19080638092354674
aF5.424925943904166
aF0.1236496122303507
aF4.293293936047209
aF0.017151155803261223
aF1.7180121547395821
aF0.0002096911827228426
aF0.36981235286483755
aF5.972241395751659
aF7.377184239864735e-05
aF0.09323622133044668
aF2.230664015058919
aF8.488509210002388e-05
aF0.2202777619263762
aF3.206195791722003
aF1.300388937640842e-06
aF0.003917471408972557
aF0.3611490990454129
atp7
a(g1
(lp8
F0.21503809496300003
aF5.701746535207543
aF0.19579224706372278
aF5.407377913271512
aF0.12710186219744204
aF4.275109266629489
aF0.01783459917909972
aF1.7023740110284025
aF0.00024335818418827964
aF0.3768455236411198
aF5.908914756806031
aF8.692960685837237e-05
aF0.09697237062172492
aF2.197411567735293
aF9.734334450154888e-05
aF0.22138839628731094
aF3.178680545080541
aF1.5848687444474898e-06
aF0.004053086486322273
aF0.35443807560131996
atp9
a(g1
(lp10
F0.2574928807820498
aF5.6822620289217785
aF0.2268949093546181
aF5.387539848240458
aF0.12613266306123597
aF4.253976938435052
aF0.008270555499932856
aF1.681937745110312
aF0.0006814633662116517
aF0.2249167302378853
aF5.907879228925683
aF0.00024167739155093673
aF0.04893509998959478
aF2.1583936388788163
aF0.0002741555174421178
aF0.13200092618918022
aF3.1969188196339915
aF4.338943965939157e-06
aF0.0007284686028237862
aF0.3394721414107073
atp11
a(g1
(lp12
F0.8048684451324646
aF5.727271924524505
aF0.7519725743012249
aF5.432598637693346
aF0.5515448414072673
aF4.298645620065491
aF0.1399918325449706
aF1.7185748670799914
aF0.0431681839485198
aF0.9397257018740081
aF5.96505236114707
aF0.009059880938295914
aF0.37814317404804687
aF2.2304509821058818
aF0.034103927774565626
aF0.4613835362020362
aF3.20242276974645
aF0.001244069616973206
aF0.04324620858708021
aF0.36343905293850787
atp13
a(g1
(lp14
F0.3565429228514325
aF5.710710284104197
aF0.324270470079343
aF5.415392833127189
aF0.20888095955154617
aF4.279321212861287
aF0.027308676516717766
aF1.6991829392304754
aF0.0007020774480649393
aF0.37857422338492297
aF5.92248069823669
aF1.9089289029195366e-05
aF0.11761959654512893
aF2.1890005831709565
aF0.000647791595173663
aF0.20366825020718232
aF3.1948286027523363
aF3.5655711521170646e-10
aF0.005975508358234886
aF0.35293839260119764
atp15
a(g1
(lp16
F0.8206399655111906
aF5.6906205815647
aF0.786729224522425
aF5.395778855008222
aF0.6552243871591757
aF4.2613772405734585
aF0.3279891098128538
aF1.6857193707924758
aF0.12693385962059894
aF0.6044541651580193
aF5.94415248254272
aF0.00044632598052807515
aF0.9434240115977354
aF2.1691162397744037
aF0.12622221095132136
aF0.06322360400730377
aF3.2153349908141133
aF1.1101946593505217e-05
aF0.2703147770616882
aF0.3397043676639154
atp17
a(VCu
p18
(lp19
F0.8111699399789681
aF2.873808489768283
aF0.7780517349055481
aF2.671540009738865
aF0.6526401252450575
aF1.9308749328250838
aF0.34690920801808084
aF0.5629876946566496
aF0.003625643250779963
aF0.037085492833516774
aF2.3498276294501115
aF0.0014124462903925968
aF0.16321131447284365
aF0.37804732402644287
aF0.0019226168324972931
aF0.01934538351569506
aF1.571401107797104
aF0.0001177303977797351
aF0.14435258506019155
aF0.004770165835498055
atp20
a(g18
(lp21
F0.8111699399789679
aF0.203048005588087
aF0.778051734905548
aF0.1804491184319932
aF0.6526401252450577
aF0.10477628037753203
aF0.34690920801808084
aF0.009051661586414083
aF0.0036256432507799623
aF0.1618903558031344
aF0.011450923175884553
aF0.0014124462903925968
aF0.002566000673040815
aF0.0008118636788939213
aF0.0019226168324972918
aF0.15523476139319767
aF0.009347172116257779
aF0.00011773039777973499
aF2.4089857092532254e-06
aF6.666573307868226e-07
atp22
a.