(dp0
(I0
VPt
p1
I0
g1
I0
tp2
(lp3
F0.0004714995295883573
aF0.2585323119769077
aF0.0004742001830132155
aF0.25403423748141607
aF0.0004836602225372919
aF0.23933874630293417
aF0.00044505203710027644
aF0.26095437002911553
aF3.900685034023126e-06
aF0.008731936704932813
aF0.2811160840820905
aF3.100077015896429e-06
aF0.0812081361185312
aF0.39332498383073344
aF5.770635952545289e-07
aF0.007812490523049258
aF-0.04706290513879126
aF2.2916723013368455e-07
aF0.04334057773922508
aF0.07370628539264341
as(I0
g1
I0
g1
I1
tp4
(lp5
F-0.03377911819004301
aF0.027100302983184624
aF-0.023140692332102447
aF0.018190717832546572
aF0.013242929039505066
aF-0.0180635765267613
aF0.053649656223654606
aF-0.1539563827636554
aF-0.0030906192635093382
aF0.03738492738830132
aF-0.05838003524809556
aF-0.0023596169088878536
aF0.0498901846646569
aF-0.051100596778982474
aF-0.0005047303351197601
aF-0.006861862464215732
aF-0.10137555611306022
aF-0.0001680395004189973
aF0.030666728814216195
aF-0.10121398859842005
as(I0
g1
I0
g1
I2
tp6
(lp7
F-0.27571778540208997
aF-0.10176534922280049
aF-0.27729704080896295
aF-0.10226949164118557
aF-0.2828289681677702
aF-0.1118727040617607
aF-0.2602521410044839
aF-0.161078627093585
aF-0.002280995359785167
aF-0.2799346074078352
aF-0.034806100378705934
aF-0.0018128254977160198
aF-0.6413598779796552
aF-0.19152064035838315
aF-0.00033744826141959215
aF0.05684105523132191
aF0.08355749356997269
aF-0.00013400963779190762
aF-0.15498811552387087
aF-0.0854322186821801
as(I1
g1
I1
g1
I0
tp8
(lp9
F-0.09516149756072191
aF-0.08338348588154132
aF-0.09205330282168296
aF-0.08785801959323056
aF-0.07657437622150148
aF-0.10154819149047915
aF-0.01317011584686953
aF-0.09233287225796372
aF0.005535825158418211
aF-0.07738748871801755
aF0.002147941161550656
aF-0.018825533952706242
aF-0.10698298528460495
aF-0.002730008062878382
aF-2.7187864896655535e-05
aF-0.006574522205282633
aF-4.5687156784031055e-05
aF-0.028582848978857198
aF-0.0193801604540178
aF-0.0015266664309862227
as(I1
g1
I1
g1
I1
tp10
(lp11
F0.08774817966147432
aF-0.03487301306018857
aF0.072247118251775
aF-0.0241008324396831
aF0.004511242466922583
aF0.01949276225634998
aF-0.19401635298285694
aF0.10396150710168639
aF0.008491899711397376
aF-0.015663867349095816
aF-0.017417161376841597
aF0.003502049716893583
aF0.06381157795570709
aF-0.005638697353095851
aF-0.0002467613871665751
aF-0.025276597299350494
aF-0.012417733589741808
aF-0.015319845268631498
aF-0.00829806974395
aF-0.0014226584164571273
as(I1
g1
I1
g1
I2
tp12
(lp13
F0.018716509551693412
aF0.10462533917552776
aF0.009064314358370615
aF0.08292359789860752
aF-0.03668721640320685
aF0.006725019047087447
aF-0.21848736055795795
aF-0.10275872664136404
aF0.001571611797986457
aF0.04837493924569461
aF0.045699918474854793
aF0.01104886374600266
aF-0.21550504823985808
aF-0.004269347189469799
aF0.0004418059715206958
aF0.07126516445291803
aF0.038839982801686504
aF0.012813575939836416
aF-0.03376429164755066
aF-0.0028339022908207114
as(I2
g1
I2
g1
I0
tp14
(lp15
F-0.056175601804764656
aF-0.08924401770092978
aF-0.052503552558583244
aF-0.07978161331862177
aF-0.03781777881543488
aF-0.059145456353359126
aF-0.006798303255892654
aF-0.08512998749095656
aF0.0
aF-0.132877870836523
aF-0.24125985384656973
aF0.0
aF-0.017029626498806197
aF0.01535613211912266
aF0.0
aF-0.09609973026172924
aF-0.2707670993244396
aF0.0
aF-0.00019430039345657744
aF-0.0042748337067568375
as(I2
g1
I2
g1
I1
tp16
(lp17
F-0.037826872262088425
aF-0.027694119156609714
aF-0.03535423052238532
aF-0.03830226449176066
aF-0.025465295297753904
aF-0.07640065361402593
aF-0.004577762241930798
aF-0.11527148689172872
aF0.0
aF-0.12687838990529762
aF-0.25698092206531253
aF0.0
aF-0.009442648925099772
aF-0.052023071934141164
aF0.0
aF-0.1020541973368484
aF-0.14305083838533794
aF0.0
aF-1.9809888427638402e-05
aF0.0006428685579114956
as(I2
g1
I2
g1
I2
tp18
(lp19
F-0.15316495027810584
aF-0.9569979510847954
aF-0.14315296603332953
aF-0.9323651344720104
aF-0.10311163611607622
aF-0.8174877912696437
aF-0.01853583667484567
aF-0.39729728347202536
aF0.0
aF-0.349825984805246
aF-1.1064904997616802
aF0.0
aF-0.051997202268092804
aF-0.27495385402973943
aF0.0
aF-0.24118204619013098
aF-0.7166849519789736
aF0.0
aF-0.0007669601934926633
aF-0.02483745032889362
as(I3
g1
I3
g1
I0
tp20
(lp21
F0.16746870040657424
aF0.15197597286522743
aF0.1718256310140328
aF0.15030908613751637
aF0.18375878041313087
aF0.1417603679301089
aF0.15151762520107054
aF0.09781122620191642
aF-0.004124063042406651
aF0.24604741849368478
aF0.01134489820393076
aF0.013579311433687334
aF0.05755559051677734
aF0.004779836500854267
aF-0.00028075136660930794
aF0.20239828200358836
aF0.008583383634708461
aF0.01576812908917316
aF0.02209577037317391
aF0.0015032844170086196
as(I3
g1
I3
g1
I1
tp22
(lp23
F-0.02252441687961962
aF0.01931888233041304
aF-0.019560648244483086
aF0.009885224924188168
aF-0.00875541720010245
aF-0.029335425934650466
aF0.010417115967014029
aF-0.1069459833132268
aF-0.0019026727660519489
aF-0.07022252264846125
aF0.0145165713356498
aF-0.001619284188169721
aF-0.023521159692343196
aF0.005780416794363838
aF-0.0004670405814644046
aF0.02499146252903287
aF0.009322124900082942
aF-0.000474473514697845
aF0.008937402007217588
aF0.001468192479980533
as(I3
g1
I3
g1
I2
tp24
(lp25
F0.2058340676728234
aF0.1603110392513896
aF0.19806225278072928
aF0.17018881255628046
aF0.17003768622676346
aF0.19995026511684777
aF0.10414085552694324
aF0.18110707441076704
aF0.0022764216619632544
aF0.3365050938761704
aF0.023293509108763044
aF0.011838280266817595
aF0.08174110485825234
aF0.009242559010566715
aF0.0010886401785590806
aF0.2589333855416712
aF0.017774728035336383
aF0.010614565421616769
aF0.02791755360503021
aF0.0028803701924782882
as(I4
g1
I4
g1
I0
tp26
(lp27
F-0.08038095485500482
aF0.13938073694965186
aF-0.08017391539298008
aF0.13533431418755504
aF-0.07788297636136962
aF0.11946890949893736
aF-0.05672703286868604
aF0.03706242361056174
aF-0.0007345579227072767
aF-0.0986783985342339
aF-0.01815428920916324
aF-0.001945067581579686
aF-0.13553894193060417
aF0.29061475023459443
aF0.00011269022509510263
aF0.02657074813842047
aF-0.01051676343194433
aF-0.0004937581622428128
aF-0.020168422247123473
aF0.14263278798810344
as(I4
g1
I4
g1
I1
tp28
(lp29
F-0.026910572839054236
aF-0.11151944267051248
aF-0.015713908185826297
aF-0.07401685060191424
aF0.028314537246829474
aF0.07125777780902356
aF0.10121902907897734
aF0.3821999789057211
aF-0.0024885302149463013
aF0.05381933143022115
aF-0.1662415604255615
aF-0.00464842658666398
aF0.3079490504454567
aF0.5191892740774533
aF5.442129177574706e-05
aF-0.21047401286072565
aF-0.16628900972123725
aF-0.0010276144285110227
aF0.027701786078445315
aF0.24920195820984328
as(I4
g1
I4
g1
I2
tp30
(lp31
F-0.2881167241739947
aF0.029791075013227863
aF-0.2873746139106752
aF0.0398861272045519
aF-0.279162994003191
aF0.06382952035187464
aF-0.2033318329163728
aF0.015015837296813148
aF-0.002632942377808761
aF-0.37580567279563565
aF0.13095661511577888
aF-0.006971881596986034
aF-0.4159158693066819
aF-0.017225182758166983
aF0.0004039257627555973
aF0.03548028885032997
aF0.005799370167681959
aF-0.0017698220243363202
aF-0.043092007270179346
aF0.04485711644525507
as(I5
g1
I5
g1
I0
tp32
(lp33
F0.05895778793387682
aF-0.19934070801023873
aF0.05454022324879252
aF-0.20299726362591453
aF0.0373885395367185
aF-0.19858740782932913
aF0.005127741789003477
aF-0.07192669325857234
aF0.00019605206260704563
aF0.0930483629673739
aF-0.31116855854207925
aF6.2457674939767e-05
aF0.011957323704015765
aF-0.11615476322881851
aF8.540529270689563e-05
aF0.06260755706602189
aF-0.14340865360306498
aF8.703763782745108e-07
aF1.0404393194938318e-05
aF-0.009758060887911648
as(I5
g1
I5
g1
I1
tp34
(lp35
F0.04474569555672593
aF0.037185287929990596
aF0.04129204682986135
aF0.05841696910778026
aF0.027779814452208007
aF0.12508601868691213
aF0.0033706191440822
aF0.1438295190198756
aF-0.00013525264901974752
aF0.10292493853744941
aF0.2721897148930873
aF-4.2065253001298464e-05
aF0.008735608929512126
aF0.09871760543595752
aF-5.9995691803968966e-05
aF0.08207663798319122
aF0.13538375562921529
aF-5.59001352395938e-07
aF6.370431360508282e-05
aF0.006702162899456955
as(I5
g1
I5
g1
I2
tp36
(lp37
F-0.14895344040827876
aF-0.6160375673968966
aF-0.13321375486394166
aF-0.6021056849272728
aF-0.07942625121516464
aF-0.5358415007561398
aF-0.007323814226112939
aF-0.27532266408985256
aF-0.00019815023615276612
aF-0.21018631305007943
aF-0.555582138932518
aF-6.312610474123503e-05
aF-0.019693873231171298
aF-0.18819766838495067
aF-8.631931076638062e-05
aF-0.16423929588189917
aF-0.28835036790451707
aF-8.796912544733698e-07
aF-0.00016420778727035818
aF-0.013034562386430193
as(I6
g1
I6
g1
I0
tp38
(lp39
F0.10914969730459892
aF-0.08971054339280549
aF0.12185290855682018
aF-0.07970123879338231
aF0.16790968336971893
aF-0.04796088459725185
aF0.19986131479235814
aF-0.028669112688340596
aF0.0010244145545190205
aF0.34708679173265145
aF0.12831717157247183
aF0.00039297819403422824
aF0.17230440208826087
aF-0.04677443556193811
aF0.00038602271391785303
aF0.0923698481907748
aF0.16714398763814922
aF8.277007695642242e-06
aF0.020940270136851423
aF-0.006371680363383214
as(I6
g1
I6
g1
I1
tp40
(lp41
F-0.0009073398018333463
aF0.038772719825555246
aF-0.0005810396968490283
aF0.004907133146167128
aF0.0004181936087251873
aF-0.10635365643276432
aF0.0010707627198789037
aF-0.1867340695190687
aF-0.00010158250623489105
aF-0.06906644325950707
aF-0.17412981389686438
aF-4.814689492127456e-05
aF-0.03932123191342304
aF-0.09435216453601372
aF-3.05991041851171e-05
aF-0.03567693696690836
aF-0.0976020747063718
aF-1.4142495998206885e-06
aF-0.020278736243715442
aF-0.011420761025304852
as(I6
g1
I6
g1
I2
tp42
(lp43
F-0.12581181490800053
aF0.6344324836033073
aF-0.12393853598904317
aF0.6164494977961915
aF-0.11642464170783025
aF0.5376135805011193
aF-0.08527296517329597
aF0.2773301305131871
aF-0.0004046963009947112
aF-0.036350385500616686
aF0.5232843565427089
aF-0.00015524654623040224
aF0.030267500543710597
aF0.21273830485072967
aF-0.00015249877477174615
aF-0.07041467023944188
aF0.2899104877891019
aF-3.2698426461774563e-06
aF0.0030025385835788835
aF0.0208845061885556
as(I7
g1
I7
g1
I0
tp44
(lp45
F-0.17510758281585265
aF-0.0882102668062717
aF-0.18805248603089908
aF-0.08933950247533828
aF-0.23496252498110734
aF-0.0933260834615611
aF-0.3112208429378146
aF-0.11776935414576051
aF-0.003182571531679671
aF-0.32322213916530246
aF-0.4118545998252701
aF-0.004554486572067865
aF-0.4546206816555009
aF0.021094710571368268
aF0.00010438736561386701
aF0.04382627623651887
aF-0.29699219548857686
aF-0.0006521472806748307
aF-0.03963280758218717
aF0.04209888061803296
as(I7
g1
I7
g1
I1
tp46
(lp47
F-0.06531806886304661
aF0.051709381818168046
aF-0.05127589870443425
aF0.045019902522676625
aF0.0008367315672495306
aF0.014316753755916796
aF0.08767419437343112
aF-0.06708308253960374
aF-0.004566758246291708
aF0.024608805697633986
aF-0.04266012548578553
aF-0.005620473867641141
aF0.04729387862504474
aF0.008530566564182804
aF-0.00018105075862553027
aF0.01464190685199691
aF-0.07334417380684309
aF-0.0007587164657361103
aF0.05484550639991238
aF-0.004818025116621276
as(I7
g1
I7
g1
I2
tp48
(lp49
F-0.19858508685431925
aF0.7456409306610404
aF-0.18751395540869478
aF0.7272922755848378
aF-0.1483321382210845
aF0.6570836110706152
aF-0.09189154734333577
aF0.46300425907605963
aF-0.007763293426724629
aF-0.07874162521973344
aF1.0124546951464475
aF-0.008880957896659472
aF0.13933937164621235
aF0.4153754735437637
aF-0.0002792083137912537
aF-0.1727909949645567
aF0.5119661905733947
aF-0.0010175533496780745
aF0.021147391643109425
aF0.08965405673266934
as(I8
VCu
p50
I8
g50
I0
tp51
(lp52
F0.04809487935838928
aF0.268053952725386
aF0.043699938491099544
aF0.26462897211561565
aF0.02776730355900793
aF0.2469468675041586
aF0.002977677923297361
aF0.20898083740922843
aF0.0
aF0.05977670773166259
aF0.34719482790612755
aF0.0
aF0.005982064946672055
aF0.15569615286727556
aF0.0
aF0.0517070478475597
aF0.12392955364159322
aF0.0
aF0.00038118299813018125
aF-0.005771451414130471
as(I8
g50
I8
g50
I1
tp53
(lp54
F-0.03524595049117081
aF0.09894347394102254
aF-0.032025152969966574
aF0.06281252612800337
aF-0.020349047956253804
aF-0.06798594756993787
aF-0.0021821676249798995
aF-0.2527436946166772
aF0.0
aF0.012318272406453137
aF-0.21273047551435745
aF0.0
aF0.0027035784502961635
aF-0.20557669994875036
aF0.0
aF0.0028016865904829467
aF-0.025479924176770082
aF0.0
aF-0.00036894818175260474
aF-0.05430804365960638
as(I8
g50
I8
g50
I2
tp55
(lp56
F-0.11042377998358285
aF0.7800205462136689
aF-0.10033318427267367
aF0.7679135333261115
aF-0.06375253789678986
aF0.7226947497029466
aF-0.006836620784803058
aF0.5854998965844794
aF0.0
aF-0.07652367561735808
aF1.1930785849892833
aF0.0
aF-0.004516531223387273
aF0.7046673420677666
aF0.0
aF-0.07279908581620037
aF0.49111053556343537
aF0.0
aF-0.0005673329455934372
aF0.14589406719521164
as(I9
g50
I9
g50
I0
tp57
(lp58
F-0.04809487935838868
aF-0.19727600086368083
aF-0.04369993849109895
aF-0.20053867831412933
aF-0.027767303559007448
aF-0.20924987466685127
aF-0.0029776779232972626
aF-0.17801627631949815
aF0.0
aF-0.053427194875560566
aF0.0013550633435919705
aF0.0
aF-0.004069509009761909
aF-0.17154170184975479
aF0.0
aF-0.04466224312045212
aF0.026259523782349192
aF0.0
aF-0.00013188268934924804
aF-0.15683835565689888
as(I9
g50
I9
g50
I1
tp59
(lp60
F0.03524595049117037
aF-0.04417096032353772
aF0.032025152969966136
aF-0.030725273523559436
aF0.02034904795625345
aF0.027103211686354385
aF0.002182167624979827
aF0.19393643233442737
aF0.0
aF0.006816097748885891
aF-0.024910709412473565
aF0.0
aF0.0010698685752424165
aF0.09263750763099582
aF0.0
aF0.008558314621807
aF-0.17018365137474104
aF0.0
aF0.00021432193977771752
aF-0.10486467390340812
as(I9
g50
I9
g50
I2
tp61
(lp62
F0.11042377998358181
aF0.18577867858660269
aF0.10033318427267258
aF0.17745076654943492
aF0.06375253789678895
aF0.1532414099046131
aF0.006836620784802853
aF0.19545474578498173
aF0.0
aF0.09135944223772333
aF0.07233514531986357
aF0.0
aF0.009969524225333011
aF0.05314755550636538
aF0.0
aF0.06689564443414234
aF0.07819963706417386
aF0.0
aF0.0001601095229366538
aF0.11327390819171604
as.