(lp0
(VPt
p1
(lp2
F0.4139614409050971
aF1.88431317457821
aF0.3917019381233018
aF1.7882030142983067
aF0.30306671050441003
aF1.4178622393217182
aF0.09212639554038458
aF0.5656527452943612
aF0.0
aF0.40047626061859154
aF0.32684593840467346
aF0.0
aF0.1367755584217225
aF0.12165655866985431
aF0.0
aF0.2362925209411439
aF0.22700452094237877
aF0.0
aF0.01355896672736546
aF0.04733572507780733
atp3
a(g1
(lp4
F0.8196565860710118
aF0.26736822565215324
aF0.7833684215772715
aF0.2364149014719065
aF0.6439160851490301
aF0.1337372528520619
aF0.3090364654986888
aF0.00979374385308091
aF0.004495777694808963
aF0.020408283581651466
aF0.0025675975082929507
aF0.004210538522980672
aF0.006115958990766064
aF0.000530130970612224
aF0.0006190361373303787
aF0.011007804413193002
aF0.0014621022211256903
aF0.0004762634678288342
aF0.0002677686025347496
aF2.657067954501245e-06
atp5
a(g1
(lp6
F0.4105204210521889
aF1.8395936000115765
aF0.3757952339889778
aF1.7415996726957186
aF0.24933958886642893
aF1.370698513161366
aF0.03714103079816085
aF0.5501369091998319
aF0.0028773357332294225
aF0.34123458308085675
aF0.28880514330946594
aF0.0017237071915846705
aF0.06141442513606256
aF0.10701064295985939
aF0.0007037093182377596
aF0.21694998058919043
aF0.193542469865314
aF9.063274201223832e-05
aF0.000537345036105637
aF0.04419311492124543
atp7
a(g1
(lp8
F0.8392716089211616
aF1.89103681432724
aF0.8014430779072871
aF1.7999488564175483
aF0.6551396715335408
aF1.462784457647959
aF0.3034105545627998
aF0.7939170926513656
aF0.005362656062588498
aF0.9982130181042498
aF0.26021364513182565
aF0.005924606365965837
aF0.2750197000461816
aF0.1587495429267824
aF0.0005751139591433493
aF0.5137171990374231
aF0.1427838133223049
aF0.000856785555294133
aF0.009645071089637813
aF0.0489747831649039
atp9
a(g1
(lp10
F0.0
aF0.481839661073413
aF0.0
aF0.4391920830034938
aF0.0
aF0.28951506517633546
aF0.0
aF0.051652863537963174
aF0.0
aF0.0
aF0.00753797156418602
aF0.0
aF0.0
aF0.0017818156974121252
aF0.0
aF0.0
aF0.004117462351112081
aF0.0
aF0.0
aF2.3719991181157083e-05
atp11
a(g1
(lp12
F0.17497913213413893
aF0.8106196606758703
aF0.15547811644964316
aF0.7354514255945386
aF0.08984191520036569
aF0.47267273175213803
aF0.007046000210503792
aF0.07161769173218435
aF0.0006103858819972785
aF0.009028157966497573
aF0.014293781212475258
aF0.00023759264008759402
aF0.0011872122897709759
aF0.003776552135627599
aF0.00022764775023872787
aF0.006597311062859584
aF0.007464731224478964
aF5.226095916083397e-06
aF1.5595587969273908e-05
aF6.530982608490959e-05
atp13
a(g1
(lp14
F0.005662130757057244
aF1.1541708794029637
aF0.004802535239591486
aF1.0563391357062415
aF0.00223642136948253
aF0.705534441305879
aF6.440680144335631e-05
aF0.122360199001133
aF0.0
aF0.0010770302969311443
aF0.013110571511479983
aF0.0
aF0.00010220503797111802
aF0.006953721192303173
aF0.0
aF0.0008524507482600528
aF0.004412190647250233
aF0.0
aF6.762843569441633e-07
aF0.0004923540890044266
atp15
a(g1
(lp16
F0.8217486716089015
aF1.576983015939066
aF0.8005679787360755
aF1.501656652779679
aF0.716668616267254
aF1.2297425821806647
aF0.46953317541030315
aF0.7285912039327572
aF0.002284376877394915
aF0.6204683529081012
aF0.23850178276822975
aF0.0012049603953249448
aF0.5406329481334765
aF0.06791416089002884
aF0.0006495020188069896
aF0.13991491371777423
aF0.14391364021348543
aF5.175161612537781e-05
aF0.07415309295138829
aF0.010497046696806796
atp17
a(VCu
p18
(lp19
F0.10117549699013667
aF1.0002978489622083
aF0.08862476831385027
aF0.9436490732665066
aF0.04792585164973556
aF0.7359944217188786
aF0.0027627015652227356
aF0.3161468725106361
aF0.0
aF0.015752051715508496
aF0.01092212082239916
aF0.0
aF0.003356537764240625
aF0.008037303259395018
aF0.0
aF0.009767577039099041
aF0.0024145842212963233
aF0.0
aF6.080206345221326e-05
aF0.0007330230950246072
atp20
a(g18
(lp21
F0.10117549699013684
aF2.4855021424873494
aF0.08862476831385042
aF2.369508228755642
aF0.04792585164973564
aF1.9242145871716345
aF0.0027627015652227412
aF0.9022111563116487
aF0.0
aF0.03178300951205021
aF1.3331962353147844
aF0.0
aF0.0069722757401266995
aF0.35392118790983657
aF0.0
aF0.01977752985468996
aF0.837991863831319
aF0.0
aF0.0002414740752765649
aF0.03363808169037618
atp22
a.