(lp0
(VPt
p1
(lp2
F0.0014972207257121716
aF1.319095763776983
aF0.0012593600099555253
aF1.2668784324843765
aF0.0005641567597265658
aF1.0583238578901193
aF1.3572042653636645e-05
aF0.4978519718051813
aF0.0
aF2.064506731214709e-05
aF0.07881462463761116
aF0.0
aF1.0041510903123804e-05
aF0.039407312318805586
aF0.0
aF6.286657794225393e-06
aF0.07881462463761116
aF0.0
aF3.5184457938249233e-07
aF0.039407312318805586
atp3
a(g1
(lp4
F0.30831417845595066
aF0.10117549699013652
aF0.2869808546389107
aF0.08862476831385013
aF0.2059520581147339
aF0.04792585164973548
aF0.04462817077388331
aF0.00276270156522273
aF8.014961061599979e-05
aF0.00015851911288144825
aF0.0
aF2.739968394063406e-05
aF5.657947623181875e-05
aF0.0
aF3.317286405510997e-05
aF7.90135620353487e-05
aF0.0
aF4.530639578397392e-07
aF3.104118101698137e-06
aF0.0
atp5
a(g1
(lp6
F0.015396115242222688
aF1.319095763776983
aF0.013201140238248107
aF1.2668784324843765
aF0.0064647935956700575
aF1.0583238578901193
aF0.00023517901677392623
aF0.4978519718051813
aF0.0
aF1.683929556436468e-05
aF0.07881462463761117
aF0.0
aF1.3847282650906208e-05
aF0.039407312318805586
aF0.0
aF2.7825968362310153e-06
aF0.07881462463761117
aF0.0
aF1.2723682880450357e-06
aF0.039407312318805586
atp7
a(g1
(lp8
F0.30023410786696625
aF0.9420902019421226
aF0.2721690171128265
aF0.8879666087417776
aF0.17374877661826618
aF0.6853110966375188
aF0.024110199353675556
aF0.2571925711778251
aF0.0007571857825690421
aF0.019913143805640753
aF0.03114910953269756
aF0.00031621300837701564
aF0.004672481023660027
aF0.011827346510685913
aF0.0002657825707300594
aF0.013305276430002387
aF0.017273467421155105
aF8.08417344352629e-06
aF0.0006929611362610737
aF0.001434393593180527
atp9
a(g1
(lp10
F0.0
aF1.4582026994506965
aF0.0
aF1.3814665776992787
aF0.0
aF1.0853825536426533
aF0.0
aF0.40800075373316635
aF0.0
aF0.0
aF0.11207516975679747
aF0.0
aF0.0
aF0.06255860175607844
aF0.0
aF0.0
aF0.05948230571480921
aF0.0
aF0.0
aF0.01569765177445093
atp11
a(g1
(lp12
F0.0
aF0.6804130429048542
aF0.0
aF0.6192056845315914
aF0.0
aF0.4025497061919402
aF0.0
aF0.061413757210893594
aF0.0
aF0.0
aF0.08055818363303961
aF0.0
aF0.0
aF0.0123025600522941
aF0.0
aF0.0
aF0.05397406586610654
aF0.0
aF0.0
aF7.374052121875453e-05
atp13
a(g1
(lp14
F0.0
aF1.4416099905818909
aF0.0
aF1.361097320795447
aF0.0
aF1.0556334471886142
aF0.0
aF0.3913468615704232
aF0.0
aF0.0
aF0.12932924349199104
aF0.0
aF0.0
aF0.04912938479493843
aF0.0
aF0.0
aF0.07747361365617945
aF0.0
aF0.0
aF0.012701745992356472
atp15
a(g1
(lp16
F0.3710009167794949
aF0.9420902019421225
aF0.3475138048363164
aF0.8879666087417775
aF0.25727306360823937
aF0.6853110966375187
aF0.06570016378740115
aF0.25719257117782496
aF0.0
aF0.010197147111291717
aF0.031149109532697478
aF0.0
aF0.01224168013611724
aF0.011827346510685888
aF0.0
aF0.0037956955489138067
aF0.017273467421155063
aF0.0
aF0.0044280724431956025
aF0.0014343935931805244
atp17
a(VCu
p18
(lp19
F0.10117549699013684
aF0.30831417845595055
aF0.08862476831385042
aF0.2869808546389106
aF0.04792585164973564
aF0.2059520581147338
aF0.0027627015652227412
aF0.04462817077388327
aF0.0
aF0.0001585191128814487
aF8.014961061599976e-05
aF0.0
aF5.6579476231818915e-05
aF2.739968394063405e-05
aF0.0
aF7.901356203534892e-05
aF3.317286405510997e-05
aF0.0
aF3.104118101698147e-06
aF4.530639578397387e-07
atp20
a(g18
(lp21
F0.10117549699013684
aF0.6881283606143962
aF0.08862476831385042
aF0.6341433221973467
aF0.04792585164973564
aF0.4380507905819023
aF0.0027627015652227412
aF0.0900591142005043
aF0.0
aF0.0016466297277099437
aF0.02028385760103444
aF0.0
aF0.0005001678541821761
aF0.0032590550155356434
aF0.0
aF0.0007857413448876382
aF0.015502179760506565
aF0.0
aF1.0327243732962235e-05
aF0.00025989464486238044
atp22
a.