(lp0
(VPt
p1
(lp2
F1.7263874268926893
aF5.035121066500288
aF1.6579012509684496
aF4.782413354109447
aF1.3864211791159229
aF3.8125680214503204
aF0.6951850800157174
aF1.5780994766218945
aF0.8913235453322718
aF2.8960982784822344
aF4.491501559478012
aF0.05820006926917334
aF1.7406273189254025
aF1.764645230883861
aF0.7947087807199742
aF1.412187085065182
aF2.5022724922099604
aF0.007267090016357618
aF0.473177827508278
aF0.27943366020380195
atp3
a(g1
(lp4
F0.5900012659061558
aF5.6115891010502725
aF0.5371427063583433
aF5.347762376589861
aF0.3483056240417507
aF4.334445097934093
aF0.048651335735518345
aF2.0136099342121736
aF0.07303982349067525
aF1.1197570849596754
aF5.087055457177881
aF0.0007135202491788562
aF0.18387829610145093
aF2.744190166258318
aF0.07094758238891521
aF0.8290768187482107
aF2.4990564993164983
aF1.0695213902859018e-09
aF0.016610105614497845
aF0.5793658300667968
atp5
a(g1
(lp6
F1.7169264452296766
aF5.117504463157672
aF1.6515082312379372
aF4.83927265921574
aF1.392654538441295
aF3.7799348870062284
aF0.7298050200833651
aF1.4775668089311969
aF0.9124045117482823
aF2.8330343276433623
aF4.6622884257245865
aF0.055723334000433514
aF1.720434766847729
aF1.4402449911864843
aF0.8149487096602751
aF1.3405635542916903
aF2.784490682629862
aF0.006064510920045984
aF0.4504973322324159
aF0.19920978002230258
atp7
a(g1
(lp8
F0.03442028810332648
aF3.839070963591839
aF0.02959491308581475
aF3.5944992381308296
aF0.014684927931407184
aF2.6772454126885794
aF0.0005713886737587084
aF0.8099780489107367
aF0.0005154524848317787
aF0.03247102479369975
aF3.072314323291294
aF4.563660250752259e-06
aF0.004257099313622942
aF0.6413099824704548
aF0.0005020173431596564
aF0.023614879853400793
aF2.0261985013088055
aF1.4698669895926763e-10
aF4.219068422762381e-05
aF0.042603592831756236
atp9
a(g1
(lp10
F0.693584011197099
aF5.820836259253303
aF0.6331930877163771
aF5.5499240613433996
aF0.41869068972911694
aF4.491711207289003
aF0.07253771455431907
aF1.9702031018144592
aF0.09894622394997078
aF1.4140083508383654
aF5.948788114228777
aF0.002198088416735017
aF0.29376930938358514
aF2.5421130189153103
aF0.09530782486106766
aF0.9657875893166503
aF3.2088013654369276
aF7.402791194115469e-05
aF0.02290365555746319
aF0.6093494224976397
atp11
a(g1
(lp12
F0.6456369019975142
aF4.409349602266492
aF0.5984123349939859
aF4.134605589781394
aF0.42242640490899724
aF3.0961348575868244
aF0.08852133359013045
aF0.945364802527609
aF0.17326160948588606
aF1.4475055844869698
aF3.341956342113022
aF0.003994379632146388
aF0.257337298150856
aF0.8105962360631834
aF0.1627031056475082
aF0.9635139263107392
aF2.0795356439900123
aF1.8817733403092417e-05
aF0.006889721363514717
aF0.07028334380609091
atp13
a(g1
(lp14
F0.8886273427574097
aF5.70312521831679
aF0.8301688391116233
aF5.443312376175236
aF0.6122781248107331
aF4.439986978929986
aF0.17716811111181358
aF2.072580669485572
aF0.2429668534085535
aF1.931263261005266
aF5.578477850216048
aF0.0020738125766228068
aF0.5783194618216575
aF2.837748804146247
aF0.2387844888383111
aF1.2036841461048733
aF2.8620278935647185
aF4.860960129798616e-05
aF0.09406935578003119
aF0.8344344118605039
atp15
a(g1
(lp16
F1.5310184940221743
aF3.8498190254425135
aF1.4759964205322056
aF3.601862665566767
aF1.2605672596704975
aF2.6788250873375334
aF0.6982841915311928
aF0.8355059312057683
aF0.8266641465460999
aF1.7469973161981525
aF3.261722791888964
aF0.019913695539253064
aF0.8251673466680021
aF0.6360474182378837
aF0.7723934096351375
aF1.041409842544528
aF2.118353687182418
aF7.34411198493439e-05
aF0.3430970557111156
aF0.029129281191083746
atp17
a(VCu
p18
(lp19
F1.1057222128099011
aF3.4804936566949856
aF1.0779481701900109
aF3.287355473944615
aF0.981600149359071
aF2.5664596587965836
aF0.801759144181586
aF1.0716476347434702
aF0.016495371324373224
aF2.2626961134939263
aF2.6973130785038832
aF0.007184444541388001
aF1.079683234768922
aF0.846960748210396
aF0.009095964947637494
aF1.4155798527146661
aF1.658767999308056
aF0.0006960990848897943
aF0.4249803374372188
aF0.10060460825312745
atp20
a(g18
(lp21
F1.1057222128099011
aF4.346108519411059
aF1.077948170190011
aF4.126562310060121
aF0.9816001493590711
aF3.289569089853137
aF0.801759144181586
aF1.4390765405523458
aF0.016495371324373224
aF1.5496374729504576
aF4.512348991990111
aF0.007184444541388
aF1.8318704383674218
aF1.4558402441056264
aF0.009095964947637496
aF0.745487305776315
aF2.555378440170036
aF0.0006960990848897945
aF0.7962021362765633
aF0.12305861853600332
atp22
a.