(lp0
(VPt
p1
(lp2
F0.2526398229540906
aF5.817202051355886
aF0.23210719821684134
aF5.524701846732991
aF0.15704601879644567
aF4.39945900979876
aF0.02649338152710513
aF1.8249906721304578
aF0.0002215931045069269
aF0.4851077167421476
aF6.413388351923802
aF7.968665022082547e-05
aF0.13808598813003273
aF2.388097030176954
aF8.816883868967328e-05
aF0.27316279359092455
aF3.594664710840326
aF1.4744581010627988e-06
aF0.00782895369273005
aF0.4441174816886373
atp3
a(g1
(lp4
F0.32997596772107285
aF5.975393857121443
aF0.305040980631714
aF5.684099517723952
aF0.21293009150877631
aF4.5627181217315025
aF0.04291993537847521
aF1.9838057820090487
aF0.0011616526932726422
aF0.6361731897490819
aF6.781181556277227
aF0.000305547805332817
aF0.21807127117595565
aF2.6933096842074566
aF0.000683338985018425
aF0.3260870640155136
aF3.7539871163245224
aF7.895794358215754e-06
aF0.016454292746963875
aF0.5762797557178072
atp5
a(g1
(lp6
F0.2455958011690665
aF5.827997460978289
aF0.22369209273248888
aF5.52986908333786
aF0.1455918628974175
aF4.382152417659757
aF0.021070797502417016
aF1.7671630241080312
aF0.0005270086087560988
aF0.4435291988638741
aF6.430837712516423
aF0.00020728482137434039
aF0.11224475440533659
aF2.262692833314397
aF0.00019483272761589726
aF0.2612780703279994
aF3.6767146077777664
aF4.662953440240452e-06
aF0.004837332012978801
aF0.4065224248931281
atp7
a(g1
(lp8
F0.3517336084656146
aF6.025678177992866
aF0.32258251558083345
aF5.729861783909725
aF0.2169303251874915
aF4.58937791290799
aF0.03716925253459498
aF1.9661494445586178
aF0.002258208078787741
aF0.6277438968879318
aF6.826366398048881
aF0.0007843870470215465
aF0.18633002595439302
aF2.637013983346562
aF0.0011286309322541227
aF0.3435820313493406
aF3.8401805202870967
aF2.79124247012288e-05
aF0.01195987340369794
aF0.5764891968746488
atp9
a(g1
(lp10
F0.2616703488662096
aF5.909752725221251
aF0.2312075937141373
aF5.618388147826421
aF0.130298466844599
aF4.496953372724034
aF0.009283057323975465
aF1.9191488912453565
aF0.0006272413310921823
aF0.2785586529244714
aF6.6046465283464
aF0.00022144099670948702
aF0.059534596102228825
aF2.5658838993763418
aF0.00025329134962954634
aF0.16517707241674798
aF3.670931195865594
aF3.94211638243903e-06
aF0.0009949462587537981
aF0.5195090789417425
atp11
a(g1
(lp12
F0.8194153337448064
aF5.919197035148112
aF0.7668924529242943
aF5.6280707854446
aF0.567289845520133
aF4.507681866998427
aF0.15108846026841125
aF1.9327352790722074
aF0.042602107298879525
aF1.0983142572518545
aF6.642281160125966
aF0.009425328981223606
aF0.49880223429072496
aF2.59460567022035
aF0.033428603825973624
aF0.5004410791571374
aF3.685573610230303
aF0.0013624042023313882
aF0.06785986682456607
aF0.529964772655153
atp13
a(g1
(lp14
F0.36777293245790976
aF5.9250451886060755
aF0.3350357923524084
aF5.625648110704697
aF0.21758996776914838
aF4.471401584030419
aF0.029865257728988723
aF1.8286343984748177
aF0.0010412442296132986
aF0.4596186898520504
aF6.6498642102028285
aF3.053938387870637e-05
aF0.1389375437990917
aF2.3667298867523354
aF0.0009547487466247733
aF0.24195304706724866
aF3.8190330885444097
aF7.065215217179056e-10
aF0.006010669348348789
aF0.4519260131312513
atp15
a(g1
(lp16
F0.8059044827363729
aF5.945854212738346
aF0.7725639134914526
aF5.646959243114571
aF0.6433747854531756
aF4.493929300597636
aF0.32157470036893826
aF1.8469556159874845
aF0.11180421772537932
aF0.7694628769397043
aF6.696984684056399
aF0.0006198663570646421
aF1.0751649837103403
aF2.407007500084432
aF0.11068348228034511
aF0.08401257803929994
aF3.8342433718709397
aF1.4523092665683378e-05
aF0.255838859100911
aF0.46525795648314666
atp17
a(VCu
p18
(lp19
F0.7946961053623831
aF3.242191574620067
aF0.7610946714670579
aF3.018682365151513
aF0.6337151073461179
aF2.1938231896755434
aF0.32527584841409685
aF0.6317333488540279
aF0.003502563368707342
aF0.043519469075924605
aF3.0954865730997283
aF0.0013517859790373478
aF0.15007150056217392
aF0.5056923769453145
aF0.001830326836467796
aF0.02271237090873326
aF2.0631516627425306
aF0.00010227160963953419
aF0.1286030085853317
aF0.006980668931766233
atp20
a(g18
(lp21
F0.7946961053623831
aF0.19251672349507573
aF0.7610946714670579
aF0.17044017449265758
aF0.6337151073461179
aF0.09722817430164385
aF0.32527584841409685
aF0.007731493778878169
aF0.003502563368707339
aF0.14763791923909522
aF0.010903228993500744
aF0.001351785979037348
aF0.002605821349033671
aF0.0007577593510662444
aF0.0018303268364677943
aF0.14086124449588522
aF0.00894008532863685
aF0.00010227160963953425
aF2.6454182617729046e-06
aF6.479668696325605e-07
atp22
a.