(lp0
(VPt
p1
(lp2
F0.5429271460869893
aF3.1010077957921633
aF0.5134247066262793
aF2.9353424592897435
aF0.39972118616966884
aF2.3027086386271014
aF0.13841399196620033
aF0.8870985646758345
aF0.0016396471063549812
aF0.5591457487047912
aF0.9648410813517398
aF0.0008750948173269063
aF0.23433967590282145
aF0.5239087599802725
aF0.00045448680766524045
aF0.26717161684411334
aF0.4148476741671865
aF3.6875692173604385e-05
aF0.03227722174293975
aF0.0957571224790556
atp3
a(g1
(lp4
F0.927862895894953
aF1.8558047685374626
aF0.9072043225097338
aF1.7370927569096044
aF0.8262776673996708
aF1.2910017721248923
aF0.5994299551650568
aF0.37855065583241915
aF0.0040067555970400475
aF0.6472642844006751
aF0.580520577790579
aF0.004099693604463465
aF0.40840411926501713
aF0.1456210430913849
aF0.0005146401742863747
aF0.26188320647110885
aF0.3476333388149267
aF0.0005457159226976668
aF0.09482335797089707
aF0.005926036225812486
atp5
a(g1
(lp6
F0.5463957261398901
aF3.128782135344476
aF0.5098032773629585
aF2.9623972171242556
aF0.3715741486271009
aF2.3217989407491784
aF0.09363715551744412
aF0.8626974450555372
aF0.0036680653883166144
aF0.5900403762090867
aF1.0531916461218782
aF0.002573036397175752
aF0.156742969119999
aF0.47726638377678077
aF0.0007446710652715361
aF0.3231351753185869
aF0.5262401178474228
aF0.00018030174168346368
aF0.009882159468584872
aF0.08834923339822517
atp7
a(g1
(lp8
F0.5175426577962106
aF2.1858751034223016
aF0.48110915894664186
aF2.024548921124794
aF0.34647251486053476
aF1.4394368914459958
aF0.087722910782771
aF0.3876933841380804
aF0.0020716438942326074
aF0.19239150048376608
aF0.7434072312488175
aF0.0011542853912326415
aF0.029282251451395278
aF0.14322466421830923
aF0.0005486506371826339
aF0.13583763369352447
aF0.45410201269124734
aF5.287961292202978e-05
aF0.003106309245918997
aF0.0018712240901830862
atp9
a(g1
(lp10
F0.340716878787432
aF2.8745366653979034
aF0.31820514602993866
aF2.7031195455616954
aF0.23217108537730996
aF2.067447607289973
aF0.054913369867146206
aF0.8287989836463874
aF0.00019521169265032995
aF0.49177710655573065
aF0.9224229087841193
aF7.144201489345432e-05
aF0.07978998775225828
aF0.29569449960974753
aF7.659147429390761e-05
aF0.32956568161520805
aF0.5138299512833189
aF1.3739530698259308e-06
aF0.0008872738071501342
aF0.058470057060478815
atp11
a(g1
(lp12
F0.6506967872982472
aF1.7412960018635024
aF0.609214212369469
aF1.62619271432997
aF0.45016719041478304
aF1.1993449435089194
aF0.11678439729299736
aF0.3520968979887531
aF0.00016958634258370646
aF0.462395286414186
aF0.5709541325757859
aF6.242434574901252e-05
aF0.04042052607917654
aF0.12820067341298647
aF6.622767643242434e-05
aF0.37391114365904526
aF0.3464467605041665
aF1.2158836532330871e-06
aF0.0005350842897019063
aF0.0027630792387745295
atp13
a(g1
(lp14
F0.7667318742605994
aF2.6619850628482182
aF0.7286175182342907
aF2.517402178508929
aF0.5787086450081818
aF1.980434339277046
aF0.22045300514918323
aF0.8824431818871176
aF0.005852995654290001
aF0.7987070533020743
aF0.6492794946048284
aF0.006465411689643239
aF0.33972917913046047
aF0.4096498086826102
aF0.0006278402048175729
aF0.5020618078373252
aF0.2634189539494736
aF0.000934805056335214
aF0.07253042909167343
aF0.07167358580428285
atp15
a(g1
(lp16
F1.107560627926704
aF1.5664865609130836
aF1.0653707925199358
aF1.45841610927988
aF0.8896442557562907
aF1.0595937939357447
aF0.38542346163081287
aF0.29448258025428076
aF0.004823365173291962
aF0.6141799756505807
aF0.5088642741873791
aF0.027851932326668393
aF0.2536593903126018
aF0.0931216884162791
aF1.551464782860561e-05
aF0.28284531019787235
aF0.32262329838992393
aF0.01724895042080183
aF0.025199846004447437
aF0.0014866189987606537
atp17
a(VCu
p18
(lp19
F0.10117549699013667
aF2.6860084362412313
aF0.08862476831385027
aF2.5632411991434316
aF0.04792585164973556
aF2.0873245881999454
aF0.0027627015652227356
aF0.9915807274743835
aF0.0
aF0.03505072088520353
aF1.1259805982315818
aF0.0
aF0.006796320997423074
aF0.5082631732182076
aF0.0
aF0.0229657610910054
aF0.5825486312560176
aF0.0
aF0.00017549951149747236
aF0.0990411854360205
atp20
a(g18
(lp21
F0.10117549699013667
aF2.714426157949795
aF0.08862476831385027
aF2.5697079354558157
aF0.04792585164973556
aF2.0074121054135956
aF0.0027627015652227356
aF0.7051975198972282
aF0.0
aF0.08204274188929561
aF0.9446716566917625
aF0.0
aF0.007271399099904472
aF0.37021928722575903
aF0.0
aF0.06655909280468503
aF0.4727066674341657
aF0.0
aF9.562708796155752e-05
aF0.04775062642350229
atp22
a.