(lp0
(VPt
p1
(lp2
F0.018985528360575453
aF1.319095763776983
aF0.016327454577552546
aF1.2668784324843765
aF0.008107274987900981
aF1.0583238578901193
aF0.00031450649362103146
aF0.4978519718051813
aF0.0
aF0.00036159839789109407
aF0.07881462463761116
aF0.0
aF0.00021455465957962884
aF0.039407312318805586
aF0.0
aF8.939070814777338e-05
aF0.07881462463761116
aF0.0
aF1.1079959941961693e-05
aF0.039407312318805586
atp3
a(g1
(lp4
F0.6640920514548821
aF0.13385711799877653
aF0.6216484614636404
aF0.11699034819982415
aF0.45775623274799115
aF0.06262454100243184
aF0.11181181956380845
aF0.003457796948205129
aF0.005916728594915709
aF0.01995131686334284
aF0.0
aF0.005800264040565336
aF0.0034826684076191793
aF0.0
aF0.0007618651749743953
aF0.012342374275729463
aF0.0
aF0.0007036271444730113
aF1.2342562966171938e-05
aF0.0
atp5
a(g1
(lp6
F0.022955253089659948
aF1.319095763776983
aF0.019799930194089873
aF1.2668784324843765
aF0.00996754325419243
aF1.0583238578901193
aF0.0004121393449989528
aF0.4978519718051813
aF0.0
aF0.0003501419033553267
aF0.07881462463761117
aF0.0
aF0.00022601115411539628
aF0.039407312318805586
aF0.0
aF7.858917689179314e-05
aF0.07881462463761117
aF0.0
aF1.3642874349774033e-05
aF0.039407312318805586
atp7
a(g1
(lp8
F0.8480495538909716
aF1.2922801063784584
aF0.8189055590288619
aF1.2412073699243384
aF0.7033876360389228
aF1.0391178220512485
aF0.39473897830812105
aF0.5126017190728313
aF0.00482258013607496
aF0.5559642660514481
aF0.07322532843075738
aF0.00524556267848575
aF0.3030958067546827
aF0.03575086896843947
aF0.0005299924830921792
aF0.2037806044818392
aF0.07020269202937274
aF0.000741857037630882
aF0.041237487592921646
aF0.03177478077118447
atp9
a(g1
(lp10
F0.0
aF1.260164344821695
aF0.0
aF1.1950385620950412
aF0.0
aF0.9481686043380457
aF0.0
aF0.40561335273731114
aF0.0
aF0.0
aF0.06925326928452231
aF0.0
aF0.0
aF0.03334571161509948
aF0.0
aF0.0
aF0.04087731613356381
aF0.0
aF0.0
aF0.008415081591904757
atp11
a(g1
(lp12
F0.0
aF0.4747227680770289
aF0.0
aF0.42259276035999577
aF0.0
aF0.24680342827412105
aF0.0
aF0.02119897179904196
aF0.0
aF0.0
aF0.028573919168899963
aF0.0
aF0.0
aF0.003620914026398666
aF0.0
aF0.0
aF0.02061227849498519
aF0.0
aF0.0
aF2.1101213707532665e-05
atp13
a(g1
(lp14
F0.0
aF1.3225668928280054
aF0.0
aF1.2494858384362486
aF0.0
aF0.9767938834631607
aF0.0
aF0.4065222860938525
aF0.0
aF0.0
aF0.07446727423692007
aF0.0
aF0.0
aF0.03142221170221965
aF0.0
aF0.0
aF0.044696809256707604
aF0.0
aF0.0
aF0.007839436356036678
atp15
a(g1
(lp16
F0.7690611476455658
aF1.2922801063784586
aF0.7364344124162088
aF1.2412073699243389
aF0.6077693911681804
aF1.0391178220512487
aF0.2822769146812906
aF0.5126017190728316
aF0.0047563153955498556
aF0.6578425743408637
aF0.07322532843075741
aF0.004571254477130511
aF0.19973635258150685
aF0.03575086896843957
aF0.0006306335161450257
aF0.35404347563341515
aF0.07020269202937275
aF0.0005380666338172749
aF0.01922559897319726
aF0.03177478077118459
atp17
a(VCu
p18
(lp19
F0.10117549699013684
aF0.6640920514548818
aF0.08862476831385042
aF0.6216484614636402
aF0.04792585164973564
aF0.4577562327479908
aF0.0027627015652227412
aF0.11181181956380834
aF0.0
aF0.019951316863342897
aF0.005916728594915671
aF0.0
aF0.003482668407619186
aF0.005800264040565301
aF0.0
aF0.012342374275729505
aF0.0007618651749743899
aF0.0
aF1.234256296617193e-05
aF0.0007036271444730073
atp20
a(g18
(lp21
F0.10117549699013684
aF1.659051482986773
aF0.08862476831385042
aF1.5914673562167132
aF0.04792585164973564
aF1.3292318454491967
aF0.0027627015652227412
aF0.6777425388280316
aF0.0
aF0.032504243829286246
aF0.6893638626454388
aF0.0
aF0.0062871815451959485
aF0.16953179027628343
aF0.0
aF0.021081063833997216
aF0.3702881827598574
aF0.0
aF0.00010512189042965578
aF0.002719299738795423
atp22
a.