(lp0
(VPt
p1
(lp2
F0.23290604696154998
aF5.842669857254325
aF0.2102922626729732
aF5.544821447590431
aF0.13176949028272208
aF4.398895043879811
aF0.016574778350926585
aF1.7941740693884036
aF0.003148074110124217
aF0.465418760501003
aF6.575751642454482
aF0.00022069926188768697
aF0.07882566297293336
aF2.2705053228489476
aF0.0027045525716120023
aF0.3256646729558934
aF3.886122486191983
aF3.0525796350201595e-06
aF0.0026672756361611235
aF0.4360097485340647
atp3
a(g1
(lp4
F1.013871159819311
aF6.018707001505619
aF0.9618264070244346
aF5.725922043736225
aF0.7608282064867671
aF4.599990642583208
aF0.30380158564862275
aF2.0296955557518057
aF0.24006081425672307
aF1.8137222861120552
aF6.868397092417883
aF0.018372553130346043
aF1.018603346739519
aF2.662945247344863
aF0.2010096563435139
aF0.7102598479349018
aF4.04069978622336
aF0.0005854846885241952
aF0.1581075649960068
aF0.684761334853705
atp5
a(g1
(lp6
F0.23966494764205698
aF5.816946427741347
aF0.21866678838826617
aF5.531673439090469
aF0.14356852589400734
aF4.434665631704343
aF0.021651985592812905
aF1.9071501543555562
aF0.00047416561888476014
aF0.5358767655198664
aF6.543560905536556
aF4.401093292906323e-05
aF0.09403326427581057
aF2.526907861608494
aF0.0003940791008762466
aF0.3769432202356689
aF3.7214801843741747
aF6.588117086400302e-07
aF0.0049761166678761745
aF0.5184160822079386
atp7
a(g1
(lp8
F0.6663817833068721
aF6.048521150968248
aF0.6257589746053178
aF5.760908060619317
aF0.4738876291100047
aF4.657292154988356
aF0.15738993728037068
aF2.136781844948399
aF0.07431706893985225
aF1.5291845013387957
aF6.9694429808259875
aF0.002340106643804813
aF0.6222739688043031
aF2.9425037431411614
aF0.06980494426773844
aF0.7389230979302921
aF3.967023590607743
aF6.545323151352328e-05
aF0.07861291561959002
aF0.8056467387377193
atp9
a(g1
(lp10
F0.349996671847147
aF6.131328106217442
aF0.31588661396177276
aF5.833771981668145
aF0.19678561838726114
aF4.684075927551643
aF0.022792806700342786
aF2.021829841575144
aF0.009071654810997391
aF0.6727870161719557
aF7.192093211639574
aF0.0014144142601696331
aF0.1064358877327331
aF2.684856400652766
aF0.006662130938977688
aF0.46832995067908095
aF4.297196739367877
aF3.8043322955615336e-05
aF0.0033163512026358867
aF0.6833666441849389
atp11
a(g1
(lp12
F1.0259887508178727
aF5.899737996948736
aF0.9594642403676523
aF5.597374926910202
aF0.7073694094810608
aF4.4339818760925045
aF0.19044974924299732
aF1.7981833503447053
aF0.14470412781341463
aF1.7713334608343108
aF6.580015139957205
aF0.020975496241630726
aF0.5439440198364545
aF2.2500178221900793
aF0.11667025876705758
aF1.0235084167545203
aF3.924963964062622
aF0.0022174217998467824
aF0.06921962337169223
aF0.4499592828575261
atp13
a(g1
(lp14
F0.544016075578439
aF6.047091117653277
aF0.5017703143826836
aF5.7593907116237375
aF0.3475898975587957
aF4.650197779621031
aF0.07267689705462135
aF2.077642934225861
aF0.05077802338436529
aF0.9872557827270921
aF7.103809636034051
aF0.001938267642617922
aF0.26155118399200283
aF2.849693694892872
aF0.04538043185108061
aF0.5681692160700955
aF4.027252384378583
aF9.634306940634818e-08
aF0.0187381868733524
aF0.6712322524019069
atp15
a(g1
(lp16
F1.0934240432243976
aF5.83674715009512
aF1.0529122153041974
aF5.5512515794303
aF0.8953026790965668
aF4.45486252675892
aF0.502095292820588
aF1.9513586236859197
aF0.3309479237910946
aF1.5210814310537397
aF6.494107728602771
aF0.005860832263266633
aF1.6480360278857094
aF2.5435996712271125
aF0.3158653161560596
aF0.24631032272055892
aF3.7629381003413367
aF4.115821316346078e-05
aF0.35226887491816067
aF0.613369327014306
atp17
a(VCu
p18
(lp19
F0.9482761585954634
aF4.1681925409603755
aF0.9093892536970971
aF3.938851435266989
aF0.7641316815964863
aF3.0689027893266347
aF0.4314078522394587
aF1.199582068866013
aF0.018216477988023234
aF0.21196309369485342
aF5.268965301840107
aF0.007120218799499845
aF0.7274325111892319
aF1.124281350039041
aF0.009659256100726632
aF0.05049291013846858
aF3.205867491252189
aF0.0005874253456604068
aF0.47476292525234404
aF0.029816691840019678
atp20
a(g18
(lp21
F0.9482761585954637
aF0.9980569382372715
aF0.9093892536970973
aF0.907726381440309
aF0.7641316815964864
aF0.588198666970551
aF0.4314078522394587
aF0.08785096382526944
aF0.01821647798802326
aF0.8148648247662855
aF0.4056873978416973
aF0.00712021879949984
aF0.055076036553846575
aF0.03624763352829644
aF0.009659256100726652
aF0.687094778409948
aF0.3180083007764496
aF0.0005874253456604054
aF0.00024714448520710467
aF9.346797752612721e-05
atp22
a.