(lp0
(VPt
p1
(lp2
F0.0072295361107950935
aF1.319095763776983
aF0.0061454876125168496
aF1.2668784324843765
aF0.0028911678139136618
aF1.0583238578901193
aF8.730349810780247e-05
aF0.4978519718051813
aF0.0
aF0.00017636399199548073
aF0.07881462463761116
aF0.0
aF8.579007995293267e-05
aF0.039407312318805586
aF0.0
aF5.369945258559941e-05
aF0.07881462463761116
aF0.0
aF3.006619478596277e-06
aF0.039407312318805586
atp3
a(g1
(lp4
F0.18484199339826324
aF0.10117549699013652
aF0.16849205735653103
aF0.08862476831385013
aF0.10961982717169866
aF0.04792585164973548
aF0.014905598107547912
aF0.00276270156522273
aF0.0
aF0.0
aF0.0
aF0.0
aF0.0
aF0.0
aF0.0
aF0.0
aF0.0
aF0.0
aF0.0
aF0.0
atp5
a(g1
(lp6
F0.027370635178958023
aF1.319095763776983
aF0.02367885107902812
aF1.2668784324843765
aF0.012086265514131823
aF1.0583238578901193
aF0.000532881034208375
aF0.4978519718051813
aF0.0
aF0.00014578408317636595
aF0.07881462463761117
aF0.0
aF0.00011636998877204739
aF0.039407312318805586
aF0.0
aF2.507093992617733e-05
aF0.07881462463761117
aF0.0
aF1.0178742929459539e-05
aF0.039407312318805586
atp7
a(g1
(lp8
F0.2776091034969561
aF0.8218067840106545
aF0.25037566120064236
aF0.7638760127446028
aF0.15505144016077954
aF0.5527929194783338
aF0.016784718408377
aF0.15855197121245906
aF0.0
aF0.06527307392147996
aF0.016168421809114028
aF0.0
aF0.012611537925161297
aF0.005812387989118731
aF0.0
aF0.03872038833572619
aF0.007861683208708286
aF0.0
aF7.071630120614956e-05
aF0.00030576775698532065
atp9
a(g1
(lp10
F0.0
aF1.4971985713308085
aF0.0
aF1.417412486191795
aF0.0
aF1.1086880108041892
aF0.0
aF0.3982698843443793
aF0.0
aF0.0
aF0.1258899628849719
aF0.0
aF0.0
aF0.07049329767157188
aF0.0
aF0.0
aF0.0631770520646426
aF0.0
aF0.0
aF0.015999305090857046
atp11
a(g1
(lp12
F0.0
aF0.7469808845385946
aF0.0
aF0.6832809073567975
aF0.0
aF0.4555984237672821
aF0.0
aF0.07976786875865989
aF0.0
aF0.0
aF0.09884905324413676
aF0.0
aF0.0
aF0.015964799605493695
aF0.0
aF0.0
aF0.06456596013988279
aF0.0
aF0.0
aF9.795666478142512e-05
atp13
a(g1
(lp14
F0.0
aF1.4477858583353846
aF0.0
aF1.3660051770052701
aF0.0
aF1.0545596769187329
aF0.0
aF0.3725399185264496
aF0.0
aF0.0
aF0.14523478040383467
aF0.0
aF0.0
aF0.05381809160951698
aF0.0
aF0.0
aF0.08520034789306176
aF0.0
aF0.0
aF0.012416621390215871
atp15
a(g1
(lp16
F0.5083193100320679
aF0.8218067840106542
aF0.47602864707010223
aF0.7638760127446026
aF0.3534169004783484
aF0.5527929194783335
aF0.09791318880799645
aF0.15855197121245906
aF0.0025741208075781997
aF0.04837864686546399
aF0.016168421809113973
aF0.0015565242968801699
aF0.0377672551900945
aF0.005812387989118731
aF0.0006229627111045572
aF0.011430918579514466
aF0.007861683208708243
aF8.32856094602483e-05
aF0.004296333859967673
aF0.0003057677569853211
atp17
a(VCu
p18
(lp19
F0.10117549699013684
aF0.18484199339826307
aF0.08862476831385042
aF0.16849205735653086
aF0.04792585164973564
aF0.10961982717169855
aF0.0027627015652227412
aF0.014905598107547878
aF0.0
aF0.0
aF0.0
aF0.0
aF0.0
aF0.0
aF0.0
aF0.0
aF0.0
aF0.0
aF0.0
aF0.0
atp20
a(g18
(lp21
F0.10117549699013684
aF0.820528584818777
aF0.08862476831385042
aF0.7562286469622894
aF0.04792585164973564
aF0.5234457739671734
aF0.0027627015652227412
aF0.11531809174868969
aF0.0
aF0.00659552903019507
aF0.06786089238542675
aF0.0
aF0.0016657611787216382
aF0.014416518637621223
aF0.0
aF0.003627714873421544
aF0.04058701059456975
aF0.0
aF3.1539324118321027e-05
aF0.00029012611895933254
atp22
a.