(lp0
(VPt
p1
(lp2
F0.37997672812439215
aF5.811744231126866
aF0.350616442302073
aF5.51698387853095
aF0.24303255620122544
aF4.384778978825777
aF0.04884986415679983
aF1.8092753718235375
aF0.004191119230809895
aF0.9327075880368113
aF6.430429450296233
aF0.0007492086600781305
aF0.21321697375851997
aF2.321387423238533
aF0.003052186923851767
aF0.5862070614904453
aF3.7177495396283193
aF2.4723879280247154e-05
aF0.013238535228298251
aF0.4481243380072831
atp3
a(g1
(lp4
F0.9232275747672876
aF6.115738911429278
aF0.8725113718142352
aF5.8233721847857325
aF0.6788902671300919
aF4.698007217080342
aF0.25536384093418796
aF2.108799650015687
aF0.14229243163053712
aF1.9788601287479357
aF7.005991346177973
aF0.012976591624970616
aF0.8845368891074619
aF2.9190450870679374
aF0.11711125430176972
aF0.9190537304566824
aF4.021570534744936
aF0.0006313742123163106
aF0.13128963075095765
aF0.8067699823818894
atp5
a(g1
(lp6
F0.3790762253279631
aF5.812852254606428
aF0.3522833198658133
aF5.5199695963052795
aF0.2523142653277332
aF4.392823550938962
aF0.05805388199164897
aF1.8128726709058347
aF0.0027897219545897777
aF0.9713021876712351
aF6.446888281384368
aF0.00042243619176467705
aF0.24031435937814175
aF2.3289210342562408
aF0.002134746102214145
aF0.5995577769479628
aF3.7213633686042935
aF1.2015359550235416e-05
aF0.017290335082101694
aF0.4459465317573269
atp7
a(g1
(lp8
F0.6388828005090487
aF6.060171750078255
aF0.5988979852977461
aF5.76663622760254
aF0.4491769974044582
aF4.636352950058573
aF0.14064726758023702
aF2.0390003235593337
aF0.05373616998426396
aF1.5906957566449462
aF7.006929136065071
aF0.0032353185594165726
aF0.538611347001756
aF2.7631150045538835
aF0.04714087923080644
aF0.8620226148088974
aF4.062027305773015
aF8.892483763697021e-05
aF0.06575602572267361
aF0.7060399992208409
atp9
a(g1
(lp10
F0.3555495949217777
aF6.021729683671174
aF0.3174109824989232
aF5.72324725140132
aF0.18816724866199105
aF4.574576446805304
aF0.017721693038025944
aF1.9445710110085699
aF0.00462646643397458
aF0.6320605686852109
aF6.754609314454785
aF0.000840366107324417
aF0.09290002845438843
aF2.522029721998782
aF0.0032085459226121925
aF0.44851620705298934
aF3.9663595317517375
aF2.1772097370769644e-05
aF0.001867688387073614
aF0.6125626970979535
atp11
a(g1
(lp12
F1.3355381850779027
aF5.775978122231672
aF1.2638633086351638
aF5.483171993783957
aF0.9854687594986883
aF4.355445093440519
aF0.34731780351995767
aF1.7834234236778894
aF0.21440123635937974
aF2.3263086675996094
aF6.730970520357325
aF0.03806447650765775
aF0.9459439082642471
aF2.293851365092968
aF0.1727080911128017
aF1.1744950840303612
aF3.9701698512839276
aF0.010862566049610277
aF0.1680920460274845
aF0.39640049727298304
atp13
a(g1
(lp14
F0.5194542783160394
aF5.951072282133959
aF0.4755158335884948
aF5.653257440949949
aF0.3164246139931044
aF4.508675783449672
aF0.04994818787370185
aF1.8989517976525516
aF0.01900369453925583
aF0.9265068481848353
aF6.680213168211569
aF0.0010068448180086613
aF0.2016404070434973
aF2.458031921721898
aF0.016278904842152563
aF0.5748630109310378
aF3.8737886634996577
aF1.318931093178902e-07
aF0.007633711383248105
aF0.5374363955145093
atp15
a(g1
(lp16
F1.0325583678959043
aF6.106355109569835
aF0.9957067722589906
aF5.815395970272094
aF0.8537771905126936
aF4.693457487962319
aF0.5051677249601829
aF2.1033045191293294
aF0.23324737474327747
aF1.7610404011582017
aF6.949539507081072
aF0.002052577795052384
aF1.8714001829247051
aF2.943753812512492
aF0.2290114216664616
aF0.2794774549235556
aF3.9277308802579265
aF4.2713653469044985e-05
aF0.3303101459162896
aF0.7661723217676618
atp17
a(VCu
p18
(lp19
F0.8046788726886586
aF4.71761119210851
aF0.7701666856616235
aF4.462058628397343
aF0.6396929656838775
aF3.488665133483653
aF0.327370039938945
aF1.365411632016802
aF0.00487854797090509
aF0.20813275072283777
aF6.258195260680335
aF0.0018656537516573608
aF0.5748938679007985
aF1.4902263312468629
aF0.0024890802455563086
aF0.07238572701293781
aF3.6758914948937567
aF0.00011550899682581531
aF0.37063480374589153
aF0.06080468235088206
atp20
a(g18
(lp21
F0.8046788726886588
aF0.8466525628318056
aF0.7701666856616237
aF0.7647473878640971
aF0.6396929656838776
aF0.47858676524633315
aF0.327370039938945
aF0.0576586320379399
aF0.004878547970905095
aF0.6446019150201557
aF0.28057758792340687
aF0.0018656537516573619
aF0.039643536636930925
aF0.02502394148014711
aF0.0024890802455563125
aF0.5477983790974559
aF0.22065516499653454
aF0.00011550899682581549
aF6.999417314417805e-05
aF8.856454386017928e-05
atp22
a.