(lp0
(VPt
p1
(lp2
F1.5204839924806606
aF4.890423973732743
aF1.4481351304476813
aF4.649541848143726
aF1.1658484996852885
aF3.7330156371210954
aF0.494683838555783
aF1.6891994057016737
aF0.3567319684294876
aF1.6264254975710717
aF4.8855446226481885
aF0.13987762864890885
aF1.37486969739393
aF1.7003047088028815
aF0.1506257756284137
aF0.7031648190280848
aF2.7372037518696235
aF0.006186259209970885
aF0.5763346281658548
aF0.20170431976300124
atp3
a(g1
(lp4
F0.2543712483314524
aF5.027859180500072
aF0.22596704316073818
aF4.7781641120758875
aF0.1309828966742952
aF3.812694185082375
aF0.011335300357724216
aF1.6095743492235723
aF0.0015144750297651198
aF0.303088799077032
aF4.9347172384692515
aF0.0002782599380604859
aF0.06546699841612427
aF1.689990111646366
aF0.0009480404273314821
aF0.193990766613777
aF2.8146118943584675
aF2.735068588717088e-06
aF0.0028757676679305997
aF0.23863687618612325
atp5
a(g1
(lp6
F1.492222748281164
aF4.9811663080928374
aF1.427181074812656
aF4.732686754223155
aF1.1676942586160504
aF3.7795295886407816
aF0.5026196859048592
aF1.6331275852549405
aF0.3666852238590235
aF1.7004715760527578
aF5.004930216623866
aF0.15909908214132462
aF1.3284956382067383
aF1.619895474082357
aF0.12886140472516477
aF0.7116473391938899
aF2.9160250769457665
aF0.005714351582644914
aF0.4407078513982978
aF0.2010017230079662
atp7
a(g1
(lp8
F0.398569750722612
aF3.9820722894029354
aF0.3706712095858625
aF3.7234875150572204
aF0.266813001863747
aF2.75618770923773
aF0.06388168994619384
aF0.8073788672106136
aF0.007789614074817504
aF0.3761947834609486
aF2.4776259607684117
aF0.0008046558819431575
aF0.1452990761167072
aF0.5395712803840182
aF0.006014344031038077
aF0.18730044312182415
aF1.615583824700179
aF8.385736671367669e-06
aF0.011756625806459834
aF0.03472949507638354
atp9
a(g1
(lp10
F0.793663092181637
aF5.6263697792750795
aF0.7295280425564233
aF5.377293632417949
aF0.4960112347784157
aF4.413092143842181
aF0.09217824546247587
aF2.135633158281939
aF0.08417697649764472
aF1.42265474111514
aF5.427564109597955
aF0.015412804633070449
aF0.32332473627943825
aF2.950764456434876
aF0.0516284284189173
aF0.9455748460849093
aF2.6868105369669157
aF9.450368749888775e-05
aF0.033610840108956486
aF0.8110934427659684
atp11
a(g1
(lp12
F0.3018081920112896
aF3.126784155218442
aF0.2763950692587706
aF2.905818618725779
aF0.18501908594709757
aF2.0847072175523205
aF0.031514998542406594
aF0.5071949077046168
aF0.003615398714912955
aF0.399201420127869
aF1.7182327861460427
aF0.0005963603961543667
aF0.09172440365595806
aF0.28842968387846085
aF0.0023773336500996513
aF0.23227343558521021
aF1.1901537631312098
aF6.065600629810262e-06
aF0.0019266515395957894
aF0.012703366727737813
atp13
a(g1
(lp14
F0.7867499507633331
aF5.564686526017358
aF0.7192378872922521
aF5.32600121491105
aF0.47701490004108615
aF4.3960091477695045
aF0.07921914117643569
aF2.1265427745297742
aF0.07780487915157024
aF1.3027482194719653
aF5.348052188696843
aF0.013004398861637132
aF0.3020941307733393
aF2.975784687885867
aF0.04925176802742682
aF0.8410718353848842
aF2.618499533189034
aF5.6329854891999065e-05
aF0.025712410185040252
aF0.7836324837700896
atp15
a(g1
(lp16
F1.4747778425142
aF2.327471509133443
aF1.3891566649708318
aF2.1367332374271033
aF1.0549565473233944
aF1.4492675379164566
aF0.3053520767588502
aF0.2815240237782829
aF0.2552960167418255
aF0.7086127943834184
aF1.4541124099836684
aF0.08791105197319814
aF0.18177962880128232
aF0.16586665056544206
aF0.11389072121027677
aF0.4232775966515027
aF1.0788282266440505
aF0.0035980624385656326
aF0.011203848416853155
aF0.000975490816325952
atp17
a(VCu
p18
(lp19
F0.9739552736511632
aF2.7563126044851276
aF0.9177216554093084
aF2.589696035792491
aF0.701897663073709
aF1.9577738989376192
aF0.22496790902846542
aF0.6314772430616948
aF0.04297265473172634
aF1.171816757430276
aF1.9121797497286346
aF0.016634617013508775
aF0.37313358981692185
aF0.3512099786052757
aF0.02598866457478335
aF0.5853285764559717
aF1.3130498783963136
aF0.0030910958030650176
aF0.01596929196175686
aF0.01915108163844709
atp20
a(g18
(lp21
F0.9739552736511631
aF4.266334212801221
aF0.9177216554093082
aF3.996576086292725
aF0.701897663073709
aF2.9865665259917553
aF0.22496790902846542
aF0.9493077336430337
aF0.042972654731726276
aF1.1664031979780656
aF2.878852060467427
aF0.016634617013508768
aF0.42984404472142534
aF0.6839842816505264
aF0.025988664574783306
aF0.5452667058719763
aF1.8577552003034805
aF0.0030910958030650176
aF0.02929877519629215
aF0.05981918328761325
atp22
a.