(lp0
(VPt
p1
(lp2
F0.39663814695508637
aF5.714121041281365
aF0.3668364871616093
aF5.428372342278888
aF0.2567037255177079
aF4.325815978852419
aF0.05329718388301945
aF1.7686603927001654
aF0.001770164412131402
aF0.6913254547107015
aF5.987384405306122
aF0.0008914075010382107
aF0.18285532742882155
aF2.099347665244797
aF0.0005364605789576528
aF0.4500219519198375
aF3.5615446920559077
aF3.504354049373118e-05
aF0.01598650384061776
aF0.4353988608239766
atp3
a(g1
(lp4
F0.38794025685252775
aF5.985398841858236
aF0.3645066854122364
aF5.722142104312429
aF0.27365569169812104
aF4.7077863463828935
aF0.07421388660201067
aF2.331030304384227
aF0.000307383682770176
aF0.7360573920949138
aF6.696125694900203
aF0.0001086777202947772
aF0.28255731314786925
aF3.370301830011423
aF0.00013071124069028768
aF0.4914565183360081
aF3.481081420562593
aF2.3054178738008336e-06
aF0.06756938676224314
aF0.9481295985504858
atp5
a(g1
(lp6
F0.41478761779170625
aF5.68906993011812
aF0.3857953479653294
aF5.382990976079641
aF0.27797399776589293
aF4.2121716828243185
aF0.06744815572804064
aF1.601087621759842
aF0.00880442658516856
aF0.7057599901170175
aF5.720369933556974
aF0.0007787917549858344
aF0.19610143841416053
aF1.7728332165983876
aF0.007233751056309413
aF0.46255736606694203
aF3.4649283934923427
aF1.3757804683517892e-05
aF0.020702876280287028
aF0.3042116810054144
atp7
a(g1
(lp8
F0.11397466441210258
aF5.942390006997978
aF0.101101752719939
aF5.658561873124903
aF0.05809300789569839
aF4.558462903599029
aF0.004602762538181636
aF1.9844934616548167
aF0.0
aF0.16127271697385526
aF7.166347761908364
aF0.0
aF0.028917274889854433
aF2.4185325232898083
aF0.0
aF0.10934265752377283
aF4.436260326921631
aF0.0
aF0.0007160759468138867
aF0.6258740825217205
atp9
a(g1
(lp10
F0.06912169124106929
aF5.723731328680577
aF0.06066362585562421
aF5.46265447209282
aF0.03314404976644044
aF4.461362902353629
aF0.002049314859362438
aF2.1492649761854477
aF3.477130785454309e-05
aF0.10949147445420421
aF6.79966936695158
aF1.0125303687000145e-05
aF0.014658419470751742
aF2.8331257340176874
aF1.6152636121788396e-05
aF0.08087610790825002
aF3.8085328621818264
aF1.1614259796025398e-07
aF0.00018991633988373917
aF0.6465299003837482
atp11
a(g1
(lp12
F0.4271065533595213
aF5.772512289613745
aF0.39183744975689383
aF5.471693905949495
aF0.2627546230299245
aF4.3193030818824765
aF0.041475570227612515
aF1.7281398623698656
aF0.0030267812817584487
aF0.7534714127458813
aF6.181716072231807
aF0.0018585894748530964
aF0.16954096451663955
aF1.9509506218817445
aF0.0007198327021482507
aF0.49500945094047066
aF3.7616027727169277
aF0.0001023390328537482
aF0.009688741205453856
aF0.37368714663227126
atp13
a(g1
(lp14
F0.26471460629021115
aF5.954172290735874
aF0.23839815382092766
aF5.689295196724407
aF0.14665647242677027
aF4.674138493879656
aF0.015435223443444942
aF2.3409089199608464
aF0.0
aF0.35974357291149056
aF6.803642919083067
aF0.0
aF0.07028490117244221
aF3.404698861592083
aF0.0
aF0.242192718541611
aF3.527085864556736
aF0.0
aF0.003725821350481464
aF0.8588050072654403
atp15
a(g1
(lp16
F1.207110984577053
aF4.418058581915396
aF1.1694687343544274
aF4.165795358281201
aF1.0281934454879618
aF3.208035194770796
aF0.7094440165861343
aF1.1511704425922615
aF0.27720536932633866
aF0.39461082430948247
aF4.436625144823786
aF0.005486868220213777
aF1.4221523642263714
aF1.1331299844187173
aF0.2659438029834479
aF0.022716901784529515
aF2.7863052905197745
aF0.00015940816131043792
aF0.7324530841830909
aF0.09054112072511539
atp17
a(VCu
p18
(lp19
F0.7669524759916664
aF2.9988733099360663
aF0.7256309664982253
aF2.819336690952118
aF0.5713190641750473
aF2.162149493929851
aF0.23527955556779936
aF0.9376461961350517
aF0.010370605883545107
aF0.033138019676735554
aF2.7714705166351896
aF0.0038227424050359684
aF0.28260123142756316
aF0.36173664224889035
aF0.0050863306719800975
aF0.014735644672750334
aF1.9868627373835404
aF0.00018595274078068527
aF0.25563391080346426
aF0.003109617149674921
atp20
a(g18
(lp21
F0.7669524759916663
aF0.28252121154321114
aF0.7256309664982252
aF0.2592715460948693
aF0.5713190641750473
aF0.17502551965866667
aF0.23527955556779936
aF0.03031991773275492
aF0.010370605883545105
aF0.28293163156467294
aF0.0058264516995226645
aF0.0038227424050359697
aF0.00189583047321729
aF0.0003668102086266038
aF0.005086330671980096
aF0.27850218717768693
aF0.004904952794168536
aF0.0001859527407806855
aF2.5673753249029234e-05
aF1.273086017869263e-06
atp22
a.