(lp0
(VPt
p1
(lp2
F0.2627970971685114
aF5.7246437881064
aF0.23788594230958118
aF5.4327972439023595
aF0.15068973918700682
aF4.314219714709838
aF0.01976286068461958
aF1.7861249275011528
aF0.002032741518721217
aF0.5320711822687485
aF6.169624521247225
aF0.00037094558842747636
aF0.08533770543038909
aF2.2271951596772896
aF0.00140188394532124
aF0.3896820524492796
aF3.629314639273162
aF8.246836486969137e-06
aF0.003575744697790638
aF0.4665541686097535
atp3
a(g1
(lp4
F1.121134281027809
aF5.999977724608363
aF1.0645363085488104
aF5.719330450083376
aF0.8430862879951823
aF4.641845788884186
aF0.3247444520793482
aF2.1693789386201066
aF0.2718912052885004
aF1.944848390996795
aF6.836135240259538
aF0.043403491488541834
aF1.1644411113221886
aF3.0046873208627556
aF0.18282528287646116
aF0.8900633079827426
aF3.8466586876717206
aF0.0010506178176944289
aF0.2850512824591834
aF0.8326460963252266
atp5
a(g1
(lp6
F0.28247777553814907
aF5.721776225268531
aF0.2598670449384594
aF5.42639180924178
aF0.17727185786763774
aF4.291279506983351
aF0.03181105841239407
aF1.7135315161821172
aF0.0001098096381458847
aF0.6451056060299124
aF6.14046189732823
aF3.77105603613854e-05
aF0.11520113836699901
aF2.096644838271391
aF4.529052733442533e-05
aF0.4641609893421925
aF3.619547108852671
aF6.299375240751431e-07
aF0.006830730834774582
aF0.4022291172738641
atp7
a(g1
(lp8
F0.7416089530200631
aF6.1441272899152475
aF0.6968172430170465
aF5.848308530106772
aF0.5299118277719137
aF4.7078562028103095
aF0.18370871371433403
aF2.0850759182381218
aF0.09867708779461211
aF1.6389163562230848
aF7.215619942403533
aF0.006759507300505104
aF0.7156468776726785
aF2.80312570878058
aF0.08309466436627914
aF0.8047437900805716
aF4.357005634533863
aF6.493215911505142e-05
aF0.10545839922905546
aF0.7862883752043363
atp9
a(g1
(lp10
F0.48493082189099385
aF6.103967414591767
aF0.44053945152033536
aF5.812908657602935
aF0.28267192012780384
aF4.693969495521232
aF0.037293408873936035
aF2.1303099634000415
aF0.031198523468990217
aF0.9676930246922871
aF7.151950398795501
aF0.004690364065927758
aF0.17397747528083293
aF2.8925930229257135
aF0.022251162078731703
aF0.6601583344847956
aF4.266780504706298
aF9.329213216588135e-05
aF0.007871640545398517
aF0.83842091852257
atp11
a(g1
(lp12
F0.9175942056871647
aF5.927930020587985
aF0.858346370309424
aF5.623800529027962
aF0.6335677498714474
aF4.454821866499903
aF0.17060951261000348
aF1.8014658376771293
aF0.08904134525086327
aF1.908867788589075
aF6.268425632669436
aF0.018588572732255653
aF0.5549126815082178
aF2.24223293359285
aF0.0629825753949168
aF1.1706607488467484
aF3.6988899824966275
aF0.0015938782315715596
aF0.0670006857973615
aF0.4863884450771323
atp13
a(g1
(lp14
F0.6137445395788189
aF6.045848165050925
aF0.5655207560352208
aF5.764100946504308
aF0.3892791339479375
aF4.680716742291259
aF0.07675463154506448
aF2.188532869430529
aF0.07919855881189959
aF1.109799341809788
aF6.958888760066113
aF0.00669559651659696
aF0.2869523910473173
aF3.068448584615218
aF0.06218218542485039
aF0.6560567443870293
aF3.895902047402737
aF5.747162144149681e-06
aF0.019958611715927183
aF0.8351134141119831
atp15
a(g1
(lp16
F1.2896248828559922
aF5.273932213211319
aF1.2463906543563703
aF4.988684204305054
aF1.0812964779119971
aF3.8995989981788166
aF0.6894640638901605
aF1.4830248225783043
aF0.4049036819703758
aF1.5576762813338014
aF5.6354419150761945
aF0.023447020724310937
aF1.7037469201301725
aF1.7227503565172306
aF0.34627751969717446
aF0.3417611678402714
aF3.396993149869783
aF0.0001654224412682202
aF0.5569776180297702
aF0.23583061716880682
atp17
a(VCu
p18
(lp19
F0.9399355968578968
aF4.418546877543598
aF0.8942418637018789
aF4.1824230356212
aF0.7222431160948435
aF3.2883689452046387
aF0.33882159662739303
aF1.3879598882889457
aF0.026045582542646425
aF0.3847313185574365
aF5.466706663712533
aF0.010031557762050837
aF0.7351659066422056
aF1.365244430153721
aF0.014241489550381476
aF0.08088526120554139
aF3.2703705362634
aF0.0010832417310075945
aF0.3444322169651491
aF0.05628809810999577
atp20
a(g18
(lp21
F0.939935596857897
aF1.2953656792239048
aF0.894241863701879
aF1.187480735414048
aF0.7222431160948435
aF0.799406049476287
aF0.33882159662739303
aF0.14618881352091478
aF0.026045582542646453
aF0.9373716783314378
aF0.6516556172823778
aF0.010031557762050839
aF0.10482342190699158
aF0.06899042520251282
aF0.014241489550381504
aF0.7181323898191192
aF0.4922397282219889
aF0.0010832417310075945
aF0.0009970171294284087
aF0.0002867420658361729
atp22
a.