(lp0
(VPt
p1
(lp2
F0.0006812607269090183
aF1.319095763776983
aF0.0005713560501379156
aF1.2668784324843765
aF0.0002524987114668898
aF1.0583238578901193
aF5.703356614449814e-06
aF0.4978519718051813
aF0.0
aF1.633806080681382e-05
aF0.07881462463761116
aF0.0
aF6.796862000724512e-06
aF0.039407312318805586
aF0.0
aF5.754371124835882e-06
aF0.07881462463761116
aF0.0
aF1.7235728531058532e-07
aF0.039407312318805586
atp3
a(g1
(lp4
F0.23645616608895298
aF0.10117549699013652
aF0.21775543360988645
aF0.08862476831385013
aF0.1485543338796827
aF0.04792585164973548
aF0.025176374948848036
aF0.00276270156522273
aF0.0
aF0.0
aF0.0
aF0.0
aF0.0
aF0.0
aF0.0
aF0.0
aF0.0
aF0.0
aF0.0
aF0.0
atp5
a(g1
(lp6
F0.0255398354104985
aF1.319095763776983
aF0.022068471948452493
aF1.2668784324843765
aF0.011201670711659277
aF1.0583238578901193
aF0.0004812644773141743
aF0.4978519718051813
aF0.0
aF1.1839243422021472e-05
aF0.07881462463761117
aF0.0
aF1.1295679385516865e-05
aF0.039407312318805586
aF0.0
aF1.5866883600094716e-06
aF0.07881462463761117
aF0.0
aF1.3147563090174301e-06
aF0.039407312318805586
atp7
a(g1
(lp8
F0.28184561468680314
aF0.8680162376213312
aF0.25489008436686933
aF0.8116171786793637
aF0.16006346045495384
aF0.6041010297934374
aF0.018971819228596316
aF0.19669457199201723
aF0.0
aF0.05101918107195055
aF0.02195678402523595
aF0.0
aF0.007565210639078452
aF0.00804945507731993
aF0.0
aF0.03388961241047061
aF0.011178518623809
aF0.0
aF2.8712561917835557e-05
aF0.000588946757109639
atp9
a(g1
(lp10
F0.0
aF1.4840587266512875
aF0.0
aF1.4054261192492326
aF0.0
aF1.1014434368891368
aF0.0
aF0.403009870469728
aF0.0
aF0.0
aF0.12072509209871585
aF0.0
aF0.0
aF0.06769813086632455
aF0.0
aF0.0
aF0.0619960559067326
aF0.0
aF0.0
aF0.016088228475336648
atp11
a(g1
(lp12
F0.0
aF0.7224450768099325
aF0.0
aF0.6595596322890094
aF0.0
aF0.43559875636325185
aF0.0
aF0.07242633607033927
aF0.0
aF0.0
aF0.09199568112392914
aF0.0
aF0.0
aF0.014538740166214833
aF0.0
aF0.0
aF0.06070868867480262
aF0.0
aF0.0
aF8.867821354084937e-05
atp13
a(g1
(lp14
F0.0
aF1.4482501242055856
aF0.0
aF1.3668624598744354
aF0.0
aF1.0573333987900853
aF0.0
aF0.3810175690086441
aF0.0
aF0.0
aF0.1394929742872943
aF0.0
aF0.0
aF0.05217005170855409
aF0.0
aF0.0
aF0.08262176075482493
aF0.0
aF0.0
aF0.012693422698830779
atp15
a(g1
(lp16
F0.45574730101465954
aF0.868016237621331
aF0.4297210399379683
aF0.8116171786793636
aF0.32879259895606056
aF0.6041010297934373
aF0.10054758363915296
aF0.19669457199201726
aF0.0008962248662388111
aF0.02880431659729252
aF0.021956784025235876
aF0.00040899077328764423
aF0.03239050639278983
aF0.008049455077319936
aF0.0002901490486245894
aF0.005862360919646083
aF0.011178518623808933
aF1.2583667525477817e-05
aF0.006731611283339862
aF0.00058894675710964
atp17
a(VCu
p18
(lp19
F0.10117549699013684
aF0.23645616608895298
aF0.08862476831385042
aF0.21775543360988645
aF0.04792585164973564
aF0.1485543338796827
aF0.0027627015652227412
aF0.025176374948848036
aF0.0
aF0.0
aF0.0
aF0.0
aF0.0
aF0.0
aF0.0
aF0.0
aF0.0
aF0.0
aF0.0
aF0.0
atp20
a(g18
(lp21
F0.10117549699013684
aF0.7638140118388703
aF0.08862476831385042
aF0.7072509523034282
aF0.04792585164973564
aF0.5003102288341408
aF0.0027627015652227412
aF0.12000637070167794
aF0.0
aF0.001992486964961923
aF0.05070129907347592
aF0.0
aF0.0006179443140909829
aF0.009211443199887152
aF0.0
aF0.00106744411340972
aF0.034317143640878386
aF0.0
aF2.656923976069399e-05
aF0.00037399253574854396
atp22
a.