(lp0
(VPt
p1
(lp2
F0.09699248807566825
aF1.327387757316331
aF0.08545335064820077
aF1.273936586967644
aF0.04755192005428632
aF1.0616652652253924
aF0.003231000291977305
aF0.49795584870152165
aF0.0001203997735922266
aF0.012914878885077703
aF0.07887873457025842
aF3.8267838215461896e-05
aF0.005064880207339918
aF0.03944695946773211
aF5.2606308325159306e-05
aF0.004857585068877471
aF0.07882974798887957
aF5.368721330065022e-07
aF0.00012236635308480591
aF0.039409524367106284
atp3
a(g1
(lp4
F0.5778607623975598
aF0.1859950747693202
aF0.5417103761795066
aF0.16392298433434005
aF0.40366417703112695
aF0.0912531430872271
aF0.11317867947340517
aF0.006094454459066586
aF0.0
aF0.0
aF0.0
aF0.0
aF0.0
aF0.0
aF0.0
aF0.0
aF0.0
aF0.0
aF0.0
aF0.0
atp5
a(g1
(lp6
F0.13908025258786347
aF1.3285091142450405
aF0.12543628834527043
aF1.2749017407638292
aF0.07767545168042508
aF1.0621456772383315
aF0.00839820048331518
aF0.4979742338884029
aF0.0
aF0.009900184149782994
aF0.07887783762972872
aF0.0
aF0.008133555376120243
aF0.03944785640826182
aF0.0
aF0.0018090947680392078
aF0.07882891924223849
aF0.0
aF0.000843156768410127
aF0.039409731436303545
atp7
a(g1
(lp8
F0.5411037613500341
aF0.8809739635657721
aF0.491321327355972
aF0.8180477792220419
aF0.3150903655716516
aF0.5866580118499317
aF0.042872474944533716
aF0.14690937643405802
aF0.0020919304191128244
aF0.22295557961689552
aF0.030329850050658354
aF0.0009484323305593118
aF0.014130128887534217
aF0.011062613984039146
aF0.0006837743422994835
aF0.19184625546212206
aF0.01607458715766392
aF2.9255789704502922e-05
aF0.00030853185287380274
aF0.001085687749881679
atp9
a(g1
(lp10
F0.0
aF0.9191650281569057
aF0.0
aF0.8618457279284575
aF0.0
aF0.6509108820872918
aF0.0
aF0.2318938249928913
aF0.0
aF0.0
aF0.0409993148493157
aF0.0
aF0.0
aF0.013984655458221138
aF0.0
aF0.0
aF0.019731059372407447
aF0.0
aF0.0
aF0.0006773317529891822
atp11
a(g1
(lp12
F0.0
aF0.6315852316691251
aF0.0
aF0.5663035340230802
aF0.0
aF0.34294416385538823
aF0.0
aF0.03692823025900875
aF0.0
aF0.0
aF0.029269553434035884
aF0.0
aF0.0
aF0.004682321397768149
aF0.0
aF0.0
aF0.019729979263573803
aF0.0
aF0.0
aF5.770248438613632e-05
atp13
a(g1
(lp14
F0.0
aF1.1986025420526163
aF0.0
aF1.1168128576957117
aF0.0
aF0.8180131597558757
aF0.0
aF0.2563059326444464
aF0.0
aF0.0
aF0.04151222955703774
aF0.0
aF0.0
aF0.02189674140552895
aF0.0
aF0.0
aF0.016154739370738636
aF0.0
aF0.0
aF0.0019363648045123373
atp15
a(g1
(lp16
F0.8734333861142102
aF0.8632686195583664
aF0.8535406066820672
aF0.8029663164593215
aF0.7745375765282031
aF0.5794947851664467
aF0.5416414590133649
aF0.14668323745449618
aF0.0032658775766349415
aF0.0978772278762838
aF0.030231445786634455
aF0.0024272356489422452
aF0.14388440600332264
aF0.011057261166489312
aF0.0006466927546343597
aF0.01787350841367417
aF0.015990640689826405
aF0.0001989020743209028
aF0.04004158429414116
aF0.0010856870148999924
atp17
a(VCu
p18
(lp19
F0.10117549699013684
aF0.5778607623975595
aF0.08862476831385042
aF0.5417103761795062
aF0.04792585164973564
aF0.4036641770311268
aF0.0027627015652227412
aF0.11317867947340512
aF0.0
aF0.0
aF0.0
aF0.0
aF0.0
aF0.0
aF0.0
aF0.0
aF0.0
aF0.0
aF0.0
aF0.0
atp20
a(g18
(lp21
F0.10117549699013646
aF1.6506098881277764
aF0.08862476831385008
aF1.5557515730315108
aF0.04792585164973544
aF1.2148553138345666
aF0.0027627015652227243
aF0.5961431347331914
aF0.0
aF0.013866415206810506
aF0.20761419741808548
aF0.0
aF0.003917871967303392
aF0.04981622308309302
aF0.0
aF0.00819572025635154
aF0.11854664194026267
aF0.0
aF0.00020248659355579779
aF0.0029757160114711402
atp22
a.