(lp0
(VPt
p1
(lp2
F0.3824114630031886
aF5.694649155779001
aF0.35426607917013675
aF5.408858427706346
aF0.24988548993703882
aF4.306236098547184
aF0.053691725074464146
aF1.7508000528614729
aF0.0013563826961410833
aF0.6634499085815954
aF5.996208723360913
aF0.0006575547261469109
aF0.1835060461221801
aF2.049788815982888
aF0.00041437261595980387
aF0.424143474997547
aF3.611267133168033
aF2.288704369115958e-05
aF0.016494230424120154
aF0.41711663506995555
atp3
a(g1
(lp4
F0.3681770964644701
aF6.016463103845119
aF0.34565053496251047
aF5.755505043707114
aF0.25818525684731153
aF4.75120563786856
aF0.06750273610516268
aF2.4061674681413816
aF0.00012392499091460363
aF0.708669415001317
aF6.82941899567605
aF4.4144548806368686e-05
aF0.2783012477537993
aF3.5444604413899254
aF4.967850876478299e-05
aF0.4636184428755276
aF3.5088521627172344
aF7.99910315135631e-07
aF0.06346866524764357
aF1.0124852685518217
atp5
a(g1
(lp6
F0.3876942610927985
aF5.666330529207748
aF0.3598579140118954
aF5.3580773840806835
aF0.2564048865817618
aF4.180115075954853
aF0.05809784721683054
aF1.5670148838857285
aF0.0029668682214456714
aF0.6608454643035921
aF5.677167927495787
aF0.0006084155685378895
aF0.16836736754027304
aF1.7058997769979292
aF0.001966757878676574
aF0.44287295506824065
aF3.4691900847410855
aF1.6714718385298883e-05
aF0.016295253314265484
aF0.2808145771477122
atp7
a(g1
(lp8
F0.1192922374686101
aF6.023081738698796
aF0.10602487858785221
aF5.737654575744671
aF0.06147997362047051
aF4.629143561202862
aF0.005084874166692358
aF2.0193825725631447
aF0.0
aF0.17246342549094543
aF7.43211422044126
aF0.0
aF0.03158520213660032
aF2.4626036651962404
aF0.0
aF0.11607847130091598
aF4.647155653858724
aF0.0
aF0.0007473771977077376
aF0.6417370987017915
atp9
a(g1
(lp10
F0.07289880756158885
aF5.74641308596098
aF0.06424472370268416
aF5.4884156418614705
aF0.03577009916174068
aF4.499228671875557
aF0.0023963537051836657
aF2.213112627535683
aF1.9251348732127613e-05
aF0.12201758257126712
aF6.971260748939581
aF5.507534254728435e-06
aF0.016965209359164804
aF2.943164869875366
aF9.050060923769525e-06
aF0.08862274311846485
aF3.861010473478041
aF6.062275737008643e-08
aF0.00021449216919667397
aF0.6563182727665589
atp11
a(g1
(lp12
F0.4399981176497812
aF5.805798123893065
aF0.4046855955349811
aF5.507654554387453
aF0.27482441104788136
aF4.363617560147972
aF0.046854305938740064
aF1.7745237587944458
aF0.003062385605221727
aF0.7762913196348117
aF6.3341461717485315
aF0.001899958661391682
aF0.1890464309801851
aF2.0130053123044944
aF0.000719745282889067
aF0.4992710918609623
aF3.869075918811823
aF0.0001066389685584533
aF0.011435618528563644
aF0.3965317028824318
atp13
a(g1
(lp14
F0.2654991366539427
aF5.971711100490221
aF0.23922724951802327
aF5.710226697068775
aF0.14755380198515267
aF4.707327557047621
aF0.015802434207814083
aF2.392444385640642
aF0.0
aF0.36038141860059475
aF6.951207939680446
aF0.0
aF0.07471337843787355
aF3.509308566326936
aF0.0
aF0.2385820111519362
aF3.573230343579437
aF0.0
aF0.004241085735298176
aF0.8811926994040217
atp15
a(g1
(lp16
F1.160660389656569
aF4.411414168571985
aF1.1253811291265152
aF4.157551240539908
aF0.9937239222855018
aF3.1935965894625635
aF0.6988645546437164
aF1.1248086603341851
aF0.21232918260855488
aF0.39254275252653326
aF4.453179524265009
aF0.006971402626052501
aF1.3842109410467043
aF1.10406033404101
aF0.19646275517656106
aF0.022298250630670292
aF2.820700402245119
aF0.00012721026661329703
aF0.696393476952812
aF0.0847845532247898
atp17
a(VCu
p18
(lp19
F0.7201255633249681
aF2.9707313585317117
aF0.6768675685346861
aF2.7926791094509604
aF0.5163020573315424
aF2.140750197551079
aF0.1833840362982297
aF0.9272549424835871
aF0.010580645065506118
aF0.03399526847217025
aF2.7332725428678666
aF0.003834778270311182
aF0.21090738451948762
aF0.3569505732870521
aF0.005101567387122704
aF0.014168993610396918
aF1.9536900744192383
aF0.00017178936863562747
aF0.1782746030452315
aF0.002874533494801217
atp20
a(g18
(lp21
F0.7201255633249682
aF0.22590015101923705
aF0.6768675685346862
aF0.20665899516363753
aF0.5163020573315426
aF0.1370776439157798
aF0.1833840362982297
aF0.021039888575016933
aF0.010580645065506133
aF0.21351171175368838
aF0.0013707134575540341
aF0.003834778270311183
aF0.0016755935270541884
aF8.472543124609364e-05
aF0.005101567387122715
aF0.20947420837357342
aF0.0011619642315040797
aF0.00017178936863562752
aF2.1464867031701938e-05
aF3.5655569063978023e-07
atp22
a.