(lp0
(VPt
p1
(lp2
F1.3856555344450436
aF4.549489769547432
aF1.3239240046619112
aF4.307869284551213
aF1.0842755532702208
aF3.3798227991105585
aF0.5141811879376393
aF1.3202718789665797
aF0.009410237109749659
aF2.433732707937463
aF3.782704902431538
aF0.029384833147642533
aF1.1626789598305103
aF1.1599844900213847
aF0.0010721695896600582
aF1.2620474432198439
aF2.252741439192326
aF0.019555165209393575
aF0.19758747564602067
aF0.17409345522131162
atp3
a(g1
(lp4
F0.490633729049484
aF3.32455879363295
aF0.43888508319975655
aF3.1433093101897542
aF0.2619599216627801
aF2.457102891625748
aF0.02448333727826951
aF0.9791987638482906
aF0.0022881084251977642
aF0.5167220970709052
aF2.406829283391297
aF0.0009892972793267485
aF0.10124244187218169
aF0.6812222598858699
aF0.0007796107436614096
aF0.3258525089654236
aF1.41336003585235
aF2.739533382845955e-05
aF0.002531823439024005
aF0.04332210815982339
atp5
a(g1
(lp6
F1.399382024507207
aF4.443996731042483
aF1.331773346725597
aF4.234342585439349
aF1.0691088096715735
aF3.422823097091167
aF0.4562933430500336
aF1.4931839934113045
aF0.013512878226237326
aF2.600370859287816
aF3.527448343715184
aF0.023956486670933093
aF1.0837950770481004
aF1.5772028352743843
aF0.0015042099944165533
aF1.3451998197376365
aF1.8467744530740524
aF0.010076134790664423
aF0.17780023547093166
aF0.2840233780790139
atp7
a(g1
(lp8
F1.0775783687963427
aF3.6971062234329555
aF1.0234133492252049
aF3.43073594291618
aF0.8207266587208425
aF2.4526119854769095
aF0.38369652054883113
aF0.6439791138762159
aF0.003498818703140748
aF0.9116591182265863
aF2.481751315545848
aF0.0016731439698634723
aF0.375538185385431
aF0.46879708008750326
aF0.0010883951980503268
aF0.5653605092658318
aF1.6477610033610994
aF5.780644672984351e-05
aF0.11206206020042649
aF0.013404112965191136
atp9
a(g1
(lp10
F1.1325619307518686
aF5.243473183209812
aF1.0596326373781004
aF5.009651371450622
aF0.7841290877794402
aF4.099288283865994
aF0.21889182075217814
aF1.9204878621133135
aF0.009525972353898161
aF2.1641852637474024
aF4.261541225430824
aF0.011897641784747878
aF0.7512416707960495
aF2.4714304177990267
aF0.0011903256725013054
aF1.1659693054336633
aF1.9169424258056194
aF0.0024959698490634205
aF0.09554530106117426
aF0.6818942864959321
atp11
a(g1
(lp12
F0.8466961979406398
aF2.16777964694967
aF0.8029653089693156
aF2.0127608590289783
aF0.6283986084456505
aF1.4467989241957837
aF0.20567005552699064
aF0.39933831412141535
aF0.007330139432356281
aF0.5751512028992234
aF1.1501844245129618
aF0.011396941650425558
aF0.23301085612335634
aF0.15942912361492936
aF0.0004395807549249388
aF0.2846554304293915
aF0.8035243124557799
aF0.0025688753215036106
aF0.022905086467623518
aF0.0012369614961613672
atp13
a(g1
(lp14
F0.9908814874093193
aF5.073366239531173
aF0.9139224105215112
aF4.834107427140509
aF0.6316270265814315
aF3.904908408828572
aF0.12438915931513707
aF1.722062630004507
aF0.005924756312154753
aF1.6746306348424531
aF4.231239659101707
aF0.00397690742722757
aF0.46205217226314294
aF2.001382601362804
aF0.0014925260013901069
aF1.0120566944778315
aF2.0768738335867147
aF0.0003871459681721346
aF0.04182285123266943
aF0.4114442915236844
atp15
a(g1
(lp16
F1.137077261457127
aF2.2852061923470424
aF1.1050408160632637
aF2.1394885493048332
aF0.9770488640612252
aF1.5931133165738989
aF0.6354356153203546
aF0.4937171018941175
aF0.0029979588708223147
aF1.6212998303071118
aF1.5587331283211043
aF0.023507723265769654
aF0.45451945481222306
aF0.25919833850006696
aF5.431648789086687e-05
aF0.9751886954901426
aF1.0304759871112552
aF0.016643164284305227
aF0.0359325621422306
aF0.0036009761355108977
atp17
a(VCu
p18
(lp19
F0.14382151554173833
aF4.292067867882697
aF0.12543103109946652
aF4.015072862665486
aF0.06651455271184181
aF2.982530727853199
aF0.00354989279935746
aF0.9305968613415465
aF9.753392320564738e-05
aF0.122545411020905
aF2.413829253103193
aF3.258454188672236e-05
aF0.016918572624859855
aF0.690856698294979
aF4.1356673031366764e-05
aF0.08858830034294243
aF1.5054699170268326
aF5.433592231377286e-07
aF0.00026835249052691154
aF0.10206013075989363
atp20
a(g18
(lp21
F0.1438215155417386
aF4.168398666474337
aF0.12543103109946674
aF3.9844840940791753
aF0.06651455271184195
aF3.274743802339965
aF0.00354989279935747
aF1.6324441783878874
aF9.753392320564755e-05
aF0.16632597271196556
aF3.740052736575866
aF3.258454188672245e-05
aF0.01675373290125645
aF1.716176578250939
aF4.1356673031366825e-05
aF0.13116730549024658
aF1.9434261873801495
aF5.433592231377307e-07
aF0.00015793148058362375
aF0.47499537140512116
atp22
a.