(lp0
(VPt
p1
(lp2
F0.23858938852812914
aF5.749562832710248
aF0.2166478229919738
aF5.454173943701315
aF0.13900286045094273
aF4.317398239143119
aF0.018845095588779386
aF1.7302643210369892
aF0.0005793369667360936
aF0.43529585804373405
aF6.136768124306336
aF0.0002301148323528563
aF0.09927373545613141
aF2.2332111970739414
aF0.0002123987647049117
aF0.27112886664595975
aF3.3834740541733526
aF5.286953276790767e-06
aF0.003641040485713696
aF0.3741021505740416
atp3
a(g1
(lp4
F0.30114496757039166
aF5.858180740981262
aF0.27559067254315167
aF5.562299102319528
aF0.18346328084678348
aF4.423094156226993
aF0.029830847711117308
aF1.818987735461282
aF0.0010133135989875456
aF0.5530282569701974
aF6.316020577429747
aF0.00043197089625676867
aF0.15374374363741983
aF2.3926721054316853
aF0.00036036757142141556
aF0.3167211942004505
aF3.4516625950107396
aF1.2377429170544187e-05
aF0.007760162224400931
aF0.4361062279138287
atp5
a(g1
(lp6
F0.24986180373682715
aF5.746413055252946
aF0.22987723949649605
aF5.45184750313275
aF0.15642726593074754
aF4.318611146679994
aF0.02680448891235919
aF1.738644646522908
aF0.00013787637157868505
aF0.49451025184065805
aF6.1230931298775
aF4.775610617846552e-05
aF0.1304215496367307
aF2.2527414353295705
aF5.6493372092083215e-05
aF0.29182121328975347
aF3.359355666346715
aF8.131183309177016e-07
aF0.006956822777225791
aF0.38061138186402527
atp7
a(g1
(lp8
F0.26999203853955894
aF5.820845234834398
aF0.24902327382457876
aF5.525156374003992
aF0.17153630256978697
aF4.387752657378742
aF0.03129917130149125
aF1.7959212357970318
aF0.00020126353434509186
aF0.5288674097539547
aF6.301526611354175
aF7.224589233926658e-05
aF0.1636186060728059
aF2.354885226869319
aF8.019429658171192e-05
aF0.28716252270015297
aF3.4454352034805487
aF1.3314833525280387e-06
aF0.009499350395644018
aF0.4096063962946531
atp9
a(g1
(lp10
F0.30706417446510925
aF5.7996183299079425
aF0.2729228371985804
aF5.504630769094483
aF0.15820237785516708
aF4.369139953197167
aF0.013052517353477565
aF1.7811959513534752
aF0.0009607685660527696
aF0.31950423867350636
aF6.327683161312969
aF0.00037728885145730373
aF0.0725448643904513
aF2.338924315799806
aF0.00035680388670124915
aF0.18604905802831664
aF3.46066037565782
aF8.618275257125776e-06
aF0.0015006901175518784
aF0.39398158340539724
atp11
a(g1
(lp12
F0.8549633288863614
aF5.76454510675956
aF0.8021548954455834
aF5.467421528421577
aF0.6006591811952802
aF4.325272220859392
aF0.1711564843581292
aF1.7336728731640012
aF0.044124913265851315
aF1.1275510106444633
aF6.0841365171471224
aF0.010660904931040788
aF0.48272695583342856
aF2.2239088815764183
aF0.0340711207606249
aF0.5447626444606953
aF3.359313799217545
aF0.001682582231856731
aF0.06680752037274292
aF0.38445627500929414
atp13
a(g1
(lp14
F0.3724302936937343
aF5.8693112690634734
aF0.3392635383207856
aF5.575324467896611
aF0.2202130358694754
aF4.442217156071341
aF0.029925517166853172
aF1.841741532991947
aF0.0009938951287076052
aF0.4596256912231922
aF6.369455964665454
aF3.616935546382392e-05
aF0.13778581868617187
aF2.4586731519917673
aF0.0008928304804400627
aF0.2479122629820301
aF3.4482954174772242
aF1.565920966490919e-09
aF0.006058719600536628
aF0.4480686224092915
atp15
a(g1
(lp16
F0.8600596362061005
aF5.7409365292191685
aF0.8259423365803669
aF5.444884030388058
aF0.6943325636054108
aF4.306750559745868
aF0.36794379840875957
aF1.722804162915513
aF0.12331087277608707
aF0.7556346398238087
aF6.079855821652507
aF0.0014025731612865892
aF1.1129991309744105
aF2.203757937918009
aF0.12049961089467627
aF0.09102568340277137
aF3.3648177304289226
aF3.324475442644505e-05
aF0.3035677675178303
aF0.3734414778737309
atp17
a(VCu
p18
(lp19
F0.7770972594512989
aF3.2503158102021192
aF0.7419066146620579
aF3.030421602828456
aF0.6088229197728717
aF2.2190359643906645
aF0.29428703048465554
aF0.6799268953529229
aF0.004485314424875056
aF0.047428695467908975
aF2.988469566312315
aF0.0016983358348677477
aF0.15955504730618572
aF0.5126520223873282
aF0.0022641393924196776
aF0.024522450261343125
aF1.9581179048127948
aF9.801940844363693e-05
aF0.13373022327385312
aF0.007623591147316455
atp20
a(g18
(lp21
F0.7770972594512989
aF0.20378982142409344
aF0.7419066146620579
aF0.18100101357306053
aF0.6088229197728717
aF0.10480090393292957
aF0.29428703048465554
aF0.008931025448043656
aF0.00448531442487506
aF0.1590068249639664
aF0.011609796983545497
aF0.0016983358348677477
aF0.003171960731382882
aF0.0008344951473445636
aF0.0022641393924196793
aF0.15090000292424863
aF0.009455648218229253
aF9.801940844363682e-05
aF4.813122922485889e-06
aF7.421286068198256e-07
atp22
a.