(lp0
(VPt
p1
(lp2
F0.0
aF5.034633818642563
aF0.0
aF4.746808903464516
aF0.0
aF3.6478635589157014
aF0.0
aF1.2633333276911263
aF0.0
aF0.0
aF3.6714468305049626
aF0.0
aF0.0
aF1.2108655640165995
aF0.0
aF0.0
aF2.0136095836793584
aF0.0
aF0.0
aF0.14986487204767365
atp3
a(g1
(lp4
F0.0
aF4.983218143618431
aF0.0
aF4.70336347747926
aF0.0
aF3.6448987575603846
aF0.0
aF1.4477690037111615
aF0.0
aF0.0
aF3.766754311431099
aF0.0
aF0.0
aF1.6269225488057104
aF0.0
aF0.0
aF1.9744668073257552
aF0.0
aF0.0
aF0.40151849090872166
atp5
a(g1
(lp6
F0.0
aF5.098573953462409
aF0.0
aF4.821529231146421
aF0.0
aF3.7536442344921492
aF0.0
aF1.3502781288176795
aF0.0
aF0.0
aF4.000895334024284
aF0.0
aF0.0
aF1.346523992386352
aF0.0
aF0.0
aF2.1822583931665043
aF0.0
aF0.0
aF0.18210745957908198
atp7
a(g1
(lp8
F0.0
aF5.5173986511733055
aF0.0
aF5.255947973161385
aF0.0
aF4.247293095933623
aF0.0
aF1.9250610313198617
aF0.0
aF0.0
aF5.121869697912558
aF0.0
aF0.0
aF2.685356837404259
aF0.0
aF0.0
aF2.1677870161230475
aF0.0
aF0.0
aF0.4929958007197731
atp9
a(g1
(lp10
F0.0
aF4.081759104958034
aF0.0
aF3.85757272689709
aF0.0
aF3.021922426475905
aF0.0
aF1.3486023274619077
aF0.0
aF0.0
aF2.7638425816886922
aF0.0
aF0.0
aF0.9785359724668838
aF0.0
aF0.0
aF1.5630001297702762
aF0.0
aF0.0
aF0.14561264034445068
atp11
a(g1
(lp12
F0.0
aF4.978319731349576
aF0.0
aF4.7222401294497445
aF0.0
aF3.7385981917844497
aF0.0
aF1.5569297073548922
aF0.0
aF0.0
aF3.940728699159911
aF0.0
aF0.0
aF1.8059798279712704
aF0.0
aF0.0
aF2.168522566136647
aF0.0
aF0.0
aF0.41956450426086844
atp13
a(g1
(lp14
F0.0
aF3.990552181173462
aF0.0
aF3.7515399460479064
aF0.0
aF2.8555690507096116
aF0.0
aF1.0009379073937112
aF0.0
aF0.0
aF2.3700063416277355
aF0.0
aF0.0
aF0.760314427025785
aF0.0
aF0.0
aF1.3380116070969452
aF0.0
aF0.0
aF0.06629444671264943
atp15
a(g1
(lp16
F0.0
aF4.947255594318454
aF0.0
aF4.6714791682754795
aF0.0
aF3.6173582511266757
aF0.0
aF1.2867301515098937
aF0.0
aF0.0
aF4.489113262165017
aF0.0
aF0.0
aF1.4168784817412263
aF0.0
aF0.0
aF2.4904409624123027
aF0.0
aF0.0
aF0.12673443735300297
atp17
a(g1
(lp18
F0.0
aF5.253069517681981
aF0.0
aF4.961121768666153
aF0.0
aF3.842215812755914
aF0.0
aF1.368478311528494
aF0.0
aF0.0
aF4.08416814024789
aF0.0
aF0.0
aF1.395451490616834
aF0.0
aF0.0
aF2.2147881690368525
aF0.0
aF0.0
aF0.19011127912185607
atp19
a(g1
(lp20
F0.0
aF4.747796320984687
aF0.0
aF4.486761118932677
aF0.0
aF3.4942992705710587
aF0.0
aF1.369855930776178
aF0.0
aF0.0
aF4.505124703826976
aF0.0
aF0.0
aF1.4050273770794415
aF0.0
aF0.0
aF2.4209737677435506
aF0.0
aF0.0
aF0.14531966553267162
atp21
a(g1
(lp22
F0.03147287142822159
aF5.262625652428648
aF0.027296997299153237
aF4.985923377320643
aF0.014098241165328406
aF3.9192224005581493
aF0.0006565401521567458
aF1.496552476196699
aF0.0
aF0.03241938383922386
aF4.178016389065588
aF0.0
aF0.004256558965308483
aF1.604080065783635
aF0.0
aF0.02322099154401635
aF2.177014019415261
aF0.0
aF3.4406363496240834e-05
aF0.2808515020664345
atp23
a(g1
(lp24
F4.6993080143856296e-05
aF4.225144841006017
aF3.923410484583272e-05
aF3.945202826953556
aF1.6978592046243806e-05
aF2.8931936742485775
aF3.4791062216373626e-07
aF0.7827643393741428
aF0.0
aF5.13298844324003e-05
aF3.2389495110897104
aF0.0
aF4.259616983051347e-06
aF0.7450385982029826
aF0.0
aF4.1516611808117514e-05
aF1.9724582429413422
aF0.0
aF2.0861009143819468e-08
aF0.03297714822254431
atp25
a(g1
(lp26
F0.0
aF3.9372007724022415
aF0.0
aF3.7161904614322534
aF0.0
aF2.877935459385775
aF0.0
aF1.0615945179530153
aF0.0
aF0.0
aF2.5758145154425516
aF0.0
aF0.0
aF0.7943945916631856
aF0.0
aF0.0
aF1.4855024638710232
aF0.0
aF0.0
aF0.09598363529940715
atp27
a(g1
(lp28
F0.0
aF5.235358746973887
aF0.0
aF4.99206413826168
aF0.0
aF4.048121077932865
aF0.0
aF1.7832953955275357
aF0.0
aF0.0
aF4.984438537647291
aF0.0
aF0.0
aF2.34888999570974
aF0.0
aF0.0
aF2.2272753223070207
aF0.0
aF0.0
aF0.3458262702940409
atp29
a(g1
(lp30
F0.0
aF4.126702693651314
aF0.0
aF3.9077501951993154
aF0.0
aF3.083556907109677
aF0.0
aF1.32266995355881
aF0.0
aF0.0
aF2.881791694630203
aF0.0
aF0.0
aF1.1158712907695394
aF0.0
aF0.0
aF1.506112486499896
aF0.0
aF0.0
aF0.1616526113115657
atp31
a(g1
(lp32
F0.054358312742596025
aF4.558593669002672
aF0.047693917533880456
aF4.288136011275053
aF0.025990422302849613
aF3.262779337134207
aF0.0015529254434457772
aF1.0818374805932445
aF2.271746032253373e-06
aF0.034381414331840957
aF3.716958991507348
aF6.665865559761496e-08
aF0.005506763345480163
aF1.0758056295155733
aF2.082955989245159e-06
aF0.022756557204641262
aF2.1259815595608136
aF1.544070701859496e-12
aF6.449997249182582e-05
aF0.10098900929736779
atp33
a(g1
(lp34
F0.0
aF4.947364743216277
aF0.0
aF4.643800375965937
aF0.0
aF3.4942505860725332
aF0.0
aF1.1067909211438105
aF0.0
aF0.0
aF3.622915493340257
aF0.0
aF0.0
aF1.0921470954485994
aF0.0
aF0.0
aF2.0536013378560147
aF0.0
aF0.0
aF0.11875115447656678
atp35
a(g1
(lp36
F0.0
aF4.130618490338011
aF0.0
aF3.8748843649637923
aF0.0
aF2.923110658640653
aF0.0
aF1.0971732352108978
aF0.0
aF0.0
aF2.269544580289647
aF0.0
aF0.0
aF0.8608094295149069
aF0.0
aF0.0
aF1.2360031786448538
aF0.0
aF0.0
aF0.1859854004292098
atp37
a(g1
(lp38
F0.0
aF4.779623284065974
aF0.0
aF4.520554756781906
aF0.0
aF3.531021670289944
aF0.0
aF1.3254496316389839
aF0.0
aF0.0
aF3.6196570900462164
aF0.0
aF0.0
aF1.3882402200738257
aF0.0
aF0.0
aF1.8600774196819438
aF0.0
aF0.0
aF0.21166658158882098
atp39
a(g1
(lp40
F0.0
aF4.494576900512749
aF0.0
aF4.2257828553974335
aF0.0
aF3.200697207527097
aF0.0
aF1.0092681539078296
aF0.0
aF0.0
aF3.2231961503594473
aF0.0
aF0.0
aF0.9878526450285166
aF0.0
aF0.0
aF1.75581559043797
aF0.0
aF0.0
aF0.07212327100936049
atp41
a(g1
(lp42
F0.0
aF4.928892229645237
aF0.0
aF4.669348454254953
aF0.0
aF3.6839884428160277
aF0.0
aF1.656014815495366
aF0.0
aF0.0
aF4.052188462367409
aF0.0
aF0.0
aF1.7875348487329104
aF0.0
aF0.0
aF2.058865231960593
aF0.0
aF0.0
aF0.29741666151727986
atp43
a(g1
(lp44
F0.0
aF4.775053323574886
aF0.0
aF4.516358478026743
aF0.0
aF3.5288439932502755
aF0.0
aF1.4486444789397812
aF0.0
aF0.0
aF3.7678836028822698
aF0.0
aF0.0
aF1.4620470907422123
aF0.0
aF0.0
aF2.0192547261688216
aF0.0
aF0.0
aF0.22877424951859432
atp45
a(g1
(lp46
F0.0
aF4.8546944546805975
aF0.0
aF4.564963358562883
aF0.0
aF3.4638281946012217
aF0.0
aF1.1296767025761096
aF0.0
aF0.0
aF3.9810434694820263
aF0.0
aF0.0
aF1.1435043234126583
aF0.0
aF0.0
aF2.2564812735009654
aF0.0
aF0.0
aF0.0897082731704458
atp47
a(g1
(lp48
F0.0
aF4.399297882383042
aF0.0
aF4.119539355118709
aF0.0
aF3.06405206026231
aF0.0
aF0.8949099188636458
aF0.0
aF0.0
aF2.9923430313413437
aF0.0
aF0.0
aF0.8286290924210352
aF0.0
aF0.0
aF1.6761524968532149
aF0.0
aF0.0
aF0.04432469148213009
atp49
a(g1
(lp50
F0.0
aF5.316748943373844
aF0.0
aF5.031621511942888
aF0.0
aF3.9443548836461844
aF0.0
aF1.54500856555518
aF0.0
aF0.0
aF4.808320211083301
aF0.0
aF0.0
aF1.8294500686655661
aF0.0
aF0.0
aF2.477713875783924
aF0.0
aF0.0
aF0.2772796556569215
atp51
a(g1
(lp52
F0.0
aF4.724986512137026
aF0.0
aF4.448486080860096
aF0.0
aF3.3985337631299117
aF0.0
aF1.1701143901467814
aF0.0
aF0.0
aF3.4551903784990836
aF0.0
aF0.0
aF1.2038781366084719
aF0.0
aF0.0
aF1.858753717200101
aF0.0
aF0.0
aF0.1820130112304893
atp53
a(g1
(lp54
F0.0
aF5.190412840557766
aF0.0
aF4.939832262367908
aF0.0
aF3.9725501877424483
aF0.0
aF1.7017301472109359
aF0.0
aF0.0
aF4.80487087081895
aF0.0
aF0.0
aF2.2161561775635783
aF0.0
aF0.0
aF2.1459303570393162
aF0.0
aF0.0
aF0.3114821362775311
atp55
a(g1
(lp56
F0.0
aF4.5271097566235605
aF0.0
aF4.249974939804008
aF0.0
aF3.2026023526893677
aF0.0
aF1.0281684156241433
aF0.0
aF0.0
aF3.1216060846364613
aF0.0
aF0.0
aF0.9879134277149455
aF0.0
aF0.0
aF1.7488101823962823
aF0.0
aF0.0
aF0.11954899007928545
atp57
a(g1
(lp58
F0.0
aF5.037430764760749
aF0.0
aF4.764301495474904
aF0.0
aF3.714292916982328
aF0.0
aF1.3549349614812838
aF0.0
aF0.0
aF4.609217034584632
aF0.0
aF0.0
aF1.5065485838777872
aF0.0
aF0.0
aF2.5361152477177877
aF0.0
aF0.0
aF0.15815324444854842
atp59
a(g1
(lp60
F0.0
aF5.253938794898997
aF0.0
aF4.978334795001856
aF0.0
aF3.917896982126934
aF0.0
aF1.5263363857404835
aF0.0
aF0.0
aF4.367704787345512
aF0.0
aF0.0
aF1.7920974420970979
aF0.0
aF0.0
aF2.1442549586572217
aF0.0
aF0.0
aF0.2578559749198235
atp61
a(g1
(lp62
F0.0
aF5.131207760644208
aF0.0
aF4.8432061984458725
aF0.0
aF3.7452323621179566
aF0.0
aF1.3719036328366339
aF0.0
aF0.0
aF4.454225539897308
aF0.0
aF0.0
aF1.4974732691339099
aF0.0
aF0.0
aF2.3837096844692254
aF0.0
aF0.0
aF0.17544149341186238
atp63
a(g1
(lp64
F0.0
aF5.1566173172825245
aF0.0
aF4.89392189920151
aF0.0
aF3.881936129811939
aF0.0
aF1.566885878546642
aF0.0
aF0.0
aF4.832248009088771
aF0.0
aF0.0
aF1.9354695555067498
aF0.0
aF0.0
aF2.4029376002058846
aF0.0
aF0.0
aF0.2919822795387222
atp65
a(g1
(lp66
F0.2054505011349564
aF5.525182065134586
aF0.18807877213309013
aF5.223524595198548
aF0.12481131923838566
aF4.06860979363087
aF0.018605994126326873
aF1.5128808553993356
aF0.0
aF0.3427935620199662
aF5.019311881834879
aF0.0
aF0.0871319162897904
aF1.6650132292728481
aF0.0
aF0.19095779043824287
aF2.8239650863116816
aF0.0
aF0.002873695819482896
aF0.2611479469752638
atp67
a(g1
(lp68
F0.3557419245672118
aF5.972692872751634
aF0.3322136568463083
aF5.684654961740151
aF0.2426053183448207
aF4.566261410214892
aF0.058447754503595496
aF1.9651561232377956
aF0.007155523107451905
aF0.8222863437848793
aF6.432064214998556
aF3.9882635065534986e-05
aF0.2688517814690087
aF2.7486925407718568
aF0.007037196674689819
aF0.39313752063124613
aF3.221546051808527
aF6.791559553010958e-12
aF0.01136188574929589
aF0.4352762545900097
atp69
a(g1
(lp70
F0.1499196471500743
aF5.824037959937229
aF0.13557670577152942
aF5.521259724254341
aF0.08501014704729129
aF4.346252086035868
aF0.009739895343768522
aF1.6386371276954945
aF0.0
aF0.25371503098280024
aF5.865102769341902
aF0.0
aF0.04883544018529644
aF1.969932295070814
aF0.0
aF0.160808770638795
aF3.2924617221988086
aF0.0
aF0.0008466116505098505
aF0.3055031861978271
atp71
a(g1
(lp72
F0.05035431445801288
aF4.841295103204119
aF0.04410319692076081
aF4.595256482036956
aF0.023837983135083587
aF3.6502170985036426
aF0.0013709902222691153
aF1.518084016689442
aF0.0
aF0.11322820361167914
aF5.226393317008751
aF0.0
aF0.012386026771702571
aF1.8891537007512131
aF0.0
aF0.08596775522284622
aF2.7277852409368464
aF0.0
aF7.163748379393919e-05
aF0.27080035251751483
atp73
a(g1
(lp74
F0.0
aF5.0728572283557165
aF0.0
aF4.795646581135386
aF0.0
aF3.7379805656470664
aF0.0
aF1.4096522575368395
aF0.0
aF0.0
aF3.6676451771155443
aF0.0
aF0.0
aF1.3878756804596997
aF0.0
aF0.0
aF1.961386536099447
aF0.0
aF0.0
aF0.2209089417417083
atp75
a(g1
(lp76
F0.4385997886591788
aF5.384813269012232
aF0.409996184295054
aF5.114130933626147
aF0.30173765058536217
aF4.07686555222659
aF0.07908210712089535
aF1.7123518992551021
aF0.030701985321072198
aF0.5938236973969163
aF4.928194772577312
aF0.0006459612000792793
aF0.2601927878993795
aF2.075189025383148
aF0.028842874963507948
aF0.25952453882178783
aF2.550391025554772
aF5.6519516659630715e-09
aF0.026896855355428007
aF0.39227170417133883
atp77
a(g1
(lp78
F0.0716116340873679
aF4.160805553958543
aF0.063183663225283
aF3.911782172370651
aF0.035353534305719386
aF2.972080710477233
aF0.002406061998684605
aF0.9970541035885513
aF0.00014757891338744366
aF0.0185134834121841
aF2.8452364271661383
aF4.534967184324176e-06
aF0.004263753551048569
aF0.8859418236205207
aF0.00013476921419966232
aF0.010620652897186325
aF1.5932742748353765
aF1.201683389013382e-10
aF8.504983275273816e-05
aF0.08052667070600028
atp79
a(g1
(lp80
F0.7300578705524391
aF5.977538790186813
aF0.6976033151519792
aF5.716035904811643
aF0.5699813501222193
aF4.698439462448644
aF0.2517560228883754
aF2.2204943978390492
aF0.11358338499098619
aF0.8717191552932214
aF6.777374678579162
aF0.00025079560989844896
aF0.9511252593513757
aF3.510877392542247
aF0.11283430856092787
aF0.15756967752722797
aF3.130028495945633
aF2.6820178431571156e-12
aF0.21483484892363003
aF0.7689499208433346
atp81
a(VCu
p82
(lp83
F0.730589261905337
aF3.09719515262777
aF0.7149888438931129
aF2.9034124588194206
aF0.6468281652285203
aF2.1733648891882447
aF0.40628594605965085
aF0.6745737200815027
aF0.0
aF0.036687330964878896
aF3.1047415832145004
aF0.0
aF0.2706738046772568
aF0.5456305989621133
aF0.0
aF0.00027123348244578353
aF2.0210757317078585
aF0.0
aF0.19646294947765103
aF0.007911872585000923
atp84
a(g82
(lp85
F0.730589261905337
aF0.4013504419779274
aF0.7149888438931129
aF0.3585719789155001
aF0.6468281652285203
aF0.21351039913740566
aF0.40628594605965085
aF0.02087512355191153
aF0.0
aF0.2937298230631148
aF0.061484710559398685
aF0.0
aF0.013631312579020975
aF0.004873852308690152
aF0.0
aF0.2582806982368946
aF0.04923612421271294
aF0.0
aF5.82820610669311e-06
aF4.878525456701906e-06
atp86
a(g1
(lp87
F0.00016916812920181757
aF5.39385937663067
aF0.0001414421683557547
aF5.0970486095075564
aF6.162308781835014e-05
aF3.9589317460565097
aF1.302847738878435e-06
aF1.4373219780420212
aF0.0
aF0.00014132647875183453
aF4.5368175006918765
aF0.0
aF1.2146760467738457e-05
aF1.5224545446205686
aF0.0
aF0.0001123316459672715
aF2.5229105133658045
aF0.0
aF3.749422051037785e-08
aF0.22563153464972688
atp88
a(g1
(lp89
F0.0007078771002086149
aF4.917675326461182
aF0.0005937484740946476
aF4.622772846701005
aF0.0002625380987189275
aF3.512715774187661
aF5.9451941916560914e-06
aF1.2633403187647785
aF0.0
aF0.0010167481127173227
aF4.431431143395039
aF0.0
aF7.690425602749832e-05
aF1.2905179214796985
aF0.0
aF0.0008341791997731192
aF2.456648815360346
aF0.0
aF2.360551034834576e-07
aF0.08246817226656597
atp90
a(g1
(lp91
F0.0
aF5.130927186105668
aF0.0
aF4.841769572302963
aF0.0
aF3.7336120700134052
aF0.0
aF1.290769350569384
aF0.0
aF0.0
aF3.7705635772455226
aF0.0
aF0.0
aF1.2922647229481312
aF0.0
aF0.0
aF2.103970271102704
aF0.0
aF0.0
aF0.15940641696291685
atp92
a(g1
(lp93
F0.0
aF4.296140797771994
aF0.0
aF4.0409785860792296
aF0.0
aF3.084438270411382
aF0.0
aF1.19437793188882
aF0.0
aF0.0
aF3.3557259715340666
aF0.0
aF0.0
aF1.063020423471776
aF0.0
aF0.0
aF1.9247598103765715
aF0.0
aF0.0
aF0.09395522983976158
atp94
a(g1
(lp95
F0.006731324487284621
aF4.907068049722973
aF0.005718153627460352
aF4.62840629209104
aF0.0026817841337437322
aF3.5736788032992046
aF7.982168064306577e-05
aF1.3076827020823543
aF0.0
aF0.0023564494537007302
aF3.667097689728612
aF0.0
aF0.0004650000900727363
aF1.3346702387549392
aF0.0
aF0.0014268073570972613
aF1.9199836801175105
aF0.0
aF4.125982188728775e-06
aF0.14807441259450863
atp96
a(g1
(lp97
F0.3708061970500398
aF5.858669714413311
aF0.34518886236742924
aF5.579731313672734
aF0.24887898875010095
aF4.497772061326372
aF0.058089005104120385
aF1.9334736534062276
aF0.01582163104008808
aF0.6182027660525463
aF6.351993724966781
aF0.00027671124380284436
aF0.19660743346482443
aF2.8013608708383297
aF0.015019709702456141
aF0.3230884560709526
aF3.1401364270063428
aF1.4052828769939884e-09
aF0.013998230349074128
aF0.42654209257096914
atp98
a(g1
(lp99
F0.0
aF4.098763099114712
aF0.0
aF3.878225004929858
aF0.0
aF3.057258545306202
aF0.0
aF1.4076096418864061
aF0.0
aF0.0
aF2.8256196155807065
aF0.0
aF0.0
aF1.126469778034642
aF0.0
aF0.0
aF1.5749176692263827
aF0.0
aF0.0
aF0.16593014446744764
atp100
a(g1
(lp101
F0.0
aF4.82144075531854
aF0.0
aF4.541728034095407
aF0.0
aF3.4948774345509253
aF0.0
aF1.386635204718417
aF0.0
aF0.0
aF3.727652880344393
aF0.0
aF0.0
aF1.364540060223789
aF0.0
aF0.0
aF2.1384322462747614
aF0.0
aF0.0
aF0.2730189337572778
atp102
a(g1
(lp103
F0.0
aF4.85859870740677
aF0.0
aF4.574888418264002
aF0.0
aF3.500111505874512
aF0.0
aF1.217548900514498
aF0.0
aF0.0
aF3.7578749666268716
aF0.0
aF0.0
aF1.2186181785662826
aF0.0
aF0.0
aF2.0796753165456496
aF0.0
aF0.0
aF0.15810794638464032
atp104
a(g1
(lp105
F0.0
aF4.381404708432444
aF0.0
aF4.102928211338525
aF0.0
aF3.0537724217819537
aF0.0
aF0.9150367630056775
aF0.0
aF0.0
aF2.9052625333576696
aF0.0
aF0.0
aF0.8519876650801788
aF0.0
aF0.0
aF1.6207859586475681
aF0.0
aF0.0
aF0.07633896309176293
atp106
a(g1
(lp107
F0.0
aF4.696730339161978
aF0.0
aF4.415537075352685
aF0.0
aF3.353584666809213
aF0.0
aF1.1284578929760083
aF0.0
aF0.0
aF3.151568427378052
aF0.0
aF0.0
aF1.104242144527265
aF0.0
aF0.0
aF1.687614732930167
aF0.0
aF0.0
aF0.1313678277769172
atp108
a(g1
(lp109
F0.0
aF4.537753471928234
aF0.0
aF4.281669160026626
aF0.0
aF3.3006636497667916
aF0.0
aF1.1518840703024351
aF0.0
aF0.0
aF3.1248173895967257
aF0.0
aF0.0
aF1.2284875178327475
aF0.0
aF0.0
aF1.5717500373823248
aF0.0
aF0.0
aF0.17670844943438319
atp110
a(g1
(lp111
F0.11874208403406622
aF5.019625605883102
aF0.10634723159717972
aF4.745548206747977
aF0.06379927676983181
aF3.6940461051062488
aF0.006011852260313101
aF1.3590483809645775
aF0.000358225319023693
aF0.15207353003084942
aF4.202485033923584
aF9.789407143083901e-06
aF0.0217467528132673
aF1.4139111664646518
aF0.00033039199802579344
aF0.10379982080388864
aF2.350305602732715
aF1.8425953587787416e-10
aF0.00010027895631024172
aF0.22368064126581266
atp112
a(g1
(lp113
F0.0
aF5.097184809871051
aF0.0
aF4.812355887643357
aF0.0
aF3.724819964817116
aF0.0
aF1.3612565716576992
aF0.0
aF0.0
aF4.366931455516837
aF0.0
aF0.0
aF1.5105941160008476
aF0.0
aF0.0
aF2.269689565750204
aF0.0
aF0.0
aF0.1642054120482464
atp114
a(g1
(lp115
F0.7019785221472701
aF4.906125738238109
aF0.6653910402377314
aF4.642347987560957
aF0.5226637651791105
aF3.6357053928291796
aF0.19018888790146793
aF1.4072541497855267
aF0.12914796157323466
aF0.8206456625131856
aF4.971026647464733
aF0.0050242994480478274
aF0.5057342176266438
aF1.5372275877098178
aF0.11517600434237336
aF0.25765066750727156
aF2.7910626762776896
aF2.6382372411739644e-07
aF0.06056393417453995
aF0.16559567698124544
atp116
a(g1
(lp117
F0.0
aF4.3706481804923785
aF0.0
aF4.126949505693381
aF0.0
aF3.2022876779988154
aF0.0
aF1.226162391793629
aF0.0
aF0.0
aF3.0586881269295096
aF0.0
aF0.0
aF1.2190859814816595
aF0.0
aF0.0
aF1.4950241545272847
aF0.0
aF0.0
aF0.1618678063548606
atp118
a(g1
(lp119
F0.0
aF4.827539836739234
aF0.0
aF4.5396424208022115
aF0.0
aF3.44198829701632
aF0.0
aF1.1013455240016639
aF0.0
aF0.0
aF3.573598156917578
aF0.0
aF0.0
aF1.0518594019313852
aF0.0
aF0.0
aF2.04380706982998
aF0.0
aF0.0
aF0.11497862483927
atp120
a(g1
(lp121
F0.0
aF4.336727835615861
aF0.0
aF4.040171040462373
aF0.0
aF2.9342824392696243
aF0.0
aF0.801807767233052
aF0.0
aF0.0
aF2.656707487652385
aF0.0
aF0.0
aF0.6657373035366175
aF0.0
aF0.0
aF1.56260837633974
aF0.0
aF0.0
aF0.03236612991715348
atp122
a(g1
(lp123
F0.0
aF5.178178948856235
aF0.0
aF4.9018452607139515
aF0.0
aF3.8436296147732034
aF0.0
aF1.4700647005148406
aF0.0
aF0.0
aF4.383666666144538
aF0.0
aF0.0
aF1.826010276243311
aF0.0
aF0.0
aF2.319474350664585
aF0.0
aF0.0
aF0.20952115258406992
atp124
a(g1
(lp125
F0.0
aF3.837855886532905
aF0.0
aF3.6012115685287585
aF0.0
aF2.7224017548308272
aF0.0
aF1.0481125780371936
aF0.0
aF0.0
aF2.1820821981312033
aF0.0
aF0.0
aF0.7917314481971813
aF0.0
aF0.0
aF1.2322391778592263
aF0.0
aF0.0
aF0.13108193414165198
atp126
a(g1
(lp127
F0.21179656379742426
aF4.995050901088807
aF0.19281831598078453
aF4.698559502296425
aF0.12508436746721996
aF3.572542621051537
aF0.01745338893479919
aF1.1825138029551654
aF0.00407862278068733
aF0.32558434089740085
aF4.615836507187691
aF0.00011190968029503323
aF0.06331205953643475
aF1.2813324923136442
aF0.003760508156045885
aF0.1992465077366748
aF2.641353120006625
aF2.131390337866741e-09
aF0.0009524527004722208
aF0.07665606384865996
atp128
a(g1
(lp129
F0.0
aF4.341012226403845
aF0.0
aF4.092173941499191
aF0.0
aF3.1545428451545146
aF0.0
aF1.1997227766075496
aF0.0
aF0.0
aF2.9697585918904217
aF0.0
aF0.0
aF1.1508167205581454
aF0.0
aF0.0
aF1.4586019418033533
aF0.0
aF0.0
aF0.1411351549116538
atp130
a(g1
(lp131
F0.0
aF5.04464553845462
aF0.0
aF4.776915483267108
aF0.0
aF3.762121886990754
aF0.0
aF1.6791627095297659
aF0.0
aF0.0
aF4.013120578267866
aF0.0
aF0.0
aF1.879917492763361
aF0.0
aF0.0
aF1.9973063396645623
aF0.0
aF0.0
aF0.39280006345445034
atp132
a(g1
(lp133
F0.0
aF5.082065813626476
aF0.0
aF4.8132201490335484
aF0.0
aF3.784569410441439
aF0.0
aF1.5857957864359842
aF0.0
aF0.0
aF3.9203076896762936
aF0.0
aF0.0
aF1.8499257203238524
aF0.0
aF0.0
aF1.9400539679110833
aF0.0
aF0.0
aF0.3793523676372135
atp134
a(g1
(lp135
F0.0
aF4.8504849396501175
aF0.0
aF4.5556164887669475
aF0.0
aF3.4404302425755056
aF0.0
aF1.1254425934529828
aF0.0
aF0.0
aF3.324800353985354
aF0.0
aF0.0
aF1.0864097395588188
aF0.0
aF0.0
aF1.841477414324318
aF0.0
aF0.0
aF0.13039164356974
atp136
a(g1
(lp137
F0.0
aF4.1575204780775055
aF0.0
aF3.905356080877142
aF0.0
aF2.9760214499510305
aF0.0
aF1.2732264379796618
aF0.0
aF0.0
aF2.515141702219316
aF0.0
aF0.0
aF0.990697456552418
aF0.0
aF0.0
aF1.4378785986443317
aF0.0
aF0.0
aF0.22972436597990278
atp138
a(g1
(lp139
F0.0
aF4.795030686890654
aF0.0
aF4.553755357012899
aF0.0
aF3.6241847709436095
aF0.0
aF1.4699940792275163
aF0.0
aF0.0
aF3.7143853205289052
aF0.0
aF0.0
aF1.7175613794600995
aF0.0
aF0.0
aF1.6418832511101724
aF0.0
aF0.0
aF0.24825806376018378
atp140
a(g1
(lp141
F0.0
aF5.083838327520257
aF0.0
aF4.80195667707717
aF0.0
aF3.7164652609785858
aF0.0
aF1.3295637101040445
aF0.0
aF0.0
aF4.444045324678504
aF0.0
aF0.0
aF1.3215960171910466
aF0.0
aF0.0
aF2.6153967313902378
aF0.0
aF0.0
aF0.15095453930683955
atp142
a(g1
(lp143
F0.0
aF3.944138092432686
aF0.0
aF3.7123253505433347
aF0.0
aF2.8561506017556693
aF0.0
aF1.279757100344525
aF0.0
aF0.0
aF2.5928317601398296
aF0.0
aF0.0
aF0.802880208652123
aF0.0
aF0.0
aF1.4416893338121932
aF0.0
aF0.0
aF0.056119246747537654
atp144
a(g1
(lp145
F0.0
aF4.509661907643769
aF0.0
aF4.254702926673505
aF0.0
aF3.2911922568512617
aF0.0
aF1.341192717189459
aF0.0
aF0.0
aF2.9761597173896845
aF0.0
aF0.0
aF1.2685456211214061
aF0.0
aF0.0
aF1.5764924202220234
aF0.0
aF0.0
aF0.23621485163462105
atp146
a(g1
(lp147
F0.0
aF4.741033996978993
aF0.0
aF4.465566832674437
aF0.0
aF3.423086994391037
aF0.0
aF1.2268518932860035
aF0.0
aF0.0
aF3.3716065537456488
aF0.0
aF0.0
aF1.247430372992823
aF0.0
aF0.0
aF1.6811749288178155
aF0.0
aF0.0
aF0.1327930591684761
atp148
a(g1
(lp149
F0.0
aF4.519616695368366
aF0.0
aF4.23621379755401
aF0.0
aF3.163614148179464
aF0.0
aF0.9357538651197669
aF0.0
aF0.0
aF3.1819174774719454
aF0.0
aF0.0
aF0.9018276550211188
aF0.0
aF0.0
aF1.7859698253887737
aF0.0
aF0.0
aF0.050310794115646734
atp150
a(g1
(lp151
F0.0
aF5.238483619050337
aF0.0
aF4.938312302630712
aF0.0
aF3.792845002152805
aF0.0
aF1.317183959700063
aF0.0
aF0.0
aF4.481851787235454
aF0.0
aF0.0
aF1.4415329508212285
aF0.0
aF0.0
aF2.4797773318776892
aF0.0
aF0.0
aF0.18217578448378216
atp152
a(g1
(lp153
F0.0
aF5.150312837536234
aF0.0
aF4.898562033156975
aF0.0
aF3.9364132661592706
aF0.0
aF1.7739203056914385
aF0.0
aF0.0
aF4.869683535888856
aF0.0
aF0.0
aF2.1207655385079063
aF0.0
aF0.0
aF2.4469602682258476
aF0.0
aF0.0
aF0.38610529584128744
atp154
a(g1
(lp155
F0.0
aF5.274821718756075
aF0.0
aF5.019652976259268
aF0.0
aF4.033799902546878
aF0.0
aF1.719413532349914
aF0.0
aF0.0
aF4.954567959619861
aF0.0
aF0.0
aF2.1937195779578604
aF0.0
aF0.0
aF2.3454023098800043
aF0.0
aF0.0
aF0.29909265712240574
atp156
a(g1
(lp157
F0.0
aF4.94484331358046
aF0.0
aF4.660217157815217
aF0.0
aF3.5739155319211844
aF0.0
aF1.2253224001083753
aF0.0
aF0.0
aF4.389845093836765
aF0.0
aF0.0
aF1.1741890145983835
aF0.0
aF0.0
aF2.716294298182142
aF0.0
aF0.0
aF0.1264871939412353
atp158
a(g1
(lp159
F0.0
aF4.571748939541686
aF0.0
aF4.318193890015903
aF0.0
aF3.346383147950482
aF0.0
aF1.1993795314730218
aF0.0
aF0.0
aF3.4646001823598276
aF0.0
aF0.0
aF1.2582411112777339
aF0.0
aF0.0
aF1.7539993657874653
aF0.0
aF0.0
aF0.156034357795693
atp160
a(g1
(lp161
F0.0
aF4.984978341132314
aF0.0
aF4.700310041512435
aF0.0
aF3.612185261174771
aF0.0
aF1.2543906000721157
aF0.0
aF0.0
aF4.069160285035141
aF0.0
aF0.0
aF1.3383155375218643
aF0.0
aF0.0
aF2.195528416948002
aF0.0
aF0.0
aF0.12530791918862638
atp162
a(g1
(lp163
F0.0
aF4.341648071616026
aF0.0
aF4.0674596221542405
aF0.0
aF3.032414484443682
aF0.0
aF0.9008035479783785
aF0.0
aF0.0
aF3.3166759893599647
aF0.0
aF0.0
aF0.8862717693846472
aF0.0
aF0.0
aF1.9033764593237248
aF0.0
aF0.0
aF0.056894291743261126
atp164
a(g1
(lp165
F0.0
aF5.179640845003593
aF0.0
aF4.920153631337057
aF0.0
aF3.9303275874411314
aF0.0
aF1.7595121344401627
aF0.0
aF0.0
aF4.754064177724156
aF0.0
aF0.0
aF2.0989936221547167
aF0.0
aF0.0
aF2.241691945942651
aF0.0
aF0.0
aF0.3125354548782641
atp166
a(g1
(lp167
F0.0
aF4.567237947348333
aF0.0
aF4.287248285757634
aF0.0
aF3.2320837126726847
aF0.0
aF1.048191089731393
aF0.0
aF0.0
aF3.199661013440073
aF0.0
aF0.0
aF0.976937305919441
aF0.0
aF0.0
aF1.824502718197243
aF0.0
aF0.0
aF0.1080909675816196
atp168
a(g1
(lp169
F0.0
aF3.912809140459133
aF0.0
aF3.697660467137082
aF0.0
aF2.888922295818333
aF0.0
aF1.1635516066739713
aF0.0
aF0.0
aF2.1346722113422363
aF0.0
aF0.0
aF0.9738388744423084
aF0.0
aF0.0
aF1.0700370399299477
aF0.0
aF0.0
aF0.23017081250162094
atp170
a(g1
(lp171
F0.0
aF4.638655142519057
aF0.0
aF4.387445602478109
aF0.0
aF3.421680477943096
aF0.0
aF1.2363894509640811
aF0.0
aF0.0
aF3.7932265515922943
aF0.0
aF0.0
aF1.2572361052189736
aF0.0
aF0.0
aF2.1289672177995174
aF0.0
aF0.0
aF0.16616869380372845
atp172
a(g1
(lp173
F0.0
aF3.865870287693763
aF0.0
aF3.6461331172699722
aF0.0
aF2.8129345698219503
aF0.0
aF1.026296438184601
aF0.0
aF0.0
aF2.3088999670290553
aF0.0
aF0.0
aF0.8047190348600378
aF0.0
aF0.0
aF1.2689302338462336
aF0.0
aF0.0
aF0.095122770614751
atp174
a(g1
(lp175
F0.0
aF5.042173786912014
aF0.0
aF4.7784422140374065
aF0.0
aF3.774116395363265
aF0.0
aF1.68643269919545
aF0.0
aF0.0
aF4.073401076049129
aF0.0
aF0.0
aF1.9774860784214883
aF0.0
aF0.0
aF2.04130993981385
aF0.0
aF0.0
aF0.4078246784286098
atp176
a(g1
(lp177
F0.0
aF4.9547703781137145
aF0.0
aF4.707415696645073
aF0.0
aF3.7690632135067057
aF0.0
aF1.7918085383314448
aF0.0
aF0.0
aF4.0475506413372395
aF0.0
aF0.0
aF1.797761906095611
aF0.0
aF0.0
aF2.2075764727104974
aF0.0
aF0.0
aF0.338285094768919
atp178
a(g1
(lp179
F0.0
aF4.638825292247875
aF0.0
aF4.337979802445838
aF0.0
aF3.200690148183759
aF0.0
aF0.8819942779486051
aF0.0
aF0.0
aF3.466811732590971
aF0.0
aF0.0
aF0.8870230816931264
aF0.0
aF0.0
aF2.035459896055228
aF0.0
aF0.0
aF0.04120980844398597
atp180
a(g1
(lp181
F0.0
aF4.213054056894146
aF0.0
aF3.9665071883471845
aF0.0
aF3.0432956742071635
aF0.0
aF1.1488665464325127
aF0.0
aF0.0
aF2.548730698154279
aF0.0
aF0.0
aF0.9051968042997587
aF0.0
aF0.0
aF1.3587292258103314
aF0.0
aF0.0
aF0.10510811478802072
atp182
a(g1
(lp183
F0.0
aF4.945581641118766
aF0.0
aF4.6856143429323085
aF0.0
aF3.694494619788564
aF0.0
aF1.4814012565866037
aF0.0
aF0.0
aF4.623431045356376
aF0.0
aF0.0
aF1.6318422101556727
aF0.0
aF0.0
aF2.5321731309831135
aF0.0
aF0.0
aF0.21153625618584926
atp184
a(g1
(lp185
F0.0
aF3.6877763796948617
aF0.0
aF3.467711694838063
aF0.0
aF2.6462368167456005
aF0.0
aF0.968526944918872
aF0.0
aF0.0
aF2.083149144110513
aF0.0
aF0.0
aF0.6896696071762415
aF0.0
aF0.0
aF1.163074076992072
aF0.0
aF0.0
aF0.08860877743783933
atp186
a(g1
(lp187
F0.0
aF4.789260875938432
aF0.0
aF4.516177544283291
aF0.0
aF3.4798109896820875
aF0.0
aF1.246440200786952
aF0.0
aF0.0
aF3.9207469404051127
aF0.0
aF0.0
aF1.276404410468315
aF0.0
aF0.0
aF2.219350614408941
aF0.0
aF0.0
aF0.16909731946417614
atp188
a(g1
(lp189
F0.0
aF3.7358300096075867
aF0.0
aF3.5321357434484972
aF0.0
aF2.7611851695053313
aF0.0
aF1.0828114125095258
aF0.0
aF0.0
aF2.294316861146644
aF0.0
aF0.0
aF0.8949343721188125
aF0.0
aF0.0
aF1.2203049657537441
aF0.0
aF0.0
aF0.14182177824517403
atp190
a(g1
(lp191
F0.0
aF5.322126850743377
aF0.0
aF5.073847587102879
aF0.0
aF4.125172058611372
aF0.0
aF1.978604287321083
aF0.0
aF0.0
aF5.029765568162013
aF0.0
aF0.0
aF2.6215554760518662
aF0.0
aF0.0
aF2.213636297649827
aF0.0
aF0.0
aF0.48519140630281715
atp192
a(g1
(lp193
F0.0
aF4.764413546853273
aF0.0
aF4.506670175992636
aF0.0
aF3.522197762452412
aF0.0
aF1.3558691890355588
aF0.0
aF0.0
aF3.3561084129668246
aF0.0
aF0.0
aF1.2492677759607687
aF0.0
aF0.0
aF1.7946950544323106
aF0.0
aF0.0
aF0.20706970131853683
atp194
a(g1
(lp195
F0.0
aF5.335874203801458
aF0.0
aF5.070789739513361
aF0.0
aF4.056784388847202
aF0.0
aF1.8066200524030978
aF0.0
aF0.0
aF5.151615939611739
aF0.0
aF0.0
aF2.1556337176702978
aF0.0
aF0.0
aF2.5792695524523785
aF0.0
aF0.0
aF0.36168351376084795
atp196
a(g1
(lp197
F0.0
aF4.635842428150088
aF0.0
aF4.395699184247389
aF0.0
aF3.4833350967581462
aF0.0
aF1.4734832268482352
aF0.0
aF0.0
aF3.4430670581433276
aF0.0
aF0.0
aF1.4044785410087524
aF0.0
aF0.0
aF1.7643302948071231
aF0.0
aF0.0
aF0.23747223709243054
atp198
a(g1
(lp199
F0.0
aF5.306268960468537
aF0.0
aF5.007993501442198
aF0.0
aF3.8652370742349245
aF0.0
aF1.3653526719718672
aF0.0
aF0.0
aF4.719606592623361
aF0.0
aF0.0
aF1.5462093245148638
aF0.0
aF0.0
aF2.5920117167765326
aF0.0
aF0.0
aF0.1916005786482764
atp200
a(g1
(lp201
F0.0
aF4.850421597990476
aF0.0
aF4.564074857724908
aF0.0
aF3.471862167941623
aF0.0
aF1.1468554392246655
aF0.0
aF0.0
aF3.622330488814691
aF0.0
aF0.0
aF1.1327887909837395
aF0.0
aF0.0
aF2.053631239552503
aF0.0
aF0.0
aF0.1446822145902496
atp202
a(g1
(lp203
F0.0
aF4.880632368245584
aF0.0
aF4.618525615278571
aF0.0
aF3.6134976712467077
aF0.0
aF1.3614967651239482
aF0.0
aF0.0
aF3.7832674208182673
aF0.0
aF0.0
aF1.5830810366690011
aF0.0
aF0.0
aF1.7814660520606347
aF0.0
aF0.0
aF0.19342290965769388
atp204
a(g1
(lp205
F0.0
aF4.335096632159584
aF0.0
aF4.078936809193499
aF0.0
aF3.1023123315941827
aF0.0
aF1.0267712905460131
aF0.0
aF0.0
aF3.007142658647465
aF0.0
aF0.0
aF0.9803399104646011
aF0.0
aF0.0
aF1.6563983981839296
aF0.0
aF0.0
aF0.10663098896787912
atp206
a(g1
(lp207
F0.0
aF5.067576324976435
aF0.0
aF4.781033020767124
aF0.0
aF3.6864178867095165
aF0.0
aF1.2950281949310785
aF0.0
aF0.0
aF4.095714393083052
aF0.0
aF0.0
aF1.4233755436148599
aF0.0
aF0.0
aF2.143667488285781
aF0.0
aF0.0
aF0.16114472078032563
atp208
a(g1
(lp209
F0.0
aF5.221036296171132
aF0.0
aF4.965207776816823
aF0.0
aF3.9887661014850426
aF0.0
aF1.810429188468388
aF0.0
aF0.0
aF4.619329342130041
aF0.0
aF0.0
aF2.2166482927583893
aF0.0
aF0.0
aF2.110664467443854
aF0.0
aF0.0
aF0.4133444584775876
atp210
a(g1
(lp211
F0.0
aF4.65664345465913
aF0.0
aF4.386203564900921
aF0.0
aF3.356964863476018
aF0.0
aF1.1515304145373555
aF0.0
aF0.0
aF3.394596810583179
aF0.0
aF0.0
aF1.2105549535894446
aF0.0
aF0.0
aF1.7872155372968714
aF0.0
aF0.0
aF0.16223640304891299
atp212
a(g1
(lp213
F0.0
aF4.460459949505258
aF0.0
aF4.190054047382379
aF0.0
aF3.170302517520174
aF0.0
aF1.0713168450118613
aF0.0
aF0.0
aF3.3734517723715225
aF0.0
aF0.0
aF1.0405294156927538
aF0.0
aF0.0
aF1.8527599778631
aF0.0
aF0.0
aF0.09272211993487085
atp214
a(g1
(lp215
F0.0
aF4.605160135692401
aF0.0
aF4.333901891951239
aF0.0
aF3.3028991642404266
aF0.0
aF1.1100871262497956
aF0.0
aF0.0
aF3.26595667003819
aF0.0
aF0.0
aF1.0561023791942168
aF0.0
aF0.0
aF1.7672549049634028
aF0.0
aF0.0
aF0.12753381798142818
atp216
a(g1
(lp217
F0.0
aF3.9604820185533156
aF0.0
aF3.6729011102670395
aF0.0
aF2.6040458366021606
aF0.0
aF0.5896229495135883
aF0.0
aF0.0
aF2.365342254687535
aF0.0
aF0.0
aF0.5110913728670852
aF0.0
aF0.0
aF1.4574066205310696
aF0.0
aF0.0
aF0.013696213014606953
atp218
a(g1
(lp219
F0.0
aF4.7523683213418595
aF0.0
aF4.46988764697713
aF0.0
aF3.4004665224055763
aF0.0
aF1.1428927045881712
aF0.0
aF0.0
aF3.2660781577635913
aF0.0
aF0.0
aF1.2162304325654538
aF0.0
aF0.0
aF1.8254479640892751
aF0.0
aF0.0
aF0.13791629104678044
atp220
a(g1
(lp221
F0.0
aF4.4191714591846685
aF0.0
aF4.16352030182203
aF0.0
aF3.2047758362132064
aF0.0
aF1.34790403857535
aF0.0
aF0.0
aF2.7816320615854506
aF0.0
aF0.0
aF1.2694057291117904
aF0.0
aF0.0
aF1.5507475477213848
aF0.0
aF0.0
aF0.39179212307732786
atp222
a(g1
(lp223
F0.0
aF4.7052940456230985
aF0.0
aF4.42481834597976
aF0.0
aF3.3591894028594353
aF0.0
aF1.1144041201789217
aF0.0
aF0.0
aF3.4539107074470414
aF0.0
aF0.0
aF1.1278789087478682
aF0.0
aF0.0
aF1.838264267649336
aF0.0
aF0.0
aF0.09792976790224958
atp224
a(g1
(lp225
F0.0
aF4.716665601688693
aF0.0
aF4.455459669954568
aF0.0
aF3.4619930656415807
aF0.0
aF1.3147334661539807
aF0.0
aF0.0
aF3.281750672600067
aF0.0
aF0.0
aF1.3604165980086473
aF0.0
aF0.0
aF1.5768681002204095
aF0.0
aF0.0
aF0.19271168478307332
atp226
a(g1
(lp227
F0.0
aF4.5346368581254035
aF0.0
aF4.279120969160399
aF0.0
aF3.3211456010672724
aF0.0
aF1.4479753894986063
aF0.0
aF0.0
aF2.620476827792442
aF0.0
aF0.0
aF1.4820706682502651
aF0.0
aF0.0
aF1.2941624769916567
aF0.0
aF0.0
aF0.3880004825111586
atp228
a(g1
(lp229
F0.0
aF4.462826862144103
aF0.0
aF4.201755702574069
aF0.0
aF3.2265635033015174
aF0.0
aF1.3122376350525082
aF0.0
aF0.0
aF2.8866764910928504
aF0.0
aF0.0
aF1.1631443826054497
aF0.0
aF0.0
aF1.5499697623247397
aF0.0
aF0.0
aF0.23657691032119543
atp230
a(g1
(lp231
F0.0
aF4.8501526177629
aF0.0
aF4.590919457459104
aF0.0
aF3.6006086193721987
aF0.0
aF1.3888544363690234
aF0.0
aF0.0
aF4.1230168467593655
aF0.0
aF0.0
aF1.5551195352271978
aF0.0
aF0.0
aF2.0452786288340974
aF0.0
aF0.0
aF0.2044234707392195
atp232
a(g1
(lp233
F0.0
aF3.969328465439565
aF0.0
aF3.72369885506054
aF0.0
aF2.7988670684060866
aF0.0
aF0.8779559749731688
aF0.0
aF0.0
aF2.605856903909975
aF0.0
aF0.0
aF0.7718499404015109
aF0.0
aF0.0
aF1.465955571255873
aF0.0
aF0.0
aF0.048584979706283955
atp234
a(g1
(lp235
F0.0
aF4.878084710688721
aF0.0
aF4.632159115887381
aF0.0
aF3.688070510316144
aF0.0
aF1.517081106367019
aF0.0
aF0.0
aF4.231750166338002
aF0.0
aF0.0
aF1.81943362195068
aF0.0
aF0.0
aF1.9312902175931508
aF0.0
aF0.0
aF0.2357363106220237
atp236
a(g1
(lp237
F0.0
aF4.485248619213529
aF0.0
aF4.254723322362221
aF0.0
aF3.3739135911338205
aF0.0
aF1.398121169331283
aF0.0
aF0.0
aF3.3683071268635
aF0.0
aF0.0
aF1.4671048327390415
aF0.0
aF0.0
aF1.6008431462046997
aF0.0
aF0.0
aF0.17473368174222656
atp238
a(g1
(lp239
F0.0
aF4.867265667341992
aF0.0
aF4.577021153971536
aF0.0
aF3.4779073862208203
aF0.0
aF1.1587375012792258
aF0.0
aF0.0
aF3.9550137211530587
aF0.0
aF0.0
aF1.2245248193202485
aF0.0
aF0.0
aF2.1369351369133986
aF0.0
aF0.0
aF0.08849915076620286
atp240
a(g1
(lp241
F0.0
aF4.828419737236056
aF0.0
aF4.575075007160276
aF0.0
aF3.599569482521446
aF0.0
aF1.3924902623457545
aF0.0
aF0.0
aF3.8450460423819757
aF0.0
aF0.0
aF1.3785794551371344
aF0.0
aF0.0
aF2.076883052298438
aF0.0
aF0.0
aF0.18599255290094907
atp242
a(g1
(lp243
F0.0
aF5.131514231957194
aF0.0
aF4.885923765554434
aF0.0
aF3.9300676942757797
aF0.0
aF1.666987287906697
aF0.0
aF0.0
aF4.504334708679061
aF0.0
aF0.0
aF2.1487351561945847
aF0.0
aF0.0
aF1.9748624318805115
aF0.0
aF0.0
aF0.3527622066369987
atp244
a(g1
(lp245
F0.0
aF4.937533614647824
aF0.0
aF4.666855960388839
aF0.0
aF3.621023637336171
aF0.0
aF1.2675806154447216
aF0.0
aF0.0
aF3.9380838440353605
aF0.0
aF0.0
aF1.2618027699333048
aF0.0
aF0.0
aF2.144805909072651
aF0.0
aF0.0
aF0.1388636516483065
atp246
a(g1
(lp247
F0.0
aF4.863159152178557
aF0.0
aF4.587863405282859
aF0.0
aF3.533604479296638
aF0.0
aF1.213609199702579
aF0.0
aF0.0
aF4.042827940010893
aF0.0
aF0.0
aF1.2618217596952401
aF0.0
aF0.0
aF2.2715727339627247
aF0.0
aF0.0
aF0.14375894218626872
atp248
a(g1
(lp249
F0.0
aF4.165666624877139
aF0.0
aF3.933249241809279
aF0.0
aF3.058576900443266
aF0.0
aF1.190899705192097
aF0.0
aF0.0
aF2.89937300867246
aF0.0
aF0.0
aF1.029328935347489
aF0.0
aF0.0
aF1.535024161212425
aF0.0
aF0.0
aF0.12874405315052176
atp250
a(g1
(lp251
F0.0
aF4.9306443797139075
aF0.0
aF4.6685577615646805
aF0.0
aF3.6659776486298705
aF0.0
aF1.4143070109840474
aF0.0
aF0.0
aF4.239573220179596
aF0.0
aF0.0
aF1.6830391491354704
aF0.0
aF0.0
aF2.3420478813015633
aF0.0
aF0.0
aF0.1930351973010542
atp252
a(g1
(lp253
F0.0
aF3.6731784697471808
aF0.0
aF3.44085420328351
aF0.0
aF2.5736096616121653
aF0.0
aF0.8387787447910866
aF0.0
aF0.0
aF2.132608905113149
aF0.0
aF0.0
aF0.5945518603802463
aF0.0
aF0.0
aF1.3106706671794548
aF0.0
aF0.0
aF0.06452581460757277
atp254
a(g1
(lp255
F0.0
aF4.91931438164261
aF0.0
aF4.629551970340404
aF0.0
aF3.528762258526385
aF0.0
aF1.2085642502714282
aF0.0
aF0.0
aF4.066977886583228
aF0.0
aF0.0
aF1.2688109746744587
aF0.0
aF0.0
aF2.1798446037575205
aF0.0
aF0.0
aF0.09494665402609377
atp256
a(g1
(lp257
F0.0
aF4.969763050072803
aF0.0
aF4.680125014527877
aF0.0
aF3.570793266883914
aF0.0
aF1.1674476786023533
aF0.0
aF0.0
aF3.905544831828948
aF0.0
aF0.0
aF1.0979567702381412
aF0.0
aF0.0
aF2.326927570476543
aF0.0
aF0.0
aF0.11105414386504178
atp258
a(g1
(lp259
F0.0
aF5.14103256922657
aF0.0
aF4.868688554108722
aF0.0
aF3.8313800243816454
aF0.0
aF1.6757276172250866
aF0.0
aF0.0
aF4.0915002646348455
aF0.0
aF0.0
aF1.9029426279980892
aF0.0
aF0.0
aF2.064671713682933
aF0.0
aF0.0
aF0.4171389850233706
atp260
a(g1
(lp261
F0.0
aF5.085922322211243
aF0.0
aF4.835896002806828
aF0.0
aF3.8849312374477796
aF0.0
aF1.8382612846966895
aF0.0
aF0.0
aF4.11125129134438
aF0.0
aF0.0
aF2.04207540728566
aF0.0
aF0.0
aF2.127431609976883
aF0.0
aF0.0
aF0.5770580883063029
atp262
a.