(lp0
(VPt
p1
(lp2
F0.0
aF5.035395421987998
aF0.0
aF4.758271542332636
aF0.0
aF3.7023762043666077
aF0.0
aF1.3885679046827464
aF0.0
aF0.0
aF3.7909727212973965
aF0.0
aF0.0
aF1.344918969949303
aF0.0
aF0.0
aF2.0650853236704907
aF0.0
aF0.0
aF0.20356090180382025
atp3
a(g1
(lp4
F0.0
aF4.6119650195766475
aF0.0
aF4.3485835121269885
aF0.0
aF3.3676365931790215
aF0.0
aF1.438303800307726
aF0.0
aF0.0
aF2.8321900619244977
aF0.0
aF0.0
aF1.529015870599176
aF0.0
aF0.0
aF1.477522916289816
aF0.0
aF0.0
aF0.5046660231382089
atp5
a(g1
(lp6
F0.0
aF5.369857589811968
aF0.0
aF5.0882548005405575
aF0.0
aF4.001683608919611
aF0.0
aF1.5211545708037522
aF0.0
aF0.0
aF4.602605939027908
aF0.0
aF0.0
aF1.6343826819307612
aF0.0
aF0.0
aF2.492200097122711
aF0.0
aF0.0
aF0.25648864955168343
atp7
a(g1
(lp8
F0.0
aF5.355682885777821
aF0.0
aF5.091512686903043
aF0.0
aF4.071813475198341
aF0.0
aF1.740637757840679
aF0.0
aF0.0
aF4.959982252148808
aF0.0
aF0.0
aF2.2575050662683216
aF0.0
aF0.0
aF2.2335851527675636
aF0.0
aF0.0
aF0.34245180304938905
atp9
a(g1
(lp10
F0.0
aF4.0041319426607425
aF0.0
aF3.7914034084940225
aF0.0
aF3.002001611628447
aF0.0
aF1.4415618857097525
aF0.0
aF0.0
aF2.368271815168735
aF0.0
aF0.0
aF1.1309237901274283
aF0.0
aF0.0
aF1.2538445608297315
aF0.0
aF0.0
aF0.21780705020650357
atp11
a(g1
(lp12
F0.0
aF4.8532420687496485
aF0.0
aF4.596242807044649
aF0.0
aF3.6127862120494085
aF0.0
aF1.4915536260309001
aF0.0
aF0.0
aF3.4428934393824893
aF0.0
aF0.0
aF1.5567046169372183
aF0.0
aF0.0
aF2.015076625351965
aF0.0
aF0.0
aF0.44359725777641085
atp13
a(g1
(lp14
F0.0
aF3.881104026392855
aF0.0
aF3.66450575357145
aF0.0
aF2.8587725441586818
aF0.0
aF1.2095193701333407
aF0.0
aF0.0
aF2.591626956948969
aF0.0
aF0.0
aF0.8357840854309458
aF0.0
aF0.0
aF1.4698450574378363
aF0.0
aF0.0
aF0.08129876031635148
atp15
a(g1
(lp16
F0.0
aF4.893275098521168
aF0.0
aF4.610389043136431
aF0.0
aF3.5323978351163543
aF0.0
aF1.1921303720926952
aF0.0
aF0.0
aF4.33888560233728
aF0.0
aF0.0
aF1.294263148119692
aF0.0
aF0.0
aF2.4464691291677436
aF0.0
aF0.0
aF0.0964678052069059
atp17
a(g1
(lp18
F0.0
aF5.413247107717607
aF0.0
aF5.1364709594862585
aF0.0
aF4.070847961138937
aF0.0
aF1.6244147326481337
aF0.0
aF0.0
aF4.566630916420082
aF0.0
aF0.0
aF1.8319548478073353
aF0.0
aF0.0
aF2.3833934301374855
aF0.0
aF0.0
aF0.34042661208184455
atp19
a(g1
(lp20
F0.0
aF4.54131359565344
aF0.0
aF4.283369254413397
aF0.0
aF3.31194457750541
aF0.0
aF1.2754091041047038
aF0.0
aF0.0
aF4.135151136143256
aF0.0
aF0.0
aF1.254310730780693
aF0.0
aF0.0
aF2.248979442687962
aF0.0
aF0.0
aF0.11123705150877393
atp21
a(g1
(lp22
F0.012451186476253269
aF5.179172464125613
aF0.010646823524326979
aF4.9153693850183675
aF0.0051479612069476625
aF3.8977529783995215
aF0.0001765307752772602
aF1.5680551085500258
aF0.0
aF0.012181021003102652
aF4.087699636824899
aF0.0
aF0.0011590635570571288
aF1.6811787890170569
aF0.0
aF0.009568663530818729
aF2.118247776983671
aF0.0
aF7.559246015795493e-06
aF0.3384162096598303
atp23
a(g1
(lp24
F0.0
aF3.608941452217755
aF0.0
aF3.345375021721872
aF0.0
aF2.3707578378874645
aF0.0
aF0.5453361857742708
aF0.0
aF0.0
aF2.3362916743530806
aF0.0
aF0.0
aF0.45654944249466034
aF0.0
aF0.0
aF1.49174680861537
aF0.0
aF0.0
aF0.012918800236400591
atp25
a(g1
(lp26
F0.0
aF4.22234724045507
aF0.0
aF4.007344930480035
aF0.0
aF3.1862006466788615
aF0.0
aF1.3369304289226993
aF0.0
aF0.0
aF3.4161753177243717
aF0.0
aF0.0
aF1.0562955908169778
aF0.0
aF0.0
aF2.140827408591076
aF0.0
aF0.0
aF0.18065213419913484
atp27
a(g1
(lp28
F0.0
aF5.274400514805643
aF0.0
aF5.034703314804392
aF0.0
aF4.105297008177444
aF0.0
aF1.863760162999683
aF0.0
aF0.0
aF4.849396953795853
aF0.0
aF0.0
aF2.5669842706405532
aF0.0
aF0.0
aF2.076864340134139
aF0.0
aF0.0
aF0.4573030468232514
atp29
a(g1
(lp30
F0.0
aF4.307093239002941
aF0.0
aF4.101836331785237
aF0.0
aF3.33302398369607
aF0.0
aF1.6858111213358167
aF0.0
aF0.0
aF3.462852207254708
aF0.0
aF0.0
aF1.5438377591717765
aF0.0
aF0.0
aF1.6944807133766362
aF0.0
aF0.0
aF0.26387353076281933
atp31
a(g1
(lp32
F0.019699777857933205
aF4.4840630826341865
aF0.016951127335883512
aF4.214750342026657
aF0.008438704294784077
aF3.1960664393758207
aF0.0003313085179423225
aF1.0658533873816383
aF0.0
aF0.01125614282251512
aF3.6724709593538853
aF0.0
aF0.0011707655835755568
aF0.9823367214598042
aF0.0
aF0.008520010757268947
aF2.197827248259228
aF0.0
aF7.26747683803119e-06
aF0.09483697049935537
atp33
a(g1
(lp34
F0.0
aF4.576077122527296
aF0.0
aF4.286937765417345
aF0.0
aF3.20104647687096
aF0.0
aF1.0037287455032247
aF0.0
aF0.0
aF2.803768065836228
aF0.0
aF0.0
aF0.89579494022732
aF0.0
aF0.0
aF1.5552553619028213
aF0.0
aF0.0
aF0.10205671619210026
atp35
a(g1
(lp36
F0.0
aF4.097050612484303
aF0.0
aF3.8444498604506965
aF0.0
aF2.9025363733616336
aF0.0
aF1.0744881219099214
aF0.0
aF0.0
aF2.0069311753790235
aF0.0
aF0.0
aF0.8354878095080531
aF0.0
aF0.0
aF1.0641042108833718
aF0.0
aF0.0
aF0.18431055716506087
atp37
a(g1
(lp38
F0.0
aF4.461698670231406
aF0.0
aF4.213440555188135
aF0.0
aF3.2688698353831898
aF0.0
aF1.1992056159564548
aF0.0
aF0.0
aF2.956610704367603
aF0.0
aF0.0
aF1.1245096807172048
aF0.0
aF0.0
aF1.5299555739485002
aF0.0
aF0.0
aF0.17601512208691303
atp39
a(g1
(lp40
F0.0
aF4.227113773737628
aF0.0
aF3.9659026730717093
aF0.0
aF2.9735599668327426
aF0.0
aF0.8933244712050369
aF0.0
aF0.0
aF2.803387412372008
aF0.0
aF0.0
aF0.8149974305191865
aF0.0
aF0.0
aF1.578286243503458
aF0.0
aF0.0
aF0.056122411204955196
atp41
a(g1
(lp42
F0.0
aF3.7814284517006818
aF0.0
aF3.566675984271762
aF0.0
aF2.7784304774070665
aF0.0
aF1.3514781596283985
aF0.0
aF0.0
aF2.4748457893147355
aF0.0
aF0.0
aF0.6931723805558516
aF0.0
aF0.0
aF1.4709884921309884
aF0.0
aF0.0
aF0.057892607124808315
atp43
a(g1
(lp44
F0.0
aF4.455769899283993
aF0.0
aF4.214908673313263
aF0.0
aF3.3021621099657628
aF0.0
aF1.4502390169752413
aF0.0
aF0.0
aF3.036490898501942
aF0.0
aF0.0
aF1.2185806723629984
aF0.0
aF0.0
aF1.840268699993018
aF0.0
aF0.0
aF0.3188432343563997
atp45
a(g1
(lp46
F0.0
aF4.57366906867034
aF0.0
aF4.295745403765031
aF0.0
aF3.24563679860675
aF0.0
aF1.0587063242182198
aF0.0
aF0.0
aF3.357945585800151
aF0.0
aF0.0
aF0.9860662059279911
aF0.0
aF0.0
aF1.8814158826587386
aF0.0
aF0.0
aF0.07460809049622798
atp47
a(g1
(lp48
F0.0
aF4.242565912682422
aF0.0
aF3.966928318954428
aF0.0
aF2.926779406374947
aF0.0
aF0.8050668535206149
aF0.0
aF0.0
aF2.667248967182873
aF0.0
aF0.0
aF0.7148889860215866
aF0.0
aF0.0
aF1.5259378568244795
aF0.0
aF0.0
aF0.03293350550069444
atp49
a(g1
(lp50
F0.0
aF4.9866385567533875
aF0.0
aF4.714812103263836
aF0.0
aF3.684018203964023
aF0.0
aF1.439900672056008
aF0.0
aF0.0
aF4.153225282140272
aF0.0
aF0.0
aF1.5606079752312478
aF0.0
aF0.0
aF2.1467616853696194
aF0.0
aF0.0
aF0.23967628232186636
atp51
a(g1
(lp52
F0.0
aF4.303566917516442
aF0.0
aF4.041266206030103
aF0.0
aF3.05335605417674
aF0.0
aF1.023063103743309
aF0.0
aF0.0
aF2.6471061356640795
aF0.0
aF0.0
aF0.9054432650452798
aF0.0
aF0.0
aF1.4477756447631052
aF0.0
aF0.0
aF0.1487148567960413
atp53
a(g1
(lp54
F0.0
aF4.994011864910344
aF0.0
aF4.760707117812766
aF0.0
aF3.8558509250751025
aF0.0
aF1.6904742759174949
aF0.0
aF0.0
aF4.487174536816292
aF0.0
aF0.0
aF2.1561676092080626
aF0.0
aF0.0
aF1.9185652864926195
aF0.0
aF0.0
aF0.29555033108711154
atp55
a(g1
(lp56
F0.0
aF4.041148871570058
aF0.0
aF3.78032636406119
aF0.0
aF2.802511797216765
aF0.0
aF0.848871883587987
aF0.0
aF0.0
aF2.3057762441824936
aF0.0
aF0.0
aF0.6718028969431286
aF0.0
aF0.0
aF1.3445107092721038
aF0.0
aF0.0
aF0.07185094756059776
atp57
a(g1
(lp58
F0.0
aF4.604992566446118
aF0.0
aF4.35386202045335
aF0.0
aF3.3906212966325056
aF0.0
aF1.2471550131622968
aF0.0
aF0.0
aF3.8801590827185777
aF0.0
aF0.0
aF1.249671539210456
aF0.0
aF0.0
aF2.1398530234914688
aF0.0
aF0.0
aF0.12579986298143414
atp59
a(g1
(lp60
F0.0
aF4.953488545011215
aF0.0
aF4.682052936690251
aF0.0
aF3.642900271168798
aF0.0
aF1.3537748528267564
aF0.0
aF0.0
aF3.7371151942102583
aF0.0
aF0.0
aF1.4343583381905962
aF0.0
aF0.0
aF1.8729643803950553
aF0.0
aF0.0
aF0.17236546052491675
atp61
a(g1
(lp62
F0.0036972603048272463
aF4.825098745195013
aF0.003125709147853392
aF4.554962364628658
aF0.0014336089167698888
aF3.5284414777603588
aF3.847422913663646e-05
aF1.320816544398215
aF0.0
aF0.002209814507273997
aF4.054480569534486
aF0.0
aF0.0002004564751803121
aF1.3434537625518728
aF0.0
aF0.0017140177542402605
aF2.157046589988741
aF0.0
aF3.565450312531161e-07
aF0.14435462368994312
atp63
a(g1
(lp64
F0.0
aF4.914245277505502
aF0.0
aF4.672008813798567
aF0.0
aF3.736212442784222
aF0.0
aF1.5660819769032694
aF0.0
aF0.0
aF4.3942877916933325
aF0.0
aF0.0
aF1.8656869183192974
aF0.0
aF0.0
aF2.099734028569195
aF0.0
aF0.0
aF0.2865222758413276
atp65
a(g1
(lp66
F0.14150020695848772
aF5.318693349620446
aF0.12744632037068268
aF5.034044757224961
aF0.07850210063839466
aF3.9436351129273963
aF0.008383528534065182
aF1.4999925436440646
aF0.0005807555159134488
aF0.24553901520338633
aF4.6267284789324705
aF1.6120739975272952e-05
aF0.04045750824138347
aF1.5909366156616107
aF0.0005349589591360685
aF0.1647091822154135
aF2.582362111703615
aF3.1760474604830725e-10
aF0.0009027266825177868
aF0.2599367470061519
atp67
a(g1
(lp68
F0.4634210280850456
aF5.933543981590032
aF0.4360829118472383
aF5.654573395810257
aF0.33087848185836044
aF4.57139184797901
aF0.0987605804297428
aF2.0203195667197944
aF0.02504125784447603
aF1.130406858786061
aF5.923025418430743
aF0.0002294568170031792
aF0.3896497034790227
aF2.960813478760981
aF0.024365312632608487
aF0.5515119970107095
aF2.784883613976115
aF1.7177157078465245e-10
aF0.02595722924063912
aF0.5662678911241832
atp69
a(g1
(lp70
F0.09302662446643835
aF5.659233495305069
aF0.08280843089940157
aF5.361827103646323
aF0.04825279854177447
aF4.2135460427010205
aF0.00393394545999569
aF1.6020548979887976
aF0.0
aF0.16729012856415165
aF5.334701339674851
aF0.0
aF0.021412881144447986
aF1.8325498144961163
aF0.0
aF0.12432103911359182
aF3.000435613973239
aF0.0
aF0.00028248678948473787
aF0.31114411616660126
atp71
a(g1
(lp72
F0.05011137271774988
aF4.316438262500719
aF0.04388552338857752
aF4.059229552028787
aF0.02370806233823807
aF3.0797059395270914
aF0.001360248130191472
aF0.9953621157595858
aF0.0
aF0.11788875280567232
aF4.224637461194228
aF0.0
aF0.011150131926606318
aF1.0820722161444705
aF0.0
aF0.09237499735697219
aF2.4841468169761756
aF0.0
aF5.107355921273499e-05
aF0.07728928725842582
atp73
a(g1
(lp74
F0.0
aF5.139503215562576
aF0.0
aF4.86528063689017
aF0.0
aF3.825427827673829
aF0.0
aF1.596889533066428
aF0.0
aF0.0
aF4.129399785661612
aF0.0
aF0.0
aF1.5011674382397733
aF0.0
aF0.0
aF2.255121962096746
aF0.0
aF0.0
aF0.1969251353160872
atp75
a(g1
(lp76
F0.5306484546592067
aF5.1971038806914605
aF0.497638436150595
aF4.924283794932721
aF0.37190237059584075
aF3.879184023975785
aF0.1064575175980278
aF1.5445717277853337
aF0.062356493231727574
aF0.789174693989446
aF4.6814900007770825
aF0.0022523716430166416
aF0.2890695298520361
aF1.7066990904866743
aF0.05605965254441915
aF0.3890217064109041
aF2.5025669348884048
aF9.54297687258204e-08
aF0.023536801010292586
aF0.24151031648781013
atp77
a(g1
(lp78
F0.010633078469307913
aF3.7144451609831437
aF0.009054344832694704
aF3.485817263553879
aF0.004295059372207129
aF2.630103633546213
aF0.00013539802904482656
aF0.8910926613176264
aF1.3314777864344978e-05
aF0.00015747877176164224
aF2.5125451884179193
aF4.565359479209992e-07
aF2.9243376624465665e-05
aF0.5962183333659778
aF1.2033988075255078e-05
aF9.727922250818289e-05
aF1.5771635644317117
aF1.663312283596974e-11
aF2.3635714094228763e-07
aF0.03343600407738799
atp79
a(g1
(lp80
F0.8408132150382696
aF5.697846443074389
aF0.8046631273123288
aF5.448984952605737
aF0.6612855227458767
aF4.477792009170947
aF0.2997993953784081
aF2.0991944875090938
aF0.185850768626842
aF1.2130483099014857
aF6.318082659097503
aF0.006390433597320101
aF1.0072051339852337
aF3.1431930562802357
aF0.16792603160164396
aF0.3624471808593693
aF2.965153402510484
aF2.3473718091568561e-07
aF0.24104054868638597
aF0.6322139009517437
atp81
a(VCu
p82
(lp83
F0.7202252279056094
aF3.400002349555558
aF0.7041907531686142
aF3.2240157820914774
aF0.6343147466916655
aF2.543882352421745
aF0.3905205858379356
aF0.9946476378353751
aF0.0
aF0.05921345834804687
aF3.9134403841171865
aF0.0
aF0.4735997047391294
aF0.8341000087311551
aF0.0
aF0.00030620191973307597
aF2.371505223424768
aF0.0
aF0.3453614160033863
aF0.017447891235896316
atp84
a(g82
(lp85
F0.7202252279056094
aF0.6345420629192701
aF0.7041907531686142
aF0.5718678649751181
aF0.6343147466916655
aF0.354787581014965
aF0.3905205858379356
aF0.04242068739559901
aF0.0
aF0.5127329294929611
aF0.1606816212652728
aF0.0
aF0.020080233594215104
aF0.013423593710510946
aF0.0
aF0.4593375961866176
aF0.12744004791101113
aF0.0
aF7.246753304028993e-06
aF1.872015633539854e-05
atp86
a(g1
(lp87
F0.0
aF5.413219659947517
aF0.0
aF5.122051534343495
aF0.0
aF4.005932306158288
aF0.0
aF1.5208130758969887
aF0.0
aF0.0
aF4.519685216325051
aF0.0
aF0.0
aF1.6173789246437176
aF0.0
aF0.0
aF2.466689837255967
aF0.0
aF0.0
aF0.26566862809312264
atp88
a(g1
(lp89
F0.0
aF4.1571401688163965
aF0.0
aF3.873984101388196
aF0.0
aF2.820940141081956
aF0.0
aF0.7878181747408874
aF0.0
aF0.0
aF2.9957579366232774
aF0.0
aF0.0
aF0.7018749162542129
aF0.0
aF0.0
aF1.811342356947651
aF0.0
aF0.0
aF0.026422767006686207
atp90
a(g1
(lp91
F0.0
aF5.203937014630904
aF0.0
aF4.924025640870006
aF0.0
aF3.8453316095754118
aF0.0
aF1.4113087522547372
aF0.0
aF0.0
aF4.034902331640984
aF0.0
aF0.0
aF1.4321391160609094
aF0.0
aF0.0
aF2.2606630722825036
aF0.0
aF0.0
aF0.21171213030485417
atp92
a(g1
(lp93
F0.0
aF4.041788256977552
aF0.0
aF3.7967094244062936
aF0.0
aF2.889400893337359
aF0.0
aF1.2032646417916733
aF0.0
aF0.0
aF2.6004322609149386
aF0.0
aF0.0
aF0.8086794853770733
aF0.0
aF0.0
aF1.5422331881384679
aF0.0
aF0.0
aF0.10606974415290536
atp94
a(g1
(lp95
F0.0
aF4.759446595851541
aF0.0
aF4.4784685322338715
aF0.0
aF3.417640051284366
aF0.0
aF1.1821262119648053
aF0.0
aF0.0
aF3.433340535176162
aF0.0
aF0.0
aF0.9711972886410719
aF0.0
aF0.0
aF2.0973859796806043
aF0.0
aF0.0
aF0.12634549578046614
atp96
a(g1
(lp97
F0.3485480424458558
aF5.810663463539683
aF0.3227138297035604
aF5.536840370169779
aF0.22692924745704676
aF4.474871639958792
aF0.04749256196814223
aF1.9702367809599366
aF0.01728052741627508
aF0.747688981702594
aF5.804217152694634
aF0.00048369149952811013
aF0.16299242472520734
aF2.8096438516227296
aF0.015907049185620296
aF0.4656492242130757
aF2.813308924510339
aF9.764173117663811e-09
aF0.006590130597924559
aF0.5279278761767435
atp98
a(g1
(lp99
F0.0
aF3.7126074498735617
aF0.0
aF3.514246029854604
aF0.0
aF2.781496659490625
aF0.0
aF1.351194382124756
aF0.0
aF0.0
aF2.392171940391422
aF0.0
aF0.0
aF0.9006040471303458
aF0.0
aF0.0
aF1.285127315004077
aF0.0
aF0.0
aF0.12173777190979312
atp100
a(g1
(lp101
F0.0
aF4.654298056975334
aF0.0
aF4.380978491073771
aF0.0
aF3.3647797517695217
aF0.0
aF1.37452666539449
aF0.0
aF0.0
aF3.372638734802796
aF0.0
aF0.0
aF1.2936373174618425
aF0.0
aF0.0
aF1.9787027258726377
aF0.0
aF0.0
aF0.2503378555878064
atp102
a(g1
(lp103
F0.0
aF4.718171540157995
aF0.0
aF4.438505640599828
aF0.0
aF3.3819881715411237
aF0.0
aF1.161848193328536
aF0.0
aF0.0
aF3.4708053501723515
aF0.0
aF0.0
aF1.0995174614801768
aF0.0
aF0.0
aF1.94784409198077
aF0.0
aF0.0
aF0.1407482613245965
atp104
a(g1
(lp105
F0.0
aF3.9987430310922396
aF0.0
aF3.7316190621611107
aF0.0
aF2.7332020052011883
aF0.0
aF0.7772068246571961
aF0.0
aF0.0
aF2.337660433108433
aF0.0
aF0.0
aF0.6144337508902047
aF0.0
aF0.0
aF1.378667010741155
aF0.0
aF0.0
aF0.04915728855918339
atp106
a(g1
(lp107
F0.0
aF4.468280598741954
aF0.0
aF4.2006405275428875
aF0.0
aF3.1892785878454126
aF0.0
aF1.0696373698104216
aF0.0
aF0.0
aF2.8113322879127502
aF0.0
aF0.0
aF0.9917136324035228
aF0.0
aF0.0
aF1.5336776153920673
aF0.0
aF0.0
aF0.11793475966510154
atp108
a(g1
(lp109
F0.0
aF4.451035623882298
aF0.0
aF4.210285456045544
aF0.0
aF3.287872970756107
aF0.0
aF1.2615358857504584
aF0.0
aF0.0
aF2.893255127566731
aF0.0
aF0.0
aF1.3627325533102046
aF0.0
aF0.0
aF1.421489015457306
aF0.0
aF0.0
aF0.29792023839647114
atp110
a(g1
(lp111
F0.21028166767817683
aF4.930638973217615
aF0.19263920208954052
aF4.659393225729092
aF0.12828448321125094
aF3.619141609973241
aF0.01947106093768434
aF1.3114450600030727
aF0.0001303544739308196
aF0.3310051709803738
aF4.005009190305327
aF1.8046494340970645e-06
aF0.04699076702255224
aF1.2816352515209133
aF0.00012508704051456362
aF0.22984219149480653
aF2.281181186357655
aF4.59494112302858e-12
aF0.0007230791368869951
aF0.18727931554572588
atp112
a(g1
(lp113
F0.0
aF4.841625611438323
aF0.0
aF4.563721362544355
aF0.0
aF3.5088512678270654
aF0.0
aF1.2694348855783508
aF0.0
aF0.0
aF3.9883665604009435
aF0.0
aF0.0
aF1.2935945049600217
aF0.0
aF0.0
aF2.1175533988026993
aF0.0
aF0.0
aF0.12359222453563022
atp114
a(g1
(lp115
F0.8999139855818233
aF4.652962796154574
aF0.8662639806240948
aF4.4126369842310265
aF0.732357654988741
aF3.491578588494349
aF0.38285550491679493
aF1.406028514841806
aF0.20435082324114762
aF1.1947145115303617
aF4.638648170111302
aF0.0015721624662610937
aF0.9465491666217919
aF1.468058100173786
aF0.19970598801971454
aF0.27899403271955475
aF2.579706769582101
aF6.996409413198385e-10
aF0.1325683913471027
aF0.16822877575578482
atp116
a(g1
(lp117
F0.0
aF4.224965618368996
aF0.0
aF4.00018541778021
aF0.0
aF3.1445376228851547
aF0.0
aF1.3104860074184363
aF0.0
aF0.0
aF2.8764691916907044
aF0.0
aF0.0
aF1.2738946517144325
aF0.0
aF0.0
aF1.3675015531105963
aF0.0
aF0.0
aF0.19505524536088756
atp118
a(g1
(lp119
F0.0
aF4.3148196653660875
aF0.0
aF4.04061498501386
aF0.0
aF3.0103550203822356
aF0.0
aF0.9226317327181962
aF0.0
aF0.0
aF2.548807427397291
aF0.0
aF0.0
aF0.7213109416941084
aF0.0
aF0.0
aF1.4949933216745495
aF0.0
aF0.0
aF0.0828901235427661
atp120
a(g1
(lp121
F0.0
aF4.058019151999879
aF0.0
aF3.780393959717755
aF0.0
aF2.754628957021029
aF0.0
aF0.8357035856062865
aF0.0
aF0.0
aF2.371529538744994
aF0.0
aF0.0
aF0.6028075609683893
aF0.0
aF0.0
aF1.4070113251079197
aF0.0
aF0.0
aF0.03177134308059314
atp122
a(g1
(lp123
F0.0
aF4.674075374160193
aF0.0
aF4.401390946380359
aF0.0
aF3.3659527121369317
aF0.0
aF1.1554944670610892
aF0.0
aF0.0
aF3.1376420554178757
aF0.0
aF0.0
aF1.198721821515915
aF0.0
aF0.0
aF1.759854589699172
aF0.0
aF0.0
aF0.13789933594871562
atp124
a(g1
(lp125
F0.0
aF3.2394372747586444
aF0.0
aF3.0276751811390654
aF0.0
aF2.255646730757899
aF0.0
aF0.8751294320236159
aF0.0
aF0.0
aF1.512488042508836
aF0.0
aF0.0
aF0.46275970055920534
aF0.0
aF0.0
aF0.8743430771744727
aF0.0
aF0.0
aF0.04820944027149089
atp126
a(g1
(lp127
F0.40979851173545284
aF4.819836429190281
aF0.38196387983981755
aF4.543146415224366
aF0.2772538772704779
aF3.501328305632461
aF0.0678722703265206
aF1.339109931035183
aF0.02561443735681318
aF0.7762155522300784
aF4.388184176961061
aF0.0006479326536997625
aF0.18647800685926944
aF1.312062709533827
aF0.023764984491227846
aF0.45793206446797524
aF2.455566488774771
aF9.730109386577923e-09
aF0.007160093889658078
aF0.0999315195253737
atp128
a(g1
(lp129
F0.0
aF4.190962830413174
aF0.0
aF3.955163706349299
aF0.0
aF3.0702046604788182
aF0.0
aF1.2611144916153325
aF0.0
aF0.0
aF2.8179896444681765
aF0.0
aF0.0
aF1.1397495299007725
aF0.0
aF0.0
aF1.3758657757203225
aF0.0
aF0.0
aF0.14557267272451208
atp130
a(g1
(lp131
F0.0
aF4.159759153245244
aF0.0
aF3.926372574457829
aF0.0
aF3.0620018146715973
aF0.0
aF1.4462439740503175
aF0.0
aF0.0
aF2.162058896399895
aF0.0
aF0.0
aF1.4140883483618731
aF0.0
aF0.0
aF1.171394279594215
aF0.0
aF0.0
aF0.49694141143368253
atp132
a(g1
(lp133
F0.0
aF4.766798956202573
aF0.0
aF4.515196478588524
aF0.0
aF3.55781038604515
aF0.0
aF1.580245761942552
aF0.0
aF0.0
aF3.011791277757241
aF0.0
aF0.0
aF1.7565859480048427
aF0.0
aF0.0
aF1.6118931957559737
aF0.0
aF0.0
aF0.6065647728144917
atp134
a(g1
(lp135
F0.0
aF4.695437330649719
aF0.0
aF4.408276964122674
aF0.0
aF3.3250108482158764
aF0.0
aF1.0864862053154318
aF0.0
aF0.0
aF3.064423408692479
aF0.0
aF0.0
aF0.9815285079122255
aF0.0
aF0.0
aF1.735123876751985
aF0.0
aF0.0
aF0.12288752778034873
atp136
a(g1
(lp137
F0.0
aF3.7705593499862733
aF0.0
aF3.5367501944197564
aF0.0
aF2.683630834057168
aF0.0
aF1.1850602201135447
aF0.0
aF0.0
aF2.1701462144901953
aF0.0
aF0.0
aF0.6850030924527806
aF0.0
aF0.0
aF1.310673362683003
aF0.0
aF0.0
aF0.11757587444279807
atp138
a(g1
(lp139
F0.0
aF4.7015020764211615
aF0.0
aF4.468674674072441
aF0.0
aF3.57426690194488
aF0.0
aF1.5096535727709977
aF0.0
aF0.0
aF3.5472824983960445
aF0.0
aF0.0
aF1.759556778686168
aF0.0
aF0.0
aF1.5202034366230446
aF0.0
aF0.0
aF0.24805299608621734
atp140
a(g1
(lp141
F0.0
aF4.979373978810361
aF0.0
aF4.699215512380517
aF0.0
aF3.6257157990068385
aF0.0
aF1.322888704017533
aF0.0
aF0.0
aF4.3153600312416645
aF0.0
aF0.0
aF1.2008018105649816
aF0.0
aF0.0
aF2.5960104826030785
aF0.0
aF0.0
aF0.1342626294157506
atp142
a(g1
(lp143
F0.0
aF3.324150452762914
aF0.0
aF3.128405135659843
aF0.0
aF2.416583064168497
aF0.0
aF1.1587000557919527
aF0.0
aF0.0
aF1.8435514154697423
aF0.0
aF0.0
aF0.5001220426558194
aF0.0
aF0.0
aF1.113408165655738
aF0.0
aF0.0
aF0.02414742128572243
atp144
a(g1
(lp145
F0.0
aF4.47167808818471
aF0.0
aF4.2263772589675686
aF0.0
aF3.302113030958449
aF0.0
aF1.452389805466872
aF0.0
aF0.0
aF2.681354044661239
aF0.0
aF0.0
aF1.3748533564548258
aF0.0
aF0.0
aF1.3960134166255551
aF0.0
aF0.0
aF0.3503005289505781
atp146
a(g1
(lp147
F0.0
aF4.760381077705997
aF0.0
aF4.502941542778072
aF0.0
aF3.5234698362657664
aF0.0
aF1.402911516832219
aF0.0
aF0.0
aF3.390027638868975
aF0.0
aF0.0
aF1.5095650210511706
aF0.0
aF0.0
aF1.5717780411732198
aF0.0
aF0.0
aF0.21771148543703256
atp148
a(g1
(lp149
F0.0
aF4.417936127346863
aF0.0
aF4.130250227735524
aF0.0
aF3.0458782902072388
aF0.0
aF0.847593322169146
aF0.0
aF0.0
aF2.9392261122489085
aF0.0
aF0.0
aF0.7644985402922034
aF0.0
aF0.0
aF1.733519942510511
aF0.0
aF0.0
aF0.040430839693977726
atp150
a(g1
(lp151
F0.0
aF5.0409122290286925
aF0.0
aF4.744851665021172
aF0.0
aF3.6171820506139363
aF0.0
aF1.2082630401152477
aF0.0
aF0.0
aF4.059891139308561
aF0.0
aF0.0
aF1.177994175522264
aF0.0
aF0.0
aF2.3541489320681617
aF0.0
aF0.0
aF0.14947444955873324
atp152
a(g1
(lp153
F0.0
aF4.869447226884739
aF0.0
aF4.642991688668669
aF0.0
aF3.778644263004864
aF0.0
aF1.805496975102044
aF0.0
aF0.0
aF4.41487462864475
aF0.0
aF0.0
aF2.2085196617359024
aF0.0
aF0.0
aF2.084859129329831
aF0.0
aF0.0
aF0.45254346979148613
atp154
a(g1
(lp155
F0.0
aF5.005688794715215
aF0.0
aF4.7717722521507655
aF0.0
aF3.8639030351698427
aF0.0
aF1.6879311991683392
aF0.0
aF0.0
aF4.435411931317874
aF0.0
aF0.0
aF2.0769230556683205
aF0.0
aF0.0
aF1.983009464954099
aF0.0
aF0.0
aF0.2732738054029255
atp156
a(g1
(lp157
F0.0
aF4.636619086494451
aF0.0
aF4.359445869987335
aF0.0
aF3.302283785861503
aF0.0
aF1.0488636878031077
aF0.0
aF0.0
aF3.833280058475234
aF0.0
aF0.0
aF0.8683973228156011
aF0.0
aF0.0
aF2.4961648562151972
aF0.0
aF0.0
aF0.08305408017374433
atp158
a(g1
(lp159
F0.0
aF4.257058089716481
aF0.0
aF4.019876601832639
aF0.0
aF3.1138316076734265
aF0.0
aF1.147947316801875
aF0.0
aF0.0
aF3.1147588609447747
aF0.0
aF0.0
aF1.0757333003588219
aF0.0
aF0.0
aF1.6097660363264974
aF0.0
aF0.0
aF0.12714892661640378
atp160
a(g1
(lp161
F0.0
aF4.683680002720048
aF0.0
aF4.415075152671024
aF0.0
aF3.3932317708063757
aF0.0
aF1.1996647700888523
aF0.0
aF0.0
aF3.550546552973304
aF0.0
aF0.0
aF1.1923577560679253
aF0.0
aF0.0
aF1.888800410177846
aF0.0
aF0.0
aF0.10104171205208598
atp162
a(g1
(lp163
F0.0
aF3.820137282969938
aF0.0
aF3.566137432153175
aF0.0
aF2.6151547475980754
aF0.0
aF0.7239402954025425
aF0.0
aF0.0
aF2.5923972222038887
aF0.0
aF0.0
aF0.6122431447559806
aF0.0
aF0.0
aF1.550718191613825
aF0.0
aF0.0
aF0.02820877635281768
atp164
a(g1
(lp165
F0.0
aF4.910111970774134
aF0.0
aF4.672102138418043
aF0.0
aF3.766081480998616
aF0.0
aF1.7599566269420848
aF0.0
aF0.0
aF4.16143011208055
aF0.0
aF0.0
aF2.088500359539265
aF0.0
aF0.0
aF1.794189110053455
aF0.0
aF0.0
aF0.3216961352871917
atp166
a(g1
(lp167
F0.0
aF4.244681931705416
aF0.0
aF3.983854824542755
aF0.0
aF3.0057379413159118
aF0.0
aF0.9984259941192858
aF0.0
aF0.0
aF2.6641691700502537
aF0.0
aF0.0
aF0.8827874534994267
aF0.0
aF0.0
aF1.4732654421359928
aF0.0
aF0.0
aF0.10100626077079657
atp168
a(g1
(lp169
F0.0
aF4.140802953598655
aF0.0
aF3.9154256115338386
aF0.0
aF3.0638625487101736
aF0.0
aF1.2190531739759662
aF0.0
aF0.0
aF2.5866086910553223
aF0.0
aF0.0
aF1.010464878705582
aF0.0
aF0.0
aF1.3912125455274604
aF0.0
aF0.0
aF0.16675156823312612
atp170
a(g1
(lp171
F0.0
aF4.5661986638257215
aF0.0
aF4.314921775689539
aF0.0
aF3.346232952500164
aF0.0
aF1.161293264280157
aF0.0
aF0.0
aF3.7082155746270478
aF0.0
aF0.0
aF1.1015283074809668
aF0.0
aF0.0
aF2.194806011284793
aF0.0
aF0.0
aF0.1385524779541555
atp172
a(g1
(lp173
F0.0
aF3.8564939843353025
aF0.0
aF3.6430631578160546
aF0.0
aF2.8383307541464817
aF0.0
aF1.1122525351234576
aF0.0
aF0.0
aF2.622212178141704
aF0.0
aF0.0
aF0.865613498419618
aF0.0
aF0.0
aF1.4889614676000866
aF0.0
aF0.0
aF0.10677138171782614
atp174
a(g1
(lp175
F0.0
aF4.999912324829072
aF0.0
aF4.740090901530102
aF0.0
aF3.7476210767609848
aF0.0
aF1.661009756917284
aF0.0
aF0.0
aF3.7018034700684916
aF0.0
aF0.0
aF1.9420892809891745
aF0.0
aF0.0
aF2.0303124940888697
aF0.0
aF0.0
aF0.6258110964795219
atp176
a(g1
(lp177
F0.0
aF4.524259346188885
aF0.0
aF4.287642156576111
aF0.0
aF3.3900604556634857
aF0.0
aF1.4709281347212775
aF0.0
aF0.0
aF3.3952682983052576
aF0.0
aF0.0
aF1.2929462403092218
aF0.0
aF0.0
aF1.9377260859356142
aF0.0
aF0.0
aF0.16334048676481333
atp178
a(g1
(lp179
F0.0
aF4.607572347396999
aF0.0
aF4.310288280321466
aF0.0
aF3.1863395020807523
aF0.0
aF0.885511320238815
aF0.0
aF0.0
aF3.278664586288422
aF0.0
aF0.0
aF0.88636973781446
aF0.0
aF0.0
aF1.9056746064502754
aF0.0
aF0.0
aF0.04267511890641774
atp180
a(g1
(lp181
F0.0
aF4.12801799044324
aF0.0
aF3.903349968500545
aF0.0
aF3.0678394536282694
aF0.0
aF1.3693133582752413
aF0.0
aF0.0
aF2.6231419576302493
aF0.0
aF0.0
aF1.0340563108466267
aF0.0
aF0.0
aF1.3545078277816578
aF0.0
aF0.0
aF0.13590319986825614
atp182
a(g1
(lp183
F0.0
aF4.960941032965739
aF0.0
aF4.697734584978813
aF0.0
aF3.6965114291247567
aF0.0
aF1.486400906927283
aF0.0
aF0.0
aF4.686428455081473
aF0.0
aF0.0
aF1.6119506048821777
aF0.0
aF0.0
aF2.580773301447484
aF0.0
aF0.0
aF0.1956998181827844
atp184
a(g1
(lp185
F0.0
aF4.320208046597199
aF0.0
aF4.075058385719748
aF0.0
aF3.1551827415091522
aF0.0
aF1.2246321432637792
aF0.0
aF0.0
aF3.019033638007147
aF0.0
aF0.0
aF1.0130475606789886
aF0.0
aF0.0
aF1.7347885099619842
aF0.0
aF0.0
aF0.145769155373175
atp186
a(g1
(lp187
F0.0
aF4.761314963170689
aF0.0
aF4.494047222580464
aF0.0
aF3.474146205819679
aF0.0
aF1.2476217628478115
aF0.0
aF0.0
aF3.9666079489112605
aF0.0
aF0.0
aF1.249491738165449
aF0.0
aF0.0
aF2.3094429166470425
aF0.0
aF0.0
aF0.1734530756103434
atp188
a(g1
(lp189
F0.0
aF4.028922859760525
aF0.0
aF3.819172289436204
aF0.0
aF3.0234062169175893
aF0.0
aF1.260080228256791
aF0.0
aF0.0
aF2.7620601662841944
aF0.0
aF0.0
aF1.064471665814656
aF0.0
aF0.0
aF1.5081845977508932
aF0.0
aF0.0
aF0.1560513565652439
atp190
a(g1
(lp191
F0.0
aF4.892905764538073
aF0.0
aF4.655198155371033
aF0.0
aF3.7513155454224325
aF0.0
aF1.7454769336637113
aF0.0
aF0.0
aF4.7681839757123265
aF0.0
aF0.0
aF2.0112674318153645
aF0.0
aF0.0
aF2.2501205959759445
aF0.0
aF0.0
aF0.2458735517063994
atp192
a(g1
(lp193
F0.0
aF4.841160864031393
aF0.0
aF4.5951711565487985
aF0.0
aF3.6606856158119636
aF0.0
aF1.6078508922505037
aF0.0
aF0.0
aF3.593239807111166
aF0.0
aF0.0
aF1.5336953368674848
aF0.0
aF0.0
aF1.9043129157468448
aF0.0
aF0.0
aF0.3271847386026347
atp194
a(g1
(lp195
F0.0
aF5.24554404301283
aF0.0
aF4.9954310293196
aF0.0
aF4.039796349199429
aF0.0
aF1.8921818101947236
aF0.0
aF0.0
aF4.8594698970978225
aF0.0
aF0.0
aF2.3534165966297884
aF0.0
aF0.0
aF2.249464544058336
aF0.0
aF0.0
aF0.4303017839473639
atp196
a(g1
(lp197
F0.0
aF4.7300426911415165
aF0.0
aF4.502994099685414
aF0.0
aF3.6417943240578903
aF0.0
aF1.7351651502332945
aF0.0
aF0.0
aF4.018698133105428
aF0.0
aF0.0
aF1.697401360597066
aF0.0
aF0.0
aF2.0404464252317234
aF0.0
aF0.0
aF0.2977843592047155
atp198
a(g1
(lp199
F0.0
aF5.017107724219344
aF0.0
aF4.726898882779288
aF0.0
aF3.6219075214369285
aF0.0
aF1.2559663230297606
aF0.0
aF0.0
aF4.096898612550698
aF0.0
aF0.0
aF1.2912855797819014
aF0.0
aF0.0
aF2.2816982357271387
aF0.0
aF0.0
aF0.15696023803397557
atp200
a(g1
(lp201
F0.0
aF4.462582144263475
aF0.0
aF4.1866680555820714
aF0.0
aF3.143087004889134
aF0.0
aF1.0015013677598767
aF0.0
aF0.0
aF2.871951223402351
aF0.0
aF0.0
aF0.8673889770804163
aF0.0
aF0.0
aF1.6514873556515075
aF0.0
aF0.0
aF0.10514554642531888
atp202
a(g1
(lp203
F0.0
aF4.6149001708094115
aF0.0
aF4.359500153342125
aF0.0
aF3.382874213193117
aF0.0
aF1.2292264116637888
aF0.0
aF0.0
aF3.210769021435296
aF0.0
aF0.0
aF1.3175430591404584
aF0.0
aF0.0
aF1.56206887574784
aF0.0
aF0.0
aF0.15937623809756318
atp204
a(g1
(lp205
F0.0
aF3.9160361178191176
aF0.0
aF3.673512158658902
aF0.0
aF2.7577547560984774
aF0.0
aF0.8909247987124708
aF0.0
aF0.0
aF2.3140007371532656
aF0.0
aF0.0
aF0.721471365335558
aF0.0
aF0.0
aF1.3134203324100562
aF0.0
aF0.0
aF0.07821886078719904
atp206
a(g1
(lp207
F0.0
aF4.773234682909053
aF0.0
aF4.498427708872776
aF0.0
aF3.4511421008773717
aF0.0
aF1.1829836105431528
aF0.0
aF0.0
aF3.605309111193312
aF0.0
aF0.0
aF1.1868934402163456
aF0.0
aF0.0
aF1.9095151754258417
aF0.0
aF0.0
aF0.11217966892238879
atp208
a(g1
(lp209
F0.0
aF4.825151170780278
aF0.0
aF4.585469010526103
aF0.0
aF3.6707790091469086
aF0.0
aF1.6379125119512594
aF0.0
aF0.0
aF4.095865800518367
aF0.0
aF0.0
aF1.76586822323599
aF0.0
aF0.0
aF1.9191605061725185
aF0.0
aF0.0
aF0.26459266413279403
atp210
a(g1
(lp211
F0.0
aF4.357037399789627
aF0.0
aF4.0968691771078145
aF0.0
aF3.110881603310812
aF0.0
aF1.0430722214874608
aF0.0
aF0.0
aF2.8565329696217576
aF0.0
aF0.0
aF0.9810849967513756
aF0.0
aF0.0
aF1.5655418352747492
aF0.0
aF0.0
aF0.12573287991129017
atp212
a(g1
(lp213
F0.0
aF3.9697531767943754
aF0.0
aF3.723630440494466
aF0.0
aF2.8044428279162945
aF0.0
aF0.9859011268286035
aF0.0
aF0.0
aF2.593134122658209
aF0.0
aF0.0
aF0.7782957681760477
aF0.0
aF0.0
aF1.4412636886375307
aF0.0
aF0.0
aF0.06957859821727944
atp214
a(g1
(lp215
F0.0
aF4.270910277107987
aF0.0
aF4.008939422558171
aF0.0
aF3.02136930844829
aF0.0
aF0.9829671011044484
aF0.0
aF0.0
aF2.648157264799548
aF0.0
aF0.0
aF0.8165056889393574
aF0.0
aF0.0
aF1.4677694112309598
aF0.0
aF0.0
aF0.09961111067523185
atp216
a(g1
(lp217
F0.0
aF3.533848263486688
aF0.0
aF3.2652243294880026
aF0.0
aF2.2761842892825084
aF0.0
aF0.4791037659673943
aF0.0
aF0.0
aF1.8283543982230963
aF0.0
aF0.0
aF0.37220016816379975
aF0.0
aF0.0
aF1.1555888257559668
aF0.0
aF0.0
aF0.008886416465648929
atp218
a(g1
(lp219
F0.0
aF4.418617683036267
aF0.0
aF4.143352229341476
aF0.0
aF3.110193661663469
aF0.0
aF0.9996745099857004
aF0.0
aF0.0
aF2.588102794054369
aF0.0
aF0.0
aF0.9207835526591682
aF0.0
aF0.0
aF1.5091144480140144
aF0.0
aF0.0
aF0.11158166922769375
atp220
a(g1
(lp221
F0.0
aF4.322761703591692
aF0.0
aF4.071744741799968
aF0.0
aF3.1370705160052785
aF0.0
aF1.3533026855180534
aF0.0
aF0.0
aF2.4105413258215282
aF0.0
aF0.0
aF1.3201970664896023
aF0.0
aF0.0
aF1.2812856530262382
aF0.0
aF0.0
aF0.489289433704576
atp222
a(g1
(lp223
F0.0
aF4.516814704230295
aF0.0
aF4.24322935966764
aF0.0
aF3.2073959306838447
aF0.0
aF1.0583608769237651
aF0.0
aF0.0
aF3.059986804843368
aF0.0
aF0.0
aF0.9956260467887816
aF0.0
aF0.0
aF1.6684315313678388
aF0.0
aF0.0
aF0.09650937922322558
atp224
a(g1
(lp225
F0.0
aF4.438761477631578
aF0.0
aF4.190093844109115
aF0.0
aF3.2525516447971823
aF0.0
aF1.2814911020350699
aF0.0
aF0.0
aF2.703198381894008
aF0.0
aF0.0
aF1.2282376971232198
aF0.0
aF0.0
aF1.2866646449972086
aF0.0
aF0.0
aF0.20813745983495927
atp226
a(g1
(lp227
F0.0
aF4.188477926366278
aF0.0
aF3.947138143840595
aF0.0
aF3.050138260737202
aF0.0
aF1.3468001198121655
aF0.0
aF0.0
aF2.0301676207200985
aF0.0
aF0.0
aF1.168029717254181
aF0.0
aF0.0
aF1.0743807860025174
aF0.0
aF0.0
aF0.3729128299392595
atp228
a(g1
(lp229
F0.0
aF4.251047785670215
aF0.0
aF4.007369997405674
aF0.0
aF3.1031331148508436
aF0.0
aF1.3737696819557204
aF0.0
aF0.0
aF2.6183596401335096
aF0.0
aF0.0
aF1.0598602876552423
aF0.0
aF0.0
aF1.4628342957892928
aF0.0
aF0.0
aF0.20348918860672038
atp230
a(g1
(lp231
F0.0
aF4.899086946613259
aF0.0
aF4.636566040575692
aF0.0
aF3.630704090460106
aF0.0
aF1.3772860483561475
aF0.0
aF0.0
aF4.28697140537492
aF0.0
aF0.0
aF1.5644386093831844
aF0.0
aF0.0
aF2.1806348069713364
aF0.0
aF0.0
aF0.19562378934079958
atp232
a(g1
(lp233
F0.0
aF3.524721321510426
aF0.0
aF3.307512596984293
aF0.0
aF2.495107691425812
aF0.0
aF0.8287815456942278
aF0.0
aF0.0
aF2.1158569567225647
aF0.0
aF0.0
aF0.5677235303011162
aF0.0
aF0.0
aF1.2557642695882267
aF0.0
aF0.0
aF0.03257519558195908
atp234
a(g1
(lp235
F0.0
aF5.01683259099368
aF0.0
aF4.768103362039086
aF0.0
aF3.8074709261101676
aF0.0
aF1.5698709150960117
aF0.0
aF0.0
aF4.662303428470584
aF0.0
aF0.0
aF1.9729663620244149
aF0.0
aF0.0
aF2.1645811081073734
aF0.0
aF0.0
aF0.23534799415362564
atp236
a(g1
(lp237
F0.0
aF4.09415992450845
aF0.0
aF3.881382816279555
aF0.0
aF3.0724643221985826
aF0.0
aF1.2820371295875987
aF0.0
aF0.0
aF2.8143892753455666
aF0.0
aF0.0
aF1.1433994173871271
aF0.0
aF0.0
aF1.4928920646458734
aF0.0
aF0.0
aF0.1471141678161728
atp238
a(g1
(lp239
F0.0
aF4.792582549115152
aF0.0
aF4.501473871925821
aF0.0
aF3.4067763921649865
aF0.0
aF1.1415097233556977
aF0.0
aF0.0
aF3.778061387624099
aF0.0
aF0.0
aF1.1859577659445826
aF0.0
aF0.0
aF2.034079600924373
aF0.0
aF0.0
aF0.08292279520713947
atp240
a(g1
(lp241
F0.0
aF4.941057714222342
aF0.0
aF4.696664440816306
aF0.0
aF3.752259061222383
aF0.0
aF1.5689247690260228
aF0.0
aF0.0
aF4.35806933951173
aF0.0
aF0.0
aF1.583257542870413
aF0.0
aF0.0
aF2.3735381729490315
aF0.0
aF0.0
aF0.22537085543584745
atp242
a(g1
(lp243
F0.0
aF5.139832349534357
aF0.0
aF4.888927269900025
aF0.0
aF3.918238473655335
aF0.0
aF1.6557007393654635
aF0.0
aF0.0
aF4.73834318815659
aF0.0
aF0.0
aF2.1365799898486624
aF0.0
aF0.0
aF2.1710957096137062
aF0.0
aF0.0
aF0.3236632040582255
atp244
a(g1
(lp245
F0.0
aF5.208677697436141
aF0.0
aF4.9482373536734165
aF0.0
aF3.941515803750725
aF0.0
aF1.6304210116364595
aF0.0
aF0.0
aF4.465904991051858
aF0.0
aF0.0
aF1.841692610756814
aF0.0
aF0.0
aF2.295113054087748
aF0.0
aF0.0
aF0.3436531491568768
atp246
a(g1
(lp247
F0.0
aF4.717333541186285
aF0.0
aF4.448057760449052
aF0.0
aF3.416531168608394
aF0.0
aF1.1576474768754657
aF0.0
aF0.0
aF3.784264810679139
aF0.0
aF0.0
aF1.1725358027129302
aF0.0
aF0.0
aF2.124685700259476
aF0.0
aF0.0
aF0.131673603334144
atp248
a(g1
(lp249
F0.0
aF3.85822685153978
aF0.0
aF3.661150013406611
aF0.0
aF2.9147516142547496
aF0.0
aF1.256420691982355
aF0.0
aF0.0
aF2.675093471036264
aF0.0
aF0.0
aF1.0491753322710062
aF0.0
aF0.0
aF1.3907417965111224
aF0.0
aF0.0
aF0.15949239806105472
atp250
a(g1
(lp251
F0.0
aF4.54365688169512
aF0.0
aF4.287712667767627
aF0.0
aF3.313090394046104
aF0.0
aF1.1864985588478152
aF0.0
aF0.0
aF3.4523748295664944
aF0.0
aF0.0
aF1.2635514495859868
aF0.0
aF0.0
aF1.9067544780519972
aF0.0
aF0.0
aF0.13718660056624812
atp252
a(g1
(lp253
F0.0
aF4.052683468730895
aF0.0
aF3.819441031896497
aF0.0
aF2.9424485999926526
aF0.0
aF1.0882394569735165
aF0.0
aF0.0
aF2.640205562603879
aF0.0
aF0.0
aF0.877672472510076
aF0.0
aF0.0
aF1.5548126557423285
aF0.0
aF0.0
aF0.11069690259877421
atp254
a(g1
(lp255
F0.0
aF5.01931277973722
aF0.0
aF4.722765913387483
aF0.0
aF3.5997318407158945
aF0.0
aF1.2603321177175997
aF0.0
aF0.0
aF4.234248763610438
aF0.0
aF0.0
aF1.3334941693183036
aF0.0
aF0.0
aF2.241279538959795
aF0.0
aF0.0
aF0.09767989105282775
atp256
a(g1
(lp257
F0.0
aF5.162182704723265
aF0.0
aF4.899314088107703
aF0.0
aF3.885817333717115
aF0.0
aF1.5755425805924785
aF0.0
aF0.0
aF4.356965697367555
aF0.0
aF0.0
aF1.7380019360910437
aF0.0
aF0.0
aF2.339170482021686
aF0.0
aF0.0
aF0.31386353754073504
atp258
a(g1
(lp259
F0.0
aF5.0418379377805795
aF0.0
aF4.773165824912361
aF0.0
aF3.7492077066670593
aF0.0
aF1.6209016230805733
aF0.0
aF0.0
aF3.7594679340346038
aF0.0
aF0.0
aF1.7129933505159813
aF0.0
aF0.0
aF2.202010928850619
aF0.0
aF0.0
aF0.6082987979393888
atp260
a(g1
(lp261
F0.0
aF4.728610934173063
aF0.0
aF4.48494140191167
aF0.0
aF3.5509759473181437
aF0.0
aF1.488594155010435
aF0.0
aF0.0
aF3.72710866044017
aF0.0
aF0.0
aF1.4105298914180537
aF0.0
aF0.0
aF2.0919435369960233
aF0.0
aF0.0
aF0.32363974530652595
atp262
a.