(lp0
(VPt
p1
(lp2
F0.0
aF5.470494887082579
aF0.0
aF5.167225076518526
aF0.0
aF4.0004634485322175
aF0.0
aF1.4040849684402792
aF0.0
aF0.0
aF5.04976445152657
aF0.0
aF0.0
aF1.6325199605910166
aF0.0
aF0.0
aF2.781089244622662
aF0.0
aF0.0
aF0.20437463552773502
atp3
a(g1
(lp4
F0.0
aF5.521479829423074
aF0.0
aF5.229127429281077
aF0.0
aF4.103596789927535
aF0.0
aF1.5693651844368977
aF0.0
aF0.0
aF5.479441040989728
aF0.0
aF0.0
aF1.9484926085508103
aF0.0
aF0.0
aF2.933238011015928
aF0.0
aF0.0
aF0.29299961577619443
atp5
a(g1
(lp6
F0.0
aF5.399966178644617
aF0.0
aF5.107280245100628
aF0.0
aF3.982220261670514
aF0.0
aF1.4564965165029944
aF0.0
aF0.0
aF4.925798165770143
aF0.0
aF0.0
aF1.7250648301987779
aF0.0
aF0.0
aF2.6298815277199683
aF0.0
aF0.0
aF0.2334894749153587
atp7
a(g1
(lp8
F0.0
aF5.54487660271824
aF0.0
aF5.258304169250301
aF0.0
aF4.156326027222916
aF0.0
aF1.6516251421670736
aF0.0
aF0.0
aF5.4284448431687755
aF0.0
aF0.0
aF2.13123711889612
aF0.0
aF0.0
aF2.7431165193412284
aF0.0
aF0.0
aF0.3099222469685672
atp9
a(g1
(lp10
F0.0
aF5.297821054566038
aF0.0
aF5.013140018377744
aF0.0
aF3.9209907266026516
aF0.0
aF1.4828572016933894
aF0.0
aF0.0
aF4.97713323766761
aF0.0
aF0.0
aF1.8674987692566323
aF0.0
aF0.0
aF2.5062630623066458
aF0.0
aF0.0
aF0.23877044767693614
atp11
a(g1
(lp12
F0.0
aF5.423583943618464
aF0.0
aF5.145339340637332
aF0.0
aF4.076394610780537
aF0.0
aF1.6476333157563807
aF0.0
aF0.0
aF5.248755883218512
aF0.0
aF0.0
aF2.102314884512917
aF0.0
aF0.0
aF2.6353129848646204
aF0.0
aF0.0
aF0.30660601331006265
atp13
a(g1
(lp14
F0.0
aF5.315393827341085
aF0.0
aF5.0306106090389235
aF0.0
aF3.9401058102733035
aF0.0
aF1.502656552560004
aF0.0
aF0.0
aF4.896569721096298
aF0.0
aF0.0
aF1.8719782823091975
aF0.0
aF0.0
aF2.3994995881986965
aF0.0
aF0.0
aF0.2103184641855786
atp15
a(g1
(lp16
F0.0
aF5.327649015184021
aF0.0
aF5.037794362636946
aF0.0
aF3.9304369742103415
aF0.0
aF1.474976094276688
aF0.0
aF0.0
aF4.9701147116257465
aF0.0
aF0.0
aF1.7531720943123343
aF0.0
aF0.0
aF2.645286322426645
aF0.0
aF0.0
aF0.22461389331619816
atp17
a(g1
(lp18
F0.0
aF5.462457780737815
aF0.0
aF5.162042003108752
aF0.0
aF4.007380290300923
aF0.0
aF1.4336299838157698
aF0.0
aF0.0
aF4.9873316581893565
aF0.0
aF0.0
aF1.7034251572169987
aF0.0
aF0.0
aF2.6833176014167868
aF0.0
aF0.0
aF0.22010229993805694
atp19
a(g1
(lp20
F0.0
aF5.3904233915165
aF0.0
aF5.103123131754011
aF0.0
aF3.9982696895771683
aF0.0
aF1.510484501152021
aF0.0
aF0.0
aF5.317479831713275
aF0.0
aF0.0
aF1.8829072996589364
aF0.0
aF0.0
aF2.79491538550083
aF0.0
aF0.0
aF0.23827239485149207
atp21
a(g1
(lp22
F0.02282767967776008
aF5.52264585516526
aF0.019688108908899122
aF5.221545347612488
aF0.009907084576804363
aF4.063153218612469
aF0.00040884082236901565
aF1.4697358954892061
aF0.0
aF0.026789975256271147
aF5.191929394567446
aF0.0
aF0.0032445022621217096
aF1.7339795699240752
aF0.0
aF0.01981562058536321
aF2.852636989423542
aF0.0
aF3.264107539642332e-05
aF0.23657538812381335
atp23
a(g1
(lp24
F0.014397537413736873
aF5.530382314700312
aF0.0123338772822758
aF5.2319592675787625
aF0.006015030048787792
aF4.084870253856197
aF0.00021463643762265327
aF1.5170872065742704
aF0.0
aF0.019398102418250615
aF5.609820655081763
aF0.0
aF0.002030688801298566
aF1.8801604089733928
aF0.0
aF0.014994529343424969
aF3.068163325160926
aF0.0
aF1.752465598272608e-05
aF0.23117140153977495
atp25
a(g1
(lp26
F0.0
aF5.247629933468408
aF0.0
aF4.961581452670354
aF0.0
aF3.864844701447343
aF0.0
aF1.4216863557076782
aF0.0
aF0.0
aF4.90552595074961
aF0.0
aF0.0
aF1.7520245171550384
aF0.0
aF0.0
aF2.5066206313014026
aF0.0
aF0.0
aF0.2062724506314183
atp27
a(g1
(lp28
F0.0
aF5.382176439826441
aF0.0
aF5.103480528580265
aF0.0
aF4.033580588044258
aF0.0
aF1.6007745794547974
aF0.0
aF0.0
aF5.077070873074128
aF0.0
aF0.0
aF2.011214536164102
aF0.0
aF0.0
aF2.56776806489763
aF0.0
aF0.0
aF0.3085962203063811
atp29
a(g1
(lp30
F0.0
aF5.277121666754461
aF0.0
aF4.98990429583375
aF0.0
aF3.8907555879585773
aF0.0
aF1.4456596411351819
aF0.0
aF0.0
aF4.925837628423879
aF0.0
aF0.0
aF1.8120587954311504
aF0.0
aF0.0
aF2.4689023158035024
aF0.0
aF0.0
aF0.19840555271124044
atp31
a(g1
(lp32
F0.015043358337553131
aF5.26355668428034
aF0.012894642695729342
aF4.9735703316962345
aF0.0063055401936362495
aF3.8662024616116986
aF0.00022784574501831412
aF1.4225524081224912
aF0.0
aF0.010657920468748163
aF4.898681925169328
aF0.0
aF0.0011915871651080405
aF1.6843337652054455
aF0.0
aF0.008104953720791317
aF2.6208108500423473
aF0.0
aF1.5297221070319544e-05
aF0.2047516551103941
atp33
a(g1
(lp34
F0.0
aF5.515957288298449
aF0.0
aF5.215493055359477
aF0.0
aF4.0627954604892835
aF0.0
aF1.4981225513092522
aF0.0
aF0.0
aF5.281871202253427
aF0.0
aF0.0
aF1.8116404821054448
aF0.0
aF0.0
aF2.8654591191479284
aF0.0
aF0.0
aF0.25055645355770406
atp35
a(g1
(lp36
F0.0
aF5.357940283745729
aF0.0
aF5.063705306163504
aF0.0
aF3.935054358851383
aF0.0
aF1.4354431320815926
aF0.0
aF0.0
aF5.084762275552231
aF0.0
aF0.0
aF1.7131839755689313
aF0.0
aF0.0
aF2.76814244542639
aF0.0
aF0.0
aF0.23262600439772071
atp37
a(g1
(lp38
F0.0
aF5.460039398195986
aF0.0
aF5.17297750094336
aF0.0
aF4.0722924159660865
aF0.0
aF1.5888074112915722
aF0.0
aF0.0
aF5.212980881090787
aF0.0
aF0.0
aF1.966103986250473
aF0.0
aF0.0
aF2.7257805285547576
aF0.0
aF0.0
aF0.2983524112426205
atp39
a(g1
(lp40
F0.0
aF5.40442061150552
aF0.0
aF5.117042934254781
aF0.0
aF4.013843276581539
aF0.0
aF1.5312467364851376
aF0.0
aF0.0
aF5.157207033609809
aF0.0
aF0.0
aF1.8836894857940312
aF0.0
aF0.0
aF2.6983139736529216
aF0.0
aF0.0
aF0.25027781193343496
atp41
a(g1
(lp42
F0.0
aF5.577281496864542
aF0.0
aF5.290977783495809
aF0.0
aF4.188482538090627
aF0.0
aF1.6830954016884874
aF0.0
aF0.0
aF5.5782849398224625
aF0.0
aF0.0
aF2.1780645714536346
aF0.0
aF0.0
aF2.897141009201736
aF0.0
aF0.0
aF0.3399214346252943
atp43
a(g1
(lp44
F0.0
aF5.4980487591622245
aF0.0
aF5.2087889174731234
aF0.0
aF4.09538072338995
aF0.0
aF1.576443183432197
aF0.0
aF0.0
aF5.453434596406439
aF0.0
aF0.0
aF2.004927258896842
aF0.0
aF0.0
aF2.850221529031623
aF0.0
aF0.0
aF0.2679411327718176
atp45
a(g1
(lp46
F0.0
aF5.406660624022702
aF0.0
aF5.109608433260791
aF0.0
aF3.970042283769818
aF0.0
aF1.439813181087427
aF0.0
aF0.0
aF5.20612846341831
aF0.0
aF0.0
aF1.718505084063775
aF0.0
aF0.0
aF2.8374932015460885
aF0.0
aF0.0
aF0.19777444144702738
atp47
a(g1
(lp48
F0.0
aF5.342181525020711
aF0.0
aF5.050341478157049
aF0.0
aF3.9313994054295427
aF0.0
aF1.441089086562619
aF0.0
aF0.0
aF5.044555874197196
aF0.0
aF0.0
aF1.7166328385197072
aF0.0
aF0.0
aF2.7090805650524548
aF0.0
aF0.0
aF0.2056849443224771
atp49
a(g1
(lp50
F0.0
aF5.616442205653055
aF0.0
aF5.321228046782126
aF0.0
aF4.1878695304181885
aF0.0
aF1.6333859456275261
aF0.0
aF0.0
aF5.584502980871234
aF0.0
aF0.0
aF2.073937514549007
aF0.0
aF0.0
aF2.952236955653952
aF0.0
aF0.0
aF0.3149369030631976
atp51
a(g1
(lp52
F0.0
aF5.524967889193558
aF0.0
aF5.231745312971164
aF0.0
aF4.105188195995229
aF0.0
aF1.570660731519238
aF0.0
aF0.0
aF5.40888034456294
aF0.0
aF0.0
aF1.9897393499095992
aF0.0
aF0.0
aF2.8507733386172704
aF0.0
aF0.0
aF0.29082030409445875
atp53
a(g1
(lp54
F0.0
aF5.5790772116981655
aF0.0
aF5.287683654329711
aF0.0
aF4.168538745262249
aF0.0
aF1.6390367867655429
aF0.0
aF0.0
aF5.522338686936305
aF0.0
aF0.0
aF2.096640008870662
aF0.0
aF0.0
aF2.8817491534033923
aF0.0
aF0.0
aF0.3144856554569369
atp55
a(g1
(lp56
F0.0
aF5.467913741703468
aF0.0
aF5.173310762154565
aF0.0
aF4.042950231551868
aF0.0
aF1.5165368076253103
aF0.0
aF0.0
aF5.263918923503365
aF0.0
aF0.0
aF1.881228660804052
aF0.0
aF0.0
aF2.80652740538619
aF0.0
aF0.0
aF0.26465190932963234
atp57
a(g1
(lp58
F0.0
aF5.568680912115367
aF0.0
aF5.278667558361047
aF0.0
aF4.160142836518255
aF0.0
aF1.6075745850211278
aF0.0
aF0.0
aF5.540971080556776
aF0.0
aF0.0
aF2.0496588733474423
aF0.0
aF0.0
aF2.895675876451032
aF0.0
aF0.0
aF0.2868564363104728
atp59
a(g1
(lp60
F0.0
aF5.663629571989849
aF0.0
aF5.371926815941688
aF0.0
aF4.249229163749461
aF0.0
aF1.6929626425585866
aF0.0
aF0.0
aF5.567312671613741
aF0.0
aF0.0
aF2.1877394827798384
aF0.0
aF0.0
aF2.8760566536722516
aF0.0
aF0.0
aF0.35578221520340403
atp61
a(g1
(lp62
F0.0
aF5.591092035490845
aF0.0
aF5.291431043491577
aF0.0
aF4.139462898943126
aF0.0
aF1.553495933452753
aF0.0
aF0.0
aF5.522284769987214
aF0.0
aF0.0
aF1.943545065394107
aF0.0
aF0.0
aF2.9606688859465993
aF0.0
aF0.0
aF0.26212785562105106
atp63
a(g1
(lp64
F0.0
aF5.485273309483944
aF0.0
aF5.19558177636396
aF0.0
aF4.081927518785711
aF0.0
aF1.568095586107468
aF0.0
aF0.0
aF5.472334957350744
aF0.0
aF0.0
aF1.9792659185787187
aF0.0
aF0.0
aF2.9047972678138727
aF0.0
aF0.0
aF0.2767928707409003
atp65
a(g1
(lp66
F0.2415654378195104
aF5.811729552354191
aF0.2226685062477942
aF5.504228073840215
aF0.1525660689959042
aF4.317814888170751
aF0.026381854574545734
aF1.6255200829695144
aF2.745084218311045e-08
aF0.5044147262457829
aF6.109612936965415
aF2.9755796433350117e-10
aF0.1289835401687017
aF2.062523834341643
aF2.657717683800778e-08
aF0.29758935168559797
aF3.416754911198202
aF3.669209166517279e-16
aF0.005623508532610922
aF0.300401983833554
atp67
a(g1
(lp68
F0.26735766520944093
aF6.073316568513127
aF0.24753794285086891
aF5.780647219808194
aF0.1731456501696232
aF4.646656028405122
aF0.03297937718540736
aF2.001746615018061
aF7.741870986870357e-05
aF0.6489204354489728
aF6.999059117279946
aF6.703922602175633e-07
aF0.17668173727425268
aF2.928915337380066
aF7.544186764339905e-05
aF0.38203770076563276
aF3.5873066031103864
aF4.241746192118256e-13
aF0.00854815875898383
aF0.5248642732290607
atp69
a(g1
(lp70
F0.24314326814643616
aF5.800730486152226
aF0.22418287595714242
aF5.495490098411141
aF0.1537966764714462
aF4.318324379367813
aF0.026753853761797647
aF1.6422271077251438
aF1.1563144201228502e-05
aF0.5240601306176924
aF6.09471722632248
aF1.329934592813509e-07
aF0.12966151622032085
aF2.118360840150065
aF1.1173168623423599e-05
aF0.3158820459887301
aF3.362961470498343
aF1.9552113818171187e-13
aF0.0060048710071278575
aF0.3019022082390344
atp71
a(g1
(lp72
F0.22938471804066887
aF5.877136401060087
aF0.2109659487135206
aF5.592285231526518
aF0.1430476663176071
aF4.490442695044547
aF0.023566665211717838
aF1.9219955651782434
aF0.0
aF0.5726705501263143
aF6.69997435469545
aF0.0
aF0.13456264281520125
aF2.7756285259726305
aF0.0
aF0.35503328297945785
aF3.381617338061245
aF0.0
aF0.005537690037894114
aF0.4603301036264933
atp73
a(g1
(lp74
F0.06033340030077055
aF5.565225618756728
aF0.053073199962656206
aF5.271860066192642
aF0.029269807761319263
aF4.148511270545126
aF0.0018483157129208416
aF1.6368840404616618
aF0.0
aF0.04954951739941778
aF5.388513792234811
aF0.0
aF0.01055473592606815
aF2.118058801350914
aF0.0
aF0.029263651166545914
aF2.70965870765738
aF0.0
aF0.00013654260641759083
aF0.3069485185430934
atp75
a(g1
(lp76
F0.4586024750337375
aF5.826490549839372
aF0.43037920223754106
aF5.529748619253678
aF0.32257566721138675
aF4.389722833549
aF0.09171611055388873
aF1.7984243861421272
aF0.027887519208674386
aF0.7201690048309212
aF6.088964798262915
aF0.0006882593137428426
aF0.27720083116451927
aF2.3804720518524767
aF0.02592061587039389
aF0.37407110153133055
aF3.2129414620681422
aF9.61643664746845e-09
aF0.031804278787983996
aF0.4083020362149203
atp77
a(g1
(lp78
F0.18537718663725142
aF5.6233751748571805
aF0.16825169631224896
aF5.339345691402886
aF0.10751659878721859
aF4.249345081704172
aF0.013817966385131065
aF1.7690067342461209
aF0.0019826934991630843
aF0.1933525009249339
aF5.689849716713524
aF6.680053716330944e-05
aF0.057725754134593375
aF2.375728774473391
aF0.0017950739881048901
aF0.1075439162707529
aF2.860289698134657
aF2.3130224197341466e-09
aF0.0031049008326184575
aF0.42900969565448765
atp79
a(g1
(lp80
F0.9445215135814938
aF5.900914517163011
aF0.9127021838737436
aF5.610824799667084
aF0.7860247856752518
aF4.492633782902659
aF0.4502018776884068
aF1.9112961848804104
aF0.21034214649698085
aF0.8321087762276205
aF6.764866525504752
aF7.199196846670324e-05
aF1.448110116171622
aF2.7281264493345314
aF0.21012631834766238
aF0.06726267843005178
aF3.5163348147596523
aF2.8834434577194192e-15
aF0.46421621831731835
aF0.4882399606702649
atp81
a(VCu
p82
(lp83
F0.6912089625248322
aF0.35962545204005203
aF0.6740301763889129
aF0.323371328603599
aF0.5997174418040357
aF0.19851643257692278
aF0.34871170779806904
aF0.02262859136399798
aF0.0
aF0.3077113298357086
aF0.04369348573883369
aF0.0
aF0.0061867607522533875
aF0.0030283757322308634
aF0.0
aF0.29134760417223265
aF0.0359708169721204
aF0.0
aF2.0747621518314675e-06
aF4.142106633854929e-06
atp84
a(g82
(lp85
F0.6912089625248322
aF3.5417929186409247
aF0.6740301763889129
aF3.3154428225439685
aF0.5997174418040357
aF2.475531533150201
aF0.34871170779806904
aF0.837798102122594
aF0.0
aF0.017116687150128942
aF3.7173616863886005
aF0.0
aF0.296781403437833
aF0.6418885917006407
aF0.0
aF8.437618757360679e-05
aF2.4445613333327363
aF0.0
aF0.26040135260585
aF0.011396622071496543
atp86
a(g1
(lp87
F0.024026219832295463
aF5.499042440096669
aF0.02073923174589865
aF5.195650469496238
aF0.010476799718782315
aF4.030340020025609
aF0.0004402510343334038
aF1.4403938312371827
aF0.0
aF0.0300050136710216
aF5.1446215726579
aF0.0
aF0.0034615450088480338
aF1.6843717436402748
aF0.0
aF0.022674845736326815
aF2.8411708546475514
aF0.0
aF3.60008022120158e-05
aF0.22441555953805103
atp88
a(g1
(lp89
F0.023035263208834967
aF5.533880906465552
aF0.01987006852774743
aF5.228215137135416
aF0.010005483362454593
aF4.055057279089764
aF0.0004142135236641301
aF1.462243062808091
aF0.0
aF0.03428576823540483
aF5.546747999719489
aF0.0
aF0.0036945058153353763
aF1.7555617324809507
aF0.0
aF0.026450904567934825
aF3.0815158215648215
aF0.0
aF3.210126531529621e-05
aF0.19951472591499378
atp90
a(g1
(lp91
F0.0
aF5.4883244883269455
aF0.0
aF5.195777697922815
aF0.0
aF4.069918914729729
aF0.0
aF1.523380907169211
aF0.0
aF0.0
aF5.134125365002997
aF0.0
aF0.0
aF1.8839259488364082
aF0.0
aF0.0
aF2.696386046053654
aF0.0
aF0.0
aF0.25383383158959255
atp92
a(g1
(lp93
F0.0
aF5.477241870131395
aF0.0
aF5.197261580754846
aF0.0
aF4.119026284312748
aF0.0
aF1.6627863982002251
aF0.0
aF0.0
aF5.527525775995929
aF0.0
aF0.0
aF2.1642088766991816
aF0.0
aF0.0
aF2.8228795644630957
aF0.0
aF0.0
aF0.2923223062788474
atp94
a(g1
(lp95
F0.09716566682084408
aF5.533363128122904
aF0.08660645162761953
aF5.243706707122392
aF0.050774443963112016
aF4.133434796736172
aF0.004258399237375953
aF1.6484104849872734
aF4.5849696884987945e-07
aF0.09601391673399778
aF5.444820957352148
aF1.438792407218404e-08
aF0.02140168617767243
aF2.1075522629416277
aF4.179069132063001e-07
aF0.056908036615684277
aF2.7299908329673355
aF4.052529913155063e-13
aF0.00039553893194182153
aF0.2664975112679347
atp96
a(g1
(lp97
F0.5930017578988059
aF5.693017022839331
aF0.5606685239273083
aF5.400309238419871
aF0.4356242712492816
aF4.274136233196001
aF0.15032175112295157
aF1.7112676936514986
aF0.06651522059526033
aF0.876407973476212
aF6.013918224750019
aF0.002099542842801085
aF0.3989124210970748
aF2.2379770330640167
aF0.06059425243575189
aF0.41778362613531944
aF3.184344518869568
aF6.01514711615668e-08
aF0.057975078635307195
aF0.3266572677204291
atp98
a(g1
(lp99
F0.0
aF5.308448848474001
aF0.0
aF5.018918928636534
aF0.0
aF3.90764835727182
aF0.0
aF1.4382667637731126
aF0.0
aF0.0
aF5.010144463446202
aF0.0
aF0.0
aF1.7878492231703467
aF0.0
aF0.0
aF2.5787345565957316
aF0.0
aF0.0
aF0.20477648077303592
atp100
a(g1
(lp101
F0.01588315870969454
aF5.400550780948646
aF0.013624541771264608
aF5.106185801998578
aF0.006685326159035556
aF3.9812228560619007
aF0.0002454406886006748
aF1.4996722919997831
aF0.0
aF0.01250304670906786
aF5.1019213867335935
aF0.0
aF0.0012340854597405805
aF1.7887793125852498
aF0.0
aF0.00992699086951978
aF2.73891433414054
aF0.0
aF1.7569894916738327e-05
aF0.24509877056978036
atp102
a(g1
(lp103
F0.0
aF5.609601277422476
aF0.0
aF5.309271471393627
aF0.0
aF4.157515356984951
aF0.0
aF1.5833282693948951
aF0.0
aF0.0
aF5.584315325330545
aF0.0
aF0.0
aF1.9804950914921209
aF0.0
aF0.0
aF3.0416131036545577
aF0.0
aF0.0
aF0.2915194426077009
atp104
a(g1
(lp105
F0.0
aF5.451204320266705
aF0.0
aF5.15752021624146
aF0.0
aF4.029388437396498
aF0.0
aF1.5041524100544272
aF0.0
aF0.0
aF5.306824655564818
aF0.0
aF0.0
aF1.8590623304987586
aF0.0
aF0.0
aF2.8424975798853915
aF0.0
aF0.0
aF0.2464602030996392
atp106
a(g1
(lp107
F0.0
aF5.542031471230062
aF0.0
aF5.245161020963117
aF0.0
aF4.106917008708077
aF0.0
aF1.561148181520871
aF0.0
aF0.0
aF5.38810088881666
aF0.0
aF0.0
aF1.9452481686435883
aF0.0
aF0.0
aF2.8854818078593136
aF0.0
aF0.0
aF0.2761252512386655
atp108
a(g1
(lp109
F0.0
aF5.505069378989244
aF0.0
aF5.214863766058743
aF0.0
aF4.098023351042064
aF0.0
aF1.5709689203385275
aF0.0
aF0.0
aF5.299392907224493
aF0.0
aF0.0
aF1.9933067559921627
aF0.0
aF0.0
aF2.7542743142989368
aF0.0
aF0.0
aF0.27708179324500803
atp110
a(g1
(lp111
F0.0916230094529347
aF5.7081110270329765
aF0.08152197234799234
aF5.4094133606526515
aF0.0474031783225384
aF4.260505901882919
aF0.003827061636078944
aF1.661598991350246
aF0.0
aF0.11254196935894452
aF5.951868223451072
aF0.0
aF0.022004817843040193
aF2.1419531236712506
aF0.0
aF0.0692999111892043
aF3.2471990528494086
aF0.0
aF0.0002805333230086282
aF0.34701221680845185
atp112
a(g1
(lp113
F0.0
aF5.600116502453398
aF0.0
aF5.3022924745035
aF0.0
aF4.15866753858045
aF0.0
aF1.5944400716932106
aF0.0
aF0.0
aF5.462741495929042
aF0.0
aF0.0
aF2.0090021195469707
aF0.0
aF0.0
aF2.8901177174208263
aF0.0
aF0.0
aF0.29301292298934356
atp114
a(g1
(lp115
F0.25219748790549246
aF5.987501286684099
aF0.23164520792913962
aF5.686132248137142
aF0.1565678063797355
aF4.520659164648192
aF0.026305671160442096
aF1.8332739726503111
aF0.004010415603847915
aF0.4045571123435086
aF6.650437933076823
aF0.00011695221900429301
aF0.12313541868993368
aF2.5287323731168354
aF0.0036790695956053095
aF0.2251385366627724
aF3.560309193979165
aF2.6608129355656877e-09
aF0.007053525076706443
aF0.4308007999822863
atp116
a(g1
(lp117
F0.0
aF5.436369017828399
aF0.0
aF5.148922268715847
aF0.0
aF4.045883586739035
aF0.0
aF1.5700394085760219
aF0.0
aF0.0
aF5.26750061424161
aF0.0
aF0.0
aF1.9683106228596348
aF0.0
aF0.0
aF2.755970848997725
aF0.0
aF0.0
aF0.2913929672460589
atp118
a(g1
(lp119
F0.0
aF5.470730347281671
aF0.0
aF5.174734220317166
aF0.0
aF4.037170809554756
aF0.0
aF1.489125735889751
aF0.0
aF0.0
aF5.213329237059007
aF0.0
aF0.0
aF1.774444223022221
aF0.0
aF0.0
aF2.84859212632581
aF0.0
aF0.0
aF0.24754696418451638
atp120
a(g1
(lp121
F0.0
aF5.375414514256468
aF0.0
aF5.073840656280814
aF0.0
aF3.917374913767649
aF0.0
aF1.371706250267638
aF0.0
aF0.0
aF5.10308858443424
aF0.0
aF0.0
aF1.6177617299857534
aF0.0
aF0.0
aF2.8202720364783955
aF0.0
aF0.0
aF0.1809011995350041
atp122
a(g1
(lp123
F0.0
aF5.57770958818509
aF0.0
aF5.289874044669184
aF0.0
aF4.185041306501841
aF0.0
aF1.678164403029147
aF0.0
aF0.0
aF5.531541218329999
aF0.0
aF0.0
aF2.177551417049115
aF0.0
aF0.0
aF2.860138196311109
aF0.0
aF0.0
aF0.3297293569720511
atp124
a(g1
(lp125
F0.0
aF5.4871546409756675
aF0.0
aF5.20359666906265
aF0.0
aF4.11298204025924
aF0.0
aF1.633450832644753
aF0.0
aF0.0
aF5.388091403475457
aF0.0
aF0.0
aF2.135321878348588
aF0.0
aF0.0
aF2.751076057160855
aF0.0
aF0.0
aF0.3107099899390217
atp126
a(g1
(lp127
F0.12193156665371507
aF5.5925823533894645
aF0.1094599682281771
aF5.2918670447250085
aF0.06634008036319883
aF4.136876918409154
aF0.006496561004319264
aF1.5475820519778745
aF2.5500063190655392e-05
aF0.16581010613295694
aF5.716058531779826
aF7.623665840215349e-07
aF0.03393560029911929
aF1.93753838859764
aF2.3343195872649477e-05
aF0.10257809469218333
aF3.096562121514928
aF1.864879161171374e-11
aF0.0006967332154882032
aF0.22904269693713306
atp128
a(g1
(lp129
F0.0
aF5.290747135940063
aF0.0
aF5.007141707574492
aF0.0
aF3.9220072340896155
aF0.0
aF1.506260249922034
aF0.0
aF0.0
aF4.961709886230503
aF0.0
aF0.0
aF1.8275290739816519
aF0.0
aF0.0
aF2.5912602768743787
aF0.0
aF0.0
aF0.2548848058702825
atp130
a(g1
(lp131
F0.0
aF5.5487044620995345
aF0.0
aF5.257397440763853
aF0.0
aF4.13695195558046
aF0.0
aF1.6158360621591197
aF0.0
aF0.0
aF5.473779918676314
aF0.0
aF0.0
aF2.0142620158453393
aF0.0
aF0.0
aF2.9062905663424003
aF0.0
aF0.0
aF0.3127025797109096
atp132
a(g1
(lp133
F0.0
aF5.606656039124098
aF0.0
aF5.3124703888345906
aF0.0
aF4.18067836195182
aF0.0
aF1.6214392262553783
aF0.0
aF0.0
aF5.484809222598914
aF0.0
aF0.0
aF2.0667559459230493
aF0.0
aF0.0
aF2.8538309080057704
aF0.0
aF0.0
aF0.30438074104029217
atp134
a(g1
(lp135
F0.0
aF5.519317827818513
aF0.0
aF5.220132443704558
aF0.0
aF4.070644793790851
aF0.0
aF1.5027173814560513
aF0.0
aF0.0
aF5.249021423905705
aF0.0
aF0.0
aF1.8252657030351531
aF0.0
aF0.0
aF2.8172738822735615
aF0.0
aF0.0
aF0.2495795449831922
atp136
a(g1
(lp137
F0.0
aF5.2838588891744145
aF0.0
aF4.991743823761617
aF0.0
aF3.8751019785235865
aF0.0
aF1.4325819910724693
aF0.0
aF0.0
aF4.9185004747519985
aF0.0
aF0.0
aF1.7102124512372345
aF0.0
aF0.0
aF2.672536370752593
aF0.0
aF0.0
aF0.2625856993506413
atp138
a(g1
(lp139
F0.0
aF5.433958673439172
aF0.0
aF5.151020006186171
aF0.0
aF4.064750461489546
aF0.0
aF1.601245273823253
aF0.0
aF0.0
aF5.166389041280893
aF0.0
aF0.0
aF1.9939705652220907
aF0.0
aF0.0
aF2.6573202189102907
aF0.0
aF0.0
aF0.30401100561656813
atp140
a(g1
(lp141
F0.0
aF5.532271634790296
aF0.0
aF5.241386673478988
aF0.0
aF4.124567148855967
aF0.0
aF1.6065007882738227
aF0.0
aF0.0
aF5.30285766604473
aF0.0
aF0.0
aF2.012252633628499
aF0.0
aF0.0
aF2.7682205911610533
aF0.0
aF0.0
aF0.30644133765291837
atp142
a(g1
(lp143
F0.0
aF5.5221863342831154
aF0.0
aF5.235072174873203
aF0.0
aF4.129547283209964
aF0.0
aF1.6317224690406062
aF0.0
aF0.0
aF5.406891631782787
aF0.0
aF0.0
aF2.096349141434361
aF0.0
aF0.0
aF2.7853490528303193
aF0.0
aF0.0
aF0.30781042568677364
atp144
a(g1
(lp145
F0.0
aF5.395364221633124
aF0.0
aF5.106177434526153
aF0.0
aF3.9947825277929336
aF0.0
aF1.5074897878473563
aF0.0
aF0.0
aF5.174655585036752
aF0.0
aF0.0
aF1.8923323228119364
aF0.0
aF0.0
aF2.714562372205381
aF0.0
aF0.0
aF0.24500693107045715
atp146
a(g1
(lp147
F0.0
aF5.4372909981054995
aF0.0
aF5.14038338805156
aF0.0
aF4.003092867824288
aF0.0
aF1.481444365174046
aF0.0
aF0.0
aF5.097373412183272
aF0.0
aF0.0
aF1.7763907530042453
aF0.0
aF0.0
aF2.717335987196494
aF0.0
aF0.0
aF0.2214566922303506
atp148
a(g1
(lp149
F0.0
aF5.372155806602902
aF0.0
aF5.08011101212081
aF0.0
aF3.9586724034358443
aF0.0
aF1.4518538041784212
aF0.0
aF0.0
aF5.067333694008178
aF0.0
aF0.0
aF1.7428314595251804
aF0.0
aF0.0
aF2.7023754750374187
aF0.0
aF0.0
aF0.20425965196148668
atp150
a(g1
(lp151
F0.0
aF5.58596719217095
aF0.0
aF5.288780450726798
aF0.0
aF4.147560608783747
aF0.0
aF1.5876335862481803
aF0.0
aF0.0
aF5.503104454639102
aF0.0
aF0.0
aF1.999094100043074
aF0.0
aF0.0
aF2.923535298661311
aF0.0
aF0.0
aF0.2892978048507229
atp152
a(g1
(lp153
F0.0
aF5.5317779917931675
aF0.0
aF5.242480819436155
aF0.0
aF4.129790189712204
aF0.0
aF1.6127564950808377
aF0.0
aF0.0
aF5.552712096923159
aF0.0
aF0.0
aF2.039999328258129
aF0.0
aF0.0
aF2.9546103653641156
aF0.0
aF0.0
aF0.30668296997547556
atp154
a(g1
(lp155
F0.0
aF5.551696357520081
aF0.0
aF5.263447954208062
aF0.0
aF4.154470061937188
aF0.0
aF1.6337826474950254
aF0.0
aF0.0
aF5.478510286317599
aF0.0
aF0.0
aF2.085088658371266
aF0.0
aF0.0
aF2.8478704279555607
aF0.0
aF0.0
aF0.3101223688213735
atp156
a(g1
(lp157
F0.0
aF5.495244280069817
aF0.0
aF5.200335467097429
aF0.0
aF4.068652378619234
aF0.0
aF1.5350842543479093
aF0.0
aF0.0
aF5.382281613397914
aF0.0
aF0.0
aF1.8867587402704853
aF0.0
aF0.0
aF2.904691464867509
aF0.0
aF0.0
aF0.2507124346852963
atp158
a(g1
(lp159
F0.0
aF5.4650871821940115
aF0.0
aF5.179165967950456
aF0.0
aF4.078096268822842
aF0.0
aF1.575414819862221
aF0.0
aF0.0
aF5.312183674437142
aF0.0
aF0.0
aF1.9828659115863239
aF0.0
aF0.0
aF2.7701998529676373
aF0.0
aF0.0
aF0.28877255348029085
atp160
a(g1
(lp161
F0.0
aF5.564360452063171
aF0.0
aF5.270867753658721
aF0.0
aF4.141838151654522
aF0.0
aF1.5925416368082326
aF0.0
aF0.0
aF5.474032629658497
aF0.0
aF0.0
aF1.9923670602439307
aF0.0
aF0.0
aF2.9137072888018443
aF0.0
aF0.0
aF0.28423465531631315
atp162
a(g1
(lp163
F0.0
aF5.377936201725306
aF0.0
aF5.082937704691426
aF0.0
aF3.9514125460167717
aF0.0
aF1.4372366330695192
aF0.0
aF0.0
aF5.2473752492118635
aF0.0
aF0.0
aF1.7604844317046935
aF0.0
aF0.0
aF2.837127700235481
aF0.0
aF0.0
aF0.2045307338093542
atp164
a(g1
(lp165
F0.0
aF5.577250960691957
aF0.0
aF5.286703035959693
aF0.0
aF4.170288145522924
aF0.0
aF1.64849899292298
aF0.0
aF0.0
aF5.503477208661051
aF0.0
aF0.0
aF2.0969702893803785
aF0.0
aF0.0
aF2.8880195334618706
aF0.0
aF0.0
aF0.3329677907570886
atp166
a(g1
(lp167
F0.0
aF5.323900395498667
aF0.0
aF5.027569882601924
aF0.0
aF3.89579128410697
aF0.0
aF1.4139119356073468
aF0.0
aF0.0
aF4.809362529955381
aF0.0
aF0.0
aF1.6320956091484242
aF0.0
aF0.0
aF2.610830736640882
aF0.0
aF0.0
aF0.22220502891697433
atp168
a(g1
(lp169
F0.0
aF5.356114526622952
aF0.0
aF5.06550609362763
aF0.0
aF3.9516707253002172
aF0.0
aF1.4765902662190469
aF0.0
aF0.0
aF4.923104565097418
aF0.0
aF0.0
aF1.8082989766251385
aF0.0
aF0.0
aF2.516438927721447
aF0.0
aF0.0
aF0.2558573351147042
atp170
a(g1
(lp171
F0.0
aF5.279373678677623
aF0.0
aF4.999555997371426
aF0.0
aF3.929866276569484
aF0.0
aF1.5327908061809496
aF0.0
aF0.0
aF4.817791002846826
aF0.0
aF0.0
aF1.858969344810786
aF0.0
aF0.0
aF2.476182955917806
aF0.0
aF0.0
aF0.27678237307291814
atp172
a(g1
(lp173
F0.0
aF5.275865763712844
aF0.0
aF4.9917486432325076
aF0.0
aF3.9036953338003872
aF0.0
aF1.4759814156233464
aF0.0
aF0.0
aF4.872005531533848
aF0.0
aF0.0
aF1.8305573957778316
aF0.0
aF0.0
aF2.4219705590492957
aF0.0
aF0.0
aF0.21689855117231607
atp174
a(g1
(lp175
F0.0
aF5.494030282470457
aF0.0
aF5.208182866895214
aF0.0
aF4.107991537910172
aF0.0
aF1.62774207721842
aF0.0
aF0.0
aF5.378122735065114
aF0.0
aF0.0
aF2.0965310248213282
aF0.0
aF0.0
aF2.7596550165685394
aF0.0
aF0.0
aF0.3023053017685052
atp176
a(g1
(lp177
F0.0
aF5.462493807653628
aF0.0
aF5.1678829712830066
aF0.0
aF4.034748172416972
aF0.0
aF1.5104832433348714
aF0.0
aF0.0
aF5.074710805684855
aF0.0
aF0.0
aF1.837000661816885
aF0.0
aF0.0
aF2.6823561625300965
aF0.0
aF0.0
aF0.24796029276638828
atp178
a(g1
(lp179
F0.0
aF5.395959177049241
aF0.0
aF5.09731324050891
aF0.0
aF3.952265425728514
aF0.0
aF1.4181763473831523
aF0.0
aF0.0
aF5.090515285728392
aF0.0
aF0.0
aF1.6820455642977894
aF0.0
aF0.0
aF2.768762023548084
aF0.0
aF0.0
aF0.18981825566174773
atp180
a(g1
(lp181
F0.0
aF5.177526990290832
aF0.0
aF4.883676250672014
aF0.0
aF3.7598648068449805
aF0.0
aF1.3034291876307085
aF0.0
aF0.0
aF4.530781966477558
aF0.0
aF0.0
aF1.4577052001599597
aF0.0
aF0.0
aF2.4834711385515917
aF0.0
aF0.0
aF0.15691344537136603
atp182
a(g1
(lp183
F0.0
aF5.466780549980302
aF0.0
aF5.17760744276396
aF0.0
aF4.069742973595836
aF0.0
aF1.5817648598592078
aF0.0
aF0.0
aF5.267298731198991
aF0.0
aF0.0
aF1.9802570390030103
aF0.0
aF0.0
aF2.753467991493582
aF0.0
aF0.0
aF0.29009445518695787
atp184
a(g1
(lp185
F0.0
aF5.296537672717441
aF0.0
aF5.005341822796387
aF0.0
aF3.8904415707343403
aF0.0
aF1.4257122696300637
aF0.0
aF0.0
aF4.910830599703452
aF0.0
aF0.0
aF1.7702529397065137
aF0.0
aF0.0
aF2.495075142630269
aF0.0
aF0.0
aF0.20846049903363317
atp186
a(g1
(lp187
F0.0
aF5.404600707051246
aF0.0
aF5.115451300642375
aF0.0
aF4.0120475287519675
aF0.0
aF1.5614728431796618
aF0.0
aF0.0
aF5.069452208941177
aF0.0
aF0.0
aF1.9376541088851122
aF0.0
aF0.0
aF2.6137525833924644
aF0.0
aF0.0
aF0.2810196589763149
atp188
a(g1
(lp189
F0.0
aF5.174951711602861
aF0.0
aF4.892889044194777
aF0.0
aF3.8125307800636774
aF0.0
aF1.4150496298674797
aF0.0
aF0.0
aF4.8317567726850665
aF0.0
aF0.0
aF1.7255586826418436
aF0.0
aF0.0
aF2.4859949020232857
aF0.0
aF0.0
aF0.2102753177008845
atp190
a(g1
(lp191
F0.0
aF5.572350073146122
aF0.0
aF5.288397799969276
aF0.0
aF4.194137292454611
aF0.0
aF1.68987519167556
aF0.0
aF0.0
aF5.578468898464119
aF0.0
aF0.0
aF2.201532746863671
aF0.0
aF0.0
aF2.856102166524435
aF0.0
aF0.0
aF0.3462385756064969
atp192
a(g1
(lp193
F0.0
aF5.455194830456316
aF0.0
aF5.157685814834928
aF0.0
aF4.014683568017941
aF0.0
aF1.4684046940347713
aF0.0
aF0.0
aF4.949669785887366
aF0.0
aF0.0
aF1.75700300732349
aF0.0
aF0.0
aF2.6338665988588787
aF0.0
aF0.0
aF0.25110004100258043
atp194
a(g1
(lp195
F0.0
aF5.644958253604668
aF0.0
aF5.35025057640936
aF0.0
aF4.215044479579257
aF0.0
aF1.6423550869520545
aF0.0
aF0.0
aF5.670380726076771
aF0.0
aF0.0
aF2.107321982366921
aF0.0
aF0.0
aF2.981700551275856
aF0.0
aF0.0
aF0.31134041100328874
atp196
a(g1
(lp197
F0.0
aF5.318298740216047
aF0.0
aF5.023940976638649
aF0.0
aF3.894609473076587
aF0.0
aF1.3930123454927483
aF0.0
aF0.0
aF4.832300459373832
aF0.0
aF0.0
aF1.6499891489743936
aF0.0
aF0.0
aF2.6194595280718778
aF0.0
aF0.0
aF0.21863490101397803
atp198
a(g1
(lp199
F0.0
aF5.5998759108384775
aF0.0
aF5.301462310915762
aF0.0
aF4.153238366530587
aF0.0
aF1.5708323166477582
aF0.0
aF0.0
aF5.5623415273053745
aF0.0
aF0.0
aF1.971318236394763
aF0.0
aF0.0
aF2.9881690242532413
aF0.0
aF0.0
aF0.27901369372647317
atp200
a(g1
(lp201
F0.0
aF5.545264184115779
aF0.0
aF5.249526883020507
aF0.0
aF4.112524104993636
aF0.0
aF1.556747597250512
aF0.0
aF0.0
aF5.383223835963072
aF0.0
aF0.0
aF1.9274011993604514
aF0.0
aF0.0
aF2.8913194412280223
aF0.0
aF0.0
aF0.28552260957432274
atp202
a(g1
(lp203
F0.0
aF5.520493351853734
aF0.0
aF5.233512227353259
aF0.0
aF4.1302251273085
aF0.0
aF1.6272362378299687
aF0.0
aF0.0
aF5.399369962319389
aF0.0
aF0.0
aF2.0914866507595646
aF0.0
aF0.0
aF2.762882321506924
aF0.0
aF0.0
aF0.3014059248800441
atp204
a(g1
(lp205
F0.0
aF5.3758075894385
aF0.0
aF5.091339589676578
aF0.0
aF3.996546419484377
aF0.0
aF1.5215167762963213
aF0.0
aF0.0
aF5.135979196626671
aF0.0
aF0.0
aF1.8802160376149286
aF0.0
aF0.0
aF2.7073609221060617
aF0.0
aF0.0
aF0.25867036326795234
atp206
a(g1
(lp207
F0.0
aF5.585479334756069
aF0.0
aF5.289676297141138
aF0.0
aF4.153561235268132
aF0.0
aF1.5988396786339154
aF0.0
aF0.0
aF5.400927316839009
aF0.0
aF0.0
aF2.021082390595405
aF0.0
aF0.0
aF2.8268562034425906
aF0.0
aF0.0
aF0.29696702576440587
atp208
a(g1
(lp209
F0.0
aF5.5071756645765335
aF0.0
aF5.2177865972076
aF0.0
aF4.107457775044213
aF0.0
aF1.6079907007348953
aF0.0
aF0.0
aF5.359445670113651
aF0.0
aF0.0
aF2.0102467308879173
aF0.0
aF0.0
aF2.813890614889326
aF0.0
aF0.0
aF0.3057251162223303
atp210
a(g1
(lp211
F0.0
aF5.487822532532194
aF0.0
aF5.198475546186285
aF0.0
aF4.08667635250074
aF0.0
aF1.579532705071657
aF0.0
aF0.0
aF5.3718947436061395
aF0.0
aF0.0
aF2.001393998718782
aF0.0
aF0.0
aF2.8172371617001826
aF0.0
aF0.0
aF0.3011769600292988
atp212
a(g1
(lp213
F0.0
aF5.4385576022017315
aF0.0
aF5.14614302994282
aF0.0
aF4.024957587610091
aF0.0
aF1.5249661293115024
aF0.0
aF0.0
aF5.301265738104117
aF0.0
aF0.0
aF1.8926648414164653
aF0.0
aF0.0
aF2.8187508217247528
aF0.0
aF0.0
aF0.25295556451563994
atp214
a(g1
(lp215
F0.0
aF5.4679314150785165
aF0.0
aF5.173676264565266
aF0.0
aF4.044232909610573
aF0.0
aF1.5180087115492666
aF0.0
aF0.0
aF5.2308912846295685
aF0.0
aF0.0
aF1.858064939237564
aF0.0
aF0.0
aF2.781953313696486
aF0.0
aF0.0
aF0.2586099317539422
atp216
a(g1
(lp217
F0.0
aF5.25003888917084
aF0.0
aF4.946924798656208
aF0.0
aF3.7878644244631166
aF0.0
aF1.270674301272848
aF0.0
aF0.0
aF4.799116968324668
aF0.0
aF0.0
aF1.45310760897215
aF0.0
aF0.0
aF2.670303267269379
aF0.0
aF0.0
aF0.13275414726327237
atp218
a(g1
(lp219
F0.0
aF5.566991377458525
aF0.0
aF5.27449165525605
aF0.0
aF4.152119458319357
aF0.0
aF1.6244632052761985
aF0.0
aF0.0
aF5.44062905871479
aF0.0
aF0.0
aF2.120712022210676
aF0.0
aF0.0
aF2.7845912558588584
aF0.0
aF0.0
aF0.289893033582638
atp220
a(g1
(lp221
F0.0
aF5.399014427274102
aF0.0
aF5.114814045235197
aF0.0
aF4.020930019126586
aF0.0
aF1.5587094156273122
aF0.0
aF0.0
aF5.14046968584367
aF0.0
aF0.0
aF1.9877746940659304
aF0.0
aF0.0
aF2.6793412904671565
aF0.0
aF0.0
aF0.2896655435339846
atp222
a(g1
(lp223
F0.0
aF5.486073669807664
aF0.0
aF5.189281619038267
aF0.0
aF4.050780288870982
aF0.0
aF1.5134813737053066
aF0.0
aF0.0
aF5.235208765398334
aF0.0
aF0.0
aF1.8541473446575805
aF0.0
aF0.0
aF2.780445755357022
aF0.0
aF0.0
aF0.24089851291281664
atp224
a(g1
(lp225
F0.0
aF5.435103109323965
aF0.0
aF5.148049609467643
aF0.0
aF4.045754347457402
aF0.0
aF1.5623335013453477
aF0.0
aF0.0
aF5.0906161065382705
aF0.0
aF0.0
aF1.9292456452188205
aF0.0
aF0.0
aF2.626781805091085
aF0.0
aF0.0
aF0.2846019047571095
atp226
a(g1
(lp227
F0.0
aF5.471912604742237
aF0.0
aF5.180115861099224
aF0.0
aF4.059557294760092
aF0.0
aF1.5585387465978477
aF0.0
aF0.0
aF5.338713236334756
aF0.0
aF0.0
aF1.9455718438634009
aF0.0
aF0.0
aF2.8195530055748916
aF0.0
aF0.0
aF0.28702676597809446
atp228
a(g1
(lp229
F0.0
aF5.408301718463694
aF0.0
aF5.113107670240585
aF0.0
aF3.98129316538312
aF0.0
aF1.4741294207240294
aF0.0
aF0.0
aF5.081628557378021
aF0.0
aF0.0
aF1.7915781775083168
aF0.0
aF0.0
aF2.7118303594227515
aF0.0
aF0.0
aF0.2532168108444771
atp230
a(g1
(lp231
F0.0
aF5.38981499131707
aF0.0
aF5.104639068642352
aF0.0
aF4.014559546067232
aF0.0
aF1.5737224297403605
aF0.0
aF0.0
aF5.112643803720297
aF0.0
aF0.0
aF1.9435083017273287
aF0.0
aF0.0
aF2.632822635048089
aF0.0
aF0.0
aF0.28675915470585495
atp232
a(g1
(lp233
F0.0
aF5.36147457019742
aF0.0
aF5.069913980163643
aF0.0
aF3.953559826449535
aF0.0
aF1.4845669730926039
aF0.0
aF0.0
aF5.228425092806129
aF0.0
aF0.0
aF1.8066029355028925
aF0.0
aF0.0
aF2.7219268128641505
aF0.0
aF0.0
aF0.19228409045646905
atp234
a(g1
(lp235
F0.0
aF5.380394331659543
aF0.0
aF5.099615240870502
aF0.0
aF4.025338041895685
aF0.0
aF1.606299173468207
aF0.0
aF0.0
aF5.087065792900295
aF0.0
aF0.0
aF2.0126685907591346
aF0.0
aF0.0
aF2.575044080047015
aF0.0
aF0.0
aF0.302205846729007
atp236
a(g1
(lp237
F0.0
aF5.459953645718735
aF0.0
aF5.178631205201478
aF0.0
aF4.096805957839645
aF0.0
aF1.6419516765096074
aF0.0
aF0.0
aF5.336863961238274
aF0.0
aF0.0
aF2.087934185876007
aF0.0
aF0.0
aF2.6672374628352915
aF0.0
aF0.0
aF0.2808068959942392
atp238
a(g1
(lp239
F0.0
aF5.5264924031608516
aF0.0
aF5.231962758591916
aF0.0
aF4.098814926867304
aF0.0
aF1.544882036514813
aF0.0
aF0.0
aF5.459030544396035
aF0.0
aF0.0
aF1.9165599412837524
aF0.0
aF0.0
aF2.9159440995807913
aF0.0
aF0.0
aF0.2501583785827671
atp240
a(g1
(lp241
F0.0
aF5.321502208998488
aF0.0
aF5.026452890020122
aF0.0
aF3.8937457306331242
aF0.0
aF1.3889096497081457
aF0.0
aF0.0
aF4.8158353301198344
aF0.0
aF0.0
aF1.6106680357935563
aF0.0
aF0.0
aF2.610838786148194
aF0.0
aF0.0
aF0.19990243342985348
atp242
a(g1
(lp243
F0.0
aF5.58458762202998
aF0.0
aF5.301075006021004
aF0.0
aF4.206802330995279
aF0.0
aF1.6928296228403048
aF0.0
aF0.0
aF5.532396035574446
aF0.0
aF0.0
aF2.2092660808297615
aF0.0
aF0.0
aF2.820228562454727
aF0.0
aF0.0
aF0.3572335029802733
atp244
a(g1
(lp245
F0.0
aF5.362687625376997
aF0.0
aF5.066303393010735
aF0.0
aF3.92541154657436
aF0.0
aF1.3776529525740058
aF0.0
aF0.0
aF5.019325293530775
aF0.0
aF0.0
aF1.592544127930181
aF0.0
aF0.0
aF2.77862104348499
aF0.0
aF0.0
aF0.17681805057201477
atp246
a(g1
(lp247
F0.0
aF5.42881513504095
aF0.0
aF5.135690610985867
aF0.0
aF4.011764603932955
aF0.0
aF1.503893163719477
aF0.0
aF0.0
aF5.145661894516893
aF0.0
aF0.0
aF1.8211052354921122
aF0.0
aF0.0
aF2.7586383712215263
aF0.0
aF0.0
aF0.256841273549989
atp248
a(g1
(lp249
F0.0
aF5.331250330535188
aF0.0
aF5.0356788439359725
aF0.0
aF3.9036812812422923
aF0.0
aF1.4059949164337757
aF0.0
aF0.0
aF4.996693023164044
aF0.0
aF0.0
aF1.6778705348304108
aF0.0
aF0.0
aF2.687298276777343
aF0.0
aF0.0
aF0.206718323122897
atp250
a(g1
(lp251
F0.0
aF5.480252927351382
aF0.0
aF5.196823189191883
aF0.0
aF4.110937895936019
aF0.0
aF1.6553086082494721
aF0.0
aF0.0
aF5.2886885966243815
aF0.0
aF0.0
aF2.1560106075968424
aF0.0
aF0.0
aF2.6734030160010906
aF0.0
aF0.0
aF0.31006363199087433
atp252
a(g1
(lp253
F0.0
aF5.1670477976821285
aF0.0
aF4.882008625853655
aF0.0
aF3.791705252814026
aF0.0
aF1.3813046475987698
aF0.0
aF0.0
aF4.863498682761834
aF0.0
aF0.0
aF1.7212120584511457
aF0.0
aF0.0
aF2.510058992421301
aF0.0
aF0.0
aF0.18116459152062114
atp254
a(g1
(lp255
F0.0
aF5.441032735352798
aF0.0
aF5.146791049506963
aF0.0
aF4.017964347543148
aF0.0
aF1.5009071703551469
aF0.0
aF0.0
aF5.205107536428303
aF0.0
aF0.0
aF1.8328717093011901
aF0.0
aF0.0
aF2.7601897474784596
aF0.0
aF0.0
aF0.23442690052452492
atp256
a(g1
(lp257
F0.0
aF5.3533931706300955
aF0.0
aF5.057898066685774
aF0.0
aF3.9246165130362076
aF0.0
aF1.4138121429198822
aF0.0
aF0.0
aF4.872853257821665
aF0.0
aF0.0
aF1.6411835029759094
aF0.0
aF0.0
aF2.6701388680584737
aF0.0
aF0.0
aF0.21342979747943794
atp258
a(g1
(lp259
F0.0
aF5.556736815124357
aF0.0
aF5.264306496734109
aF0.0
aF4.1406163583854205
aF0.0
aF1.6178582963061021
aF0.0
aF0.0
aF5.3877825000967094
aF0.0
aF0.0
aF2.0589103405326266
aF0.0
aF0.0
aF2.7852639796424254
aF0.0
aF0.0
aF0.3221724125946594
atp260
a(g1
(lp261
F0.0
aF5.426962036863966
aF0.0
aF5.135054984357619
aF0.0
aF4.0153684490001265
aF0.0
aF1.531721011456069
aF0.0
aF0.0
aF5.0429023933561785
aF0.0
aF0.0
aF1.8800027609039323
aF0.0
aF0.0
aF2.6614580773378003
aF0.0
aF0.0
aF0.3115257784037463
atp262
a.