(lp0
(VPt
p1
(lp2
F0.0
aF5.186919662104608
aF0.0
aF4.887770993387963
aF0.0
aF3.7408768728809294
aF0.0
aF1.2424534075600915
aF0.0
aF0.0
aF4.09101254166477
aF0.0
aF0.0
aF1.2783482401466495
aF0.0
aF0.0
aF2.2532691402227325
aF0.0
aF0.0
aF0.14049280121209304
atp3
a(g1
(lp4
F0.0
aF5.3330263202148425
aF0.0
aF5.0462781884685235
aF0.0
aF3.9468371145784635
aF0.0
aF1.5289889342208696
aF0.0
aF0.0
aF4.954516994226845
aF0.0
aF0.0
aF1.807847369353695
aF0.0
aF0.0
aF2.6409353164157032
aF0.0
aF0.0
aF0.3170321158317776
atp5
a(g1
(lp6
F0.0
aF5.1356479722569865
aF0.0
aF4.851845076183575
aF0.0
aF3.760068082487675
aF0.0
aF1.3209529726567655
aF0.0
aF0.0
aF4.0994504876975455
aF0.0
aF0.0
aF1.3978967545782364
aF0.0
aF0.0
aF2.183089208510144
aF0.0
aF0.0
aF0.1767704309118095
atp7
a(g1
(lp8
F0.0
aF5.508907342046203
aF0.0
aF5.235054843717716
aF0.0
aF4.180571706449162
aF0.0
aF1.7604285094560446
aF0.0
aF0.0
aF5.234524037121741
aF0.0
aF0.0
aF2.342968586453127
aF0.0
aF0.0
aF2.4109772538392815
aF0.0
aF0.0
aF0.35936613009610535
atp9
a(g1
(lp10
F0.0
aF4.552906309733851
aF0.0
aF4.294606585724222
aF0.0
aF3.316186716361214
aF0.0
aF1.2504259582647397
aF0.0
aF0.0
aF3.330556843024425
aF0.0
aF0.0
aF1.260110957427895
aF0.0
aF0.0
aF1.7161928663484731
aF0.0
aF0.0
aF0.16966660124993338
atp11
a(g1
(lp12
F0.0
aF5.273412451025891
aF0.0
aF5.009467549770456
aF0.0
aF3.99399171559004
aF0.0
aF1.679852201751924
aF0.0
aF0.0
aF4.828594521925485
aF0.0
aF0.0
aF2.159035222105218
aF0.0
aF0.0
aF2.408910917349091
aF0.0
aF0.0
aF0.3778105988836751
atp13
a(g1
(lp14
F0.0
aF4.595741165142345
aF0.0
aF4.330207110755131
aF0.0
aF3.3213202887445643
aF0.0
aF1.1384435257022403
aF0.0
aF0.0
aF3.3177279941468614
aF0.0
aF0.0
aF1.1981602723320302
aF0.0
aF0.0
aF1.6546438802061767
aF0.0
aF0.0
aF0.09686971305395212
atp15
a(g1
(lp16
F0.0
aF5.010136965057613
aF0.0
aF4.731529364818865
aF0.0
aF3.669076927615646
aF0.0
aF1.3291586511095332
aF0.0
aF0.0
aF4.481524833684573
aF0.0
aF0.0
aF1.4777397857700973
aF0.0
aF0.0
aF2.4272708863539165
aF0.0
aF0.0
aF0.14982574689170672
atp17
a(g1
(lp18
F0.0
aF5.311119333737846
aF0.0
aF5.010228392709574
aF0.0
aF3.856293366192043
aF0.0
aF1.3228623836758044
aF0.0
aF0.0
aF4.277992345976688
aF0.0
aF0.0
aF1.4278500184557141
aF0.0
aF0.0
aF2.298873361938941
aF0.0
aF0.0
aF0.17260637538794552
atp19
a(g1
(lp20
F0.0
aF5.084339535057909
aF0.0
aF4.805860368170171
aF0.0
aF3.738569893401484
aF0.0
aF1.3861158111164427
aF0.0
aF0.0
aF4.855340259398954
aF0.0
aF0.0
aF1.6158409504605586
aF0.0
aF0.0
aF2.5550145653847416
aF0.0
aF0.0
aF0.17349594808364283
atp21
a(g1
(lp22
F0.001134461827151952
aF5.366386370712869
aF0.0009531243713920677
aF5.073720205336777
aF0.00042467661254233144
aF3.9481042208799746
aF9.964080129986113e-06
aF1.4322017219463101
aF0.0
aF0.0007796067805562554
aF4.51320242073897
aF0.0
aF9.217178518798742e-05
aF1.5889910532427929
aF0.0
aF0.0005674620544540648
aF2.4009331342751867
aF0.0
aF3.209382037222211e-07
aF0.22889333007426135
atp23
a(g1
(lp24
F0.0
aF4.975549294967641
aF0.0
aF4.680413806034482
aF0.0
aF3.5558338969556984
aF0.0
aF1.151126798892145
aF0.0
aF0.0
aF4.503851972875772
aF0.0
aF0.0
aF1.2766515283919908
aF0.0
aF0.0
aF2.5652083498977087
aF0.0
aF0.0
aF0.09706293906655804
atp25
a(g1
(lp26
F0.0
aF4.51374988627926
aF0.0
aF4.251777318597184
aF0.0
aF3.2540622602380465
aF0.0
aF1.0934779223385767
aF0.0
aF0.0
aF3.299721105257503
aF0.0
aF0.0
aF1.1093949003999648
aF0.0
aF0.0
aF1.7161628266303695
aF0.0
aF0.0
aF0.1109339265628149
atp27
a(g1
(lp28
F0.0
aF5.228646659931885
aF0.0
aF4.971737080093262
aF0.0
aF3.9813355725221897
aF0.0
aF1.6658876291587845
aF0.0
aF0.0
aF4.833654998017272
aF0.0
aF0.0
aF2.132067458400087
aF0.0
aF0.0
aF2.2711113273443
aF0.0
aF0.0
aF0.33241292100971287
atp29
a(g1
(lp30
F0.0
aF4.61567421752123
aF0.0
aF4.350961919039517
aF0.0
aF3.3450304123253884
aF0.0
aF1.170692668270003
aF0.0
aF0.0
aF3.4881003511699835
aF0.0
aF0.0
aF1.2409137249837827
aF0.0
aF0.0
aF1.8254325657169022
aF0.0
aF0.0
aF0.13350423640971745
atp31
a(g1
(lp32
F0.0015506609665470463
aF4.840876465567043
aF0.0013029196773986613
aF4.564396495742715
aF0.0005808109608817586
aF3.513510346784126
aF1.3669309260421546e-05
aF1.2339798065588743
aF4.25177782110265e-07
aF0.0005259870522608478
aF4.142725086530011
aF1.0824145455164258e-08
aF7.012746847069515e-05
aF1.3458550347593263
aF3.9429114224927304e-07
aF0.00036659828822515494
aF2.248825506859603
aF1.6561865404835693e-13
aF2.732979331183337e-07
aF0.1490194917582184
atp33
a(g1
(lp34
F0.0
aF5.290164151775047
aF0.0
aF4.982202169213385
aF0.0
aF3.80679243516512
aF0.0
aF1.2771071288766676
aF0.0
aF0.0
aF4.586287895558609
aF0.0
aF0.0
aF1.3951861818302478
aF0.0
aF0.0
aF2.5973055641136344
aF0.0
aF0.0
aF0.16457397375171073
atp35
a(g1
(lp36
F0.0
aF4.895409585172163
aF0.0
aF4.609165096958876
aF0.0
aF3.5225045090951244
aF0.0
aF1.2569257657481347
aF0.0
aF0.0
aF4.105515603966507
aF0.0
aF0.0
aF1.2957172422276237
aF0.0
aF0.0
aF2.330415880099363
aF0.0
aF0.0
aF0.19449941718399713
atp37
a(g1
(lp38
F0.0
aF5.17809069735238
aF0.0
aF4.904013598571366
aF0.0
aF3.8548912329956075
aF0.0
aF1.4907948296661633
aF0.0
aF0.0
aF4.529696705430826
aF0.0
aF0.0
aF1.7381182212382782
aF0.0
aF0.0
aF2.3365856335978274
aF0.0
aF0.0
aF0.26484929571712135
atp39
a(g1
(lp40
F0.0
aF4.9598012881040905
aF0.0
aF4.681155622401275
aF0.0
aF3.6137670643918125
aF0.0
aF1.2633324308169513
aF0.0
aF0.0
aF4.16721782856141
aF0.0
aF0.0
aF1.3917051428061489
aF0.0
aF0.0
aF2.207880492553411
aF0.0
aF0.0
aF0.13402535132130014
atp41
a(g1
(lp42
F0.0
aF5.493522814050801
aF0.0
aF5.2181184460733805
aF0.0
aF4.158758819466514
aF0.0
aF1.7998501618034144
aF0.0
aF0.0
aF5.2852809820159194
aF0.0
aF0.0
aF2.3392759933246645
aF0.0
aF0.0
aF2.665576756215823
aF0.0
aF0.0
aF0.40734865650948615
atp43
a(g1
(lp44
F0.0
aF5.250057246042325
aF0.0
aF4.97253843027246
aF0.0
aF3.9041421600157364
aF0.0
aF1.5212298564409534
aF0.0
aF0.0
aF5.0713469863490985
aF0.0
aF0.0
aF1.8751618471920786
aF0.0
aF0.0
aF2.6350836320186803
aF0.0
aF0.0
aF0.22192451030120688
atp45
a(g1
(lp46
F0.0
aF5.085249909980541
aF0.0
aF4.789472409972397
aF0.0
aF3.6606617882175607
aF0.0
aF1.2246752772337235
aF0.0
aF0.0
aF4.526956062033553
aF0.0
aF0.0
aF1.3331484929725261
aF0.0
aF0.0
aF2.541066349800868
aF0.0
aF0.0
aF0.11285443169492267
atp47
a(g1
(lp48
F0.0
aF4.846606895340488
aF0.0
aF4.559060512140017
aF0.0
aF3.464449812072295
aF0.0
aF1.1236758709129087
aF0.0
aF0.0
aF3.97590810852293
aF0.0
aF0.0
aF1.177345488669331
aF0.0
aF0.0
aF2.193097555780032
aF0.0
aF0.0
aF0.08799437898180194
atp49
a(g1
(lp50
F0.0
aF5.618720971099093
aF0.0
aF5.324886649441134
aF0.0
aF4.197988435350274
aF0.0
aF1.6642943281898377
aF0.0
aF0.0
aF5.540060282662693
aF0.0
aF0.0
aF2.124564546592829
aF0.0
aF0.0
aF2.873898879800516
aF0.0
aF0.0
aF0.32928532384626275
atp51
a(g1
(lp52
F0.0
aF5.218936515619127
aF0.0
aF4.932461738880061
aF0.0
aF3.83585656967504
aF0.0
aF1.4149055684635272
aF0.0
aF0.0
aF4.58045478269877
aF0.0
aF0.0
aF1.6795391698786486
aF0.0
aF0.0
aF2.416376657275832
aF0.0
aF0.0
aF0.2549640207958673
atp53
a(g1
(lp54
F0.0
aF5.489300514951892
aF0.0
aF5.212103069520441
aF0.0
aF4.1460890005876845
aF0.0
aF1.7026303470631903
aF0.0
aF0.0
aF5.32845968896572
aF0.0
aF0.0
aF2.2414022295170484
aF0.0
aF0.0
aF2.5787401948705426
aF0.0
aF0.0
aF0.3300470740566434
atp55
a(g1
(lp56
F0.0
aF5.054785345461879
aF0.0
aF4.763010369076402
aF0.0
aF3.6514909724191273
aF0.0
aF1.2553791192321784
aF0.0
aF0.0
aF4.230225450385918
aF0.0
aF0.0
aF1.4036206469528585
aF0.0
aF0.0
aF2.312566253101626
aF0.0
aF0.0
aF0.17877905963076124
atp57
a(g1
(lp58
F0.0
aF5.4499092340176025
aF0.0
aF5.1644428605749715
aF0.0
aF4.061314103997347
aF0.0
aF1.5350141371618018
aF0.0
aF0.0
aF5.302858846512157
aF0.0
aF0.0
aF1.903843853339075
aF0.0
aF0.0
aF2.78643976659284
aF0.0
aF0.0
aF0.2379395895133181
atp59
a(g1
(lp60
F0.0
aF5.599566562802881
aF0.0
aF5.317204725910222
aF0.0
aF4.228472442264956
aF0.0
aF1.7305776013241516
aF0.0
aF0.0
aF5.209019440594652
aF0.0
aF0.0
aF2.243031280497681
aF0.0
aF0.0
aF2.5654621833398186
aF0.0
aF0.0
aF0.3897786662768965
atp61
a(g1
(lp62
F0.0
aF5.475428260609928
aF0.0
aF5.173402448332761
aF0.0
aF4.014394825774096
aF0.0
aF1.4528353690665359
aF0.0
aF0.0
aF5.187238880032417
aF0.0
aF0.0
aF1.7364246045377878
aF0.0
aF0.0
aF2.8015856568723305
aF0.0
aF0.0
aF0.2076044964585504
atp63
a(g1
(lp64
F0.0
aF5.379096582910271
aF0.0
aF5.098806327651836
aF0.0
aF4.020398650521572
aF0.0
aF1.5728200373588712
aF0.0
aF0.0
aF5.3222595166769
aF0.0
aF0.0
aF1.9958707176732404
aF0.0
aF0.0
aF2.7552169382122313
aF0.0
aF0.0
aF0.2814106994146701
atp65
a(g1
(lp66
F0.13666603955645507
aF5.678459242778397
aF0.1231159094829267
aF5.369100076660387
aF0.07585163564679964
aF4.179247612445174
aF0.008038824768231532
aF1.5174737934918132
aF0.00015966381954353839
aF0.1871929875370317
aF5.488128234781368
aF2.4506959982732306e-06
aF0.044048219657651475
aF1.7911132634386688
aF0.000152531783840843
aF0.1108112457740902
aF3.0732492838530856
aF8.466268899077064e-12
aF0.0010658606853143793
aF0.25454239463573924
atp67
a(g1
(lp68
F0.20522194868861215
aF6.126070099710478
aF0.18668957034927466
aF5.835116769097633
aF0.12065486540562692
aF4.702323024175219
aF0.016499387643761663
aF2.038967282369152
aF0.00381090443643259
aF0.3636931824775666
aF7.0054960280832885
aF6.963414069288844e-05
aF0.10299164792606089
aF3.0085703766987177
aF0.003609410006233745
aF0.2015692575970309
aF3.4966687736489295
aF4.0235820958421703e-10
aF0.004124279602609403
aF0.5066505130794722
atp69
a(g1
(lp70
F0.15158061540837184
aF5.82613791286711
aF0.1371338812332453
aF5.517976058491181
aF0.08614712097120235
aF4.326565898168664
aF0.009956012122189061
aF1.6054271783952065
aF0.0
aF0.22492461016538756
aF5.995030628080976
aF0.0
aF0.05275397106859651
aF2.000660586980809
aF0.0
aF0.13490165908564034
aF3.3493249634713784
aF0.0
aF0.0017565755894146232
aF0.28197293623042385
atp71
a(g1
(lp72
F0.10220497709532299
aF5.739322162701687
aF0.09124051513065293
aF5.472204802541133
aF0.05388032351354773
aF4.439260560842152
aF0.004673387362371958
aF2.012699280410399
aF0.0
aF0.2020550831854863
aF6.6920916217558135
aF0.0
aF0.04006225610383284
aF3.0196154176356953
aF0.0
aF0.12755708241608263
aF3.1803045578046665
aF0.0
aF0.0008022276580369689
aF0.5699690884827671
atp73
a(g1
(lp74
F0.0034529383840531153
aF5.3655257856670175
aF0.002917796703147465
aF5.07646581284887
aF0.0013353588914926389
aF3.970064143788957
aF3.5479546316389016e-05
aF1.5067888775336165
aF0.0
aF0.0011438469254796907
aF4.426382078375545
aF0.0
aF0.0002411884745866484
aF1.8295280306306199
aF0.0
aF0.0006568724400118402
aF2.180647426344955
aF0.0
aF1.7029902510708744e-06
aF0.2849523012828859
atp75
a(g1
(lp76
F0.30990076023227586
aF5.542387956479724
aF0.2826436798912505
aF5.255969741826806
aF0.18503326039532486
aF4.160442919764048
aF0.027600470275150692
aF1.6831365854408127
aF0.02779679890509936
aF0.2872902809346286
aF5.2414343815890385
aF0.0009685923401546209
aF0.09314814474916135
aF2.095623644605276
aF0.025082353525745317
aF0.14595313097107812
aF2.7291888269433375
aF3.697883841027821e-08
aF0.004538891226040163
aF0.3557963703408004
atp77
a(g1
(lp78
F0.10106542495689756
aF5.0908346500547434
aF0.09005840925874702
aF4.820760746787008
aF0.052767057773118554
aF3.789176555889112
aF0.004452136736947333
aF1.4853835797080954
aF0.0002783847266445695
aF0.04676173484558344
aF4.553170645262211
aF5.867910726427585e-06
aF0.013766590552758903
aF1.796839157468641
aF0.0002614978417818139
aF0.025224097992553682
aF2.31759574483406
aF5.1620295112727903e-11
aF0.0005838357431652791
aF0.28102562545835497
atp79
a(g1
(lp80
F0.7690846405672359
aF5.9185379119224475
aF0.7329507108534971
aF5.632292595715762
aF0.5907381483237495
aF4.526607942962108
aF0.24402747206524053
aF1.9398225607836352
aF0.16620537601415858
aF0.49712810094209947
aF6.936233767716973
aF0.0021251135331862305
aF0.7665972979636287
aF2.794601095963578
aF0.15998965776181415
aF0.04786186772820251
aF3.557669732194806
aF4.276024536040843e-09
aF0.2204142620202429
aF0.4491745776601724
atp81
a(VCu
p82
(lp83
F0.7769257461497604
aF2.4417602796541353
aF0.7634251255963997
aF2.2629004983762644
aF0.7037683548246481
aF1.6089871569321514
aF0.4824043723902949
aF0.41841749197342604
aF0.0
aF0.03459069016440072
aF1.9157292873792906
aF0.0
aF0.22340980371988306
aF0.2667978974905146
aF0.0
aF0.0007335117290163582
aF1.341992553120787
aF0.0
aF0.15831202782281184
aF0.0022238857730710855
atp84
a(g82
(lp85
F0.7769257461497604
aF0.38321785914950635
aF0.7634251255963997
aF0.34221634874324214
aF0.7037683548246481
aF0.2034298901018291
aF0.4824043723902949
aF0.01999952506096543
aF0.0
aF0.24207038130805525
aF0.05007124961977744
aF0.0
aF0.01593011257622854
aF0.0044581533909687785
aF0.0
aF0.20517670636705793
aF0.03906407363057423
aF0.0
aF5.7799793292294295e-05
aF5.7217441183433625e-06
atp86
a(g1
(lp87
F0.007204613182074547
aF5.4417852637679545
aF0.006124100403696655
aF5.136636048712138
aF0.0028806663678935178
aF3.966358257582198
aF8.692478054437732e-05
aF1.3873901811245497
aF0.0
aF0.006208385856672369
aF4.755427484119179
aF0.0
aF0.000796351315901954
aF1.5292392047898336
aF0.0
aF0.004492589287452341
aF2.650576992211061
aF0.0
aF6.566111105362562e-06
aF0.20058679100895582
atp88
a(g1
(lp89
F0.007179283968802825
aF5.489290283742814
aF0.006102365606849618
aF5.182151838884088
aF0.0028699966237870885
aF4.009554430732283
aF8.654036640539098e-05
aF1.4960703653874645
aF0.0
aF0.009646894095331988
aF5.757157810423598
aF0.0
aF0.0010521613171819166
aF1.7480674579556215
aF0.0
aF0.007335356415553143
aF3.1631540214789533
aF0.0
aF5.723519146159557e-06
aF0.14467362720281435
atp90
a(g1
(lp91
F0.0
aF5.303732069870422
aF0.0
aF5.00983442974775
aF0.0
aF3.880787954086664
aF0.0
aF1.3656385429085223
aF0.0
aF0.0
aF4.332019459182601
aF0.0
aF0.0
aF1.5374695760875923
aF0.0
aF0.0
aF2.322034302249244
aF0.0
aF0.0
aF0.18449597954398037
atp92
a(g1
(lp93
F0.0
aF5.092541583994521
aF0.0
aF4.819625383723705
aF0.0
aF3.7781277736616548
aF0.0
aF1.5125576668997884
aF0.0
aF0.0
aF4.966984489557067
aF0.0
aF0.0
aF1.8282023792840432
aF0.0
aF0.0
aF2.642006818072897
aF0.0
aF0.0
aF0.19025261534400256
atp94
a(g1
(lp95
F0.05345362657197621
aF5.270672326826039
aF0.04688314958355193
aF4.989545120946218
aF0.02550527691192435
aF3.9178738933760737
aF0.0015116648636695855
aF1.560993884092549
aF0.0
aF0.028224714424441404
aF4.654781422447037
aF0.0
aF0.0070840378716466815
aF1.891875341774186
aF0.0
aF0.01569354780707465
aF2.1728066691783936
aF0.0
aF0.00013976991892193408
aF0.18618643761749604
atp96
a(g1
(lp97
F0.39635366857347804
aF5.848428110381392
aF0.37034895305919113
aF5.56271630372017
aF0.2717158225771884
aF4.4600607828993875
aF0.06876522230119354
aF1.880468918226333
aF0.018463954077408258
aF0.46351888311802847
aF6.46670363401704
aF4.1105423007565865e-05
aF0.21707018320605578
aF2.649275562170529
aF0.018341184844192813
aF0.19835652745218627
aF3.250712427343445
aF4.5053136362234806e-13
aF0.026211993317694894
aF0.39865222638561293
atp98
a(g1
(lp99
F0.0
aF4.605209470026498
aF0.0
aF4.340177121369281
aF0.0
aF3.336013442709761
aF0.0
aF1.2307184267631746
aF0.0
aF0.0
aF3.480114159992668
aF0.0
aF0.0
aF1.2249820462231487
aF0.0
aF0.0
aF1.860794755755344
aF0.0
aF0.0
aF0.14225392839784695
atp100
a(g1
(lp101
F0.01243552327168804
aF5.189772792804455
aF0.010633265660929812
aF4.89822206020556
aF0.005141036544951021
aF3.7926719640439464
aF0.00017623457414896312
aF1.4415312098033515
aF0.0
aF0.006951969581165243
aF4.651481157743139
aF0.0
aF0.0008668273571237961
aF1.6052113405168245
aF0.0
aF0.005031451544209307
aF2.607466725901801
aF0.0
aF6.867454080722866e-06
aF0.2731811175698791
atp102
a(g1
(lp103
F0.0
aF5.342713011649862
aF0.0
aF5.044553966182879
aF0.0
aF3.905609340111183
aF0.0
aF1.412561332077585
aF0.0
aF0.0
aF4.809767460925224
aF0.0
aF0.0
aF1.6323522034493179
aF0.0
aF0.0
aF2.6350459428535555
aF0.0
aF0.0
aF0.22042257325914105
atp104
a(g1
(lp105
F0.0
aF4.959354622259139
aF0.0
aF4.671661744127556
aF0.0
aF3.574056163268797
aF0.0
aF1.2024680743808172
aF0.0
aF0.0
aF4.124392527700747
aF0.0
aF0.0
aF1.333162537390974
aF0.0
aF0.0
aF2.2292642059114907
aF0.0
aF0.0
aF0.14202245243615372
atp106
a(g1
(lp107
F0.0
aF5.218329877339228
aF0.0
aF4.921737864296335
aF0.0
aF3.790754719710181
aF0.0
aF1.3352716491628591
aF0.0
aF0.0
aF4.397531055494983
aF0.0
aF0.0
aF1.5089793691830873
aF0.0
aF0.0
aF2.3789185669124286
aF0.0
aF0.0
aF0.1865435487603636
atp108
a(g1
(lp109
F0.0
aF5.012323708830698
aF0.0
aF4.7351035424525305
aF0.0
aF3.6702913890770943
aF0.0
aF1.299433641470821
aF0.0
aF0.0
aF4.134401980302897
aF0.0
aF0.0
aF1.5134903447423378
aF0.0
aF0.0
aF2.1154981891496147
aF0.0
aF0.0
aF0.17092632611539121
atp110
a(g1
(lp111
F0.05172944523884324
aF5.489538500447955
aF0.04503775428443308
aF5.198804280640873
aF0.023703735562414924
aF4.081681978859281
aF0.0012287949120094455
aF1.5645558364859895
aF0.00048214813413789904
aF0.04299969188963968
aF5.257150650782391
aF1.349316889596449e-05
aF0.007902626320622923
aF1.896296093833352
aF0.0004438328994785165
aF0.026554052969359438
aF2.8776567408173817
aF2.7224089002242245e-10
aF5.080283139291565e-05
aF0.32229153810580546
atp112
a(g1
(lp113
F0.0
aF5.405368188672444
aF0.0
aF5.110322821736449
aF0.0
aF3.9798518834281618
aF0.0
aF1.4796908487319764
aF0.0
aF0.0
aF4.946753817217382
aF0.0
aF0.0
aF1.7779766367325216
aF0.0
aF0.0
aF2.5779795234546827
aF0.0
aF0.0
aF0.2240008661866364
atp114
a(g1
(lp115
F0.36670102904293755
aF5.6931451648424485
aF0.3373046978568123
aF5.400105012530545
aF0.22994680391994834
aF4.272463282723408
aF0.04194770158139927
aF1.7137687197301816
aF0.036028833018705096
aF0.3747036355616005
aF6.318832512639354
aF0.0011436241443345103
aF0.16274021713672718
aF2.245637504346154
aF0.03280476816473735
aF0.16639202546685827
aF3.387938685358003
aF3.3301933840833934e-08
aF0.014539430202534296
aF0.30323527193051847
atp116
a(g1
(lp117
F0.0
aF4.90290346557454
aF0.0
aF4.635628140413817
aF0.0
aF3.6162340721940285
aF0.0
aF1.380108964388272
aF0.0
aF0.0
aF4.053108998544319
aF0.0
aF0.0
aF1.57500247941324
aF0.0
aF0.0
aF2.0229369760188023
aF0.0
aF0.0
aF0.21690820419868193
atp118
a(g1
(lp119
F0.0
aF5.257112165378544
aF0.0
aF4.960118921010224
aF0.0
aF3.820656315402528
aF0.0
aF1.3115339543524456
aF0.0
aF0.0
aF4.610628284495372
aF0.0
aF0.0
aF1.4316613242934637
aF0.0
aF0.0
aF2.6023674815981512
aF0.0
aF0.0
aF0.1744999598614417
atp120
a(g1
(lp121
F0.0
aF4.915865491902025
aF0.0
aF4.608058021931442
aF0.0
aF3.4387233861389364
aF0.0
aF1.0079137118472097
aF0.0
aF0.0
aF4.035840810338874
aF0.0
aF0.0
aF1.0433218625508616
aF0.0
aF0.0
aF2.3567896591902695
aF0.0
aF0.0
aF0.06700005421606871
atp122
a(g1
(lp123
F0.0
aF5.512596687074383
aF0.0
aF5.231176491416783
aF0.0
aF4.15163642653354
aF0.0
aF1.6934610245317518
aF0.0
aF0.0
aF5.355302161035709
aF0.0
aF0.0
aF2.2243903936143905
aF0.0
aF0.0
aF2.7767063369671607
aF0.0
aF0.0
aF0.3112992465527452
atp124
a(g1
(lp125
F0.0
aF5.232402152815481
aF0.0
aF4.962479074735212
aF0.0
aF3.923378435892672
aF0.0
aF1.588581078732722
aF0.0
aF0.0
aF4.737308885347227
aF0.0
aF0.0
aF2.0752391151495275
aF0.0
aF0.0
aF2.444575337703534
aF0.0
aF0.0
aF0.3757973644782759
atp126
a(g1
(lp127
F0.14805848127091759
aF5.514387701880439
aF0.1336760437125098
aF5.211041762567387
aF0.08324045003158669
aF4.050893830372011
aF0.009307129745421291
aF1.4861455331146094
aF0.0003979010718730602
aF0.17409852853924765
aF5.756270353527869
aF6.212321356802257e-06
aF0.04498103157369838
aF1.839012437711995
aF0.00037983125957393284
aF0.09434747351110011
aF3.1168382941928727
aF2.256866761313701e-11
aF0.0011941948308108897
aF0.15679925720302307
atp128
a(g1
(lp129
F0.0
aF4.730582760300027
aF0.0
aF4.464590583286255
aF0.0
aF3.4562600069249103
aF0.0
aF1.2929664457885686
aF0.0
aF0.0
aF3.749379646389979
aF0.0
aF0.0
aF1.3845984038731767
aF0.0
aF0.0
aF1.8925065488034043
aF0.0
aF0.0
aF0.1690624810869596
atp130
a(g1
(lp131
F0.0
aF5.55874580993934
aF0.0
aF5.269493512579136
aF0.0
aF4.159919131320763
aF0.0
aF1.7315297201607955
aF0.0
aF0.0
aF5.377902384740041
aF0.0
aF0.0
aF2.1184223868378647
aF0.0
aF0.0
aF2.812903106221264
aF0.0
aF0.0
aF0.39126984507829204
atp132
a(g1
(lp133
F0.0
aF5.537489749525151
aF0.0
aF5.250590037449908
aF0.0
aF4.1443298330358544
aF0.0
aF1.6486364362517898
aF0.0
aF0.0
aF5.214382335793382
aF0.0
aF0.0
aF2.1188613552597593
aF0.0
aF0.0
aF2.6135232212169357
aF0.0
aF0.0
aF0.3280715241662497
atp134
a(g1
(lp135
F0.0
aF5.219884076995218
aF0.0
aF4.919105785719076
aF0.0
aF3.7701378578665086
aF0.0
aF1.2885068319445074
aF0.0
aF0.0
aF4.288281253356183
aF0.0
aF0.0
aF1.4176587785930344
aF0.0
aF0.0
aF2.3332768575625664
aF0.0
aF0.0
aF0.16817022601220868
atp136
a(g1
(lp137
F0.0
aF4.6497575459867075
aF0.0
aF4.3747991096079994
aF0.0
aF3.342697525792214
aF0.0
aF1.2784907685161935
aF0.0
aF0.0
aF3.5001123565147085
aF0.0
aF0.0
aF1.2540503568720525
aF0.0
aF0.0
aF1.965788352060879
aF0.0
aF0.0
aF0.2481127036255093
atp138
a(g1
(lp139
F0.0
aF5.054537961404312
aF0.0
aF4.792861023536262
aF0.0
aF3.7876751416026266
aF0.0
aF1.490513589122347
aF0.0
aF0.0
aF4.248009627682278
aF0.0
aF0.0
aF1.7641843955336172
aF0.0
aF0.0
aF2.035995025356986
aF0.0
aF0.0
aF0.26084484348533027
atp140
a(g1
(lp141
F0.0
aF5.274105422458298
aF0.0
aF4.988884221889508
aF0.0
aF3.891578212549722
aF0.0
aF1.44051434387255
aF0.0
aF0.0
aF4.696806819746108
aF0.0
aF0.0
aF1.641391258636955
aF0.0
aF0.0
aF2.523107806444747
aF0.0
aF0.0
aF0.21331784209696886
atp142
a(g1
(lp143
F0.0
aF5.309753877349215
aF0.0
aF5.038151563853558
aF0.0
aF3.993382075683342
aF0.0
aF1.7069658299485913
aF0.0
aF0.0
aF4.7597773007422175
aF0.0
aF0.0
aF2.18186912845743
aF0.0
aF0.0
aF2.3562792501270624
aF0.0
aF0.0
aF0.3929881435379701
atp144
a(g1
(lp145
F0.0
aF4.89089598519698
aF0.0
aF4.616680288706524
aF0.0
aF3.569212722545856
aF0.0
aF1.3303895395703373
aF0.0
aF0.0
aF4.009832140418058
aF0.0
aF0.0
aF1.4678360682891558
aF0.0
aF0.0
aF2.1431122417802477
aF0.0
aF0.0
aF0.19891162821362762
atp146
a(g1
(lp147
F0.0
aF5.028917728184318
aF0.0
aF4.735750985250258
aF0.0
aF3.620938521579757
aF0.0
aF1.2401862297382014
aF0.0
aF0.0
aF4.051722301809395
aF0.0
aF0.0
aF1.335689453106152
aF0.0
aF0.0
aF2.1470771265111046
aF0.0
aF0.0
aF0.12674352482812445
atp148
a(g1
(lp149
F0.0
aF4.856487876518581
aF0.0
aF4.570227337368151
aF0.0
aF3.477574546705727
aF0.0
aF1.1215809538275772
aF0.0
aF0.0
aF3.890255012696473
aF0.0
aF0.0
aF1.1888187864685753
aF0.0
aF0.0
aF2.1139827544264445
aF0.0
aF0.0
aF0.08573551048242298
atp150
a(g1
(lp151
F0.0
aF5.467541409838555
aF0.0
aF5.168907483509052
aF0.0
aF4.024977601111668
aF0.0
aF1.4956282662602771
aF0.0
aF0.0
aF5.110681446194769
aF0.0
aF0.0
aF1.816797758693621
aF0.0
aF0.0
aF2.7145053155238146
aF0.0
aF0.0
aF0.24493526445269312
atp152
a(g1
(lp153
F0.0
aF5.409698375382332
aF0.0
aF5.132910510701872
aF0.0
aF4.069188606324416
aF0.0
aF1.663454489797299
aF0.0
aF0.0
aF5.2983396432836
aF0.0
aF0.0
aF2.0751581434002544
aF0.0
aF0.0
aF2.7553571537669117
aF0.0
aF0.0
aF0.33691405005616676
atp154
a(g1
(lp155
F0.0
aF5.452110662850208
aF0.0
aF5.177212943617481
aF0.0
aF4.118042971534969
aF0.0
aF1.6821758289666922
aF0.0
aF0.0
aF5.2880355173066125
aF0.0
aF0.0
aF2.1594081717715925
aF0.0
aF0.0
aF2.6496982831736497
aF0.0
aF0.0
aF0.3132985126956907
atp156
a(g1
(lp157
F0.0
aF5.320853078180655
aF0.0
aF5.028217344297501
aF0.0
aF3.907546783113879
aF0.0
aF1.4319480769334607
aF0.0
aF0.0
aF5.055757278393871
aF0.0
aF0.0
aF1.6306145022115344
aF0.0
aF0.0
aF2.8700241772119544
aF0.0
aF0.0
aF0.19717132180441788
atp158
a(g1
(lp159
F0.0
aF5.034438060331651
aF0.0
aF4.762051908121661
aF0.0
aF3.714468649320881
aF0.0
aF1.3593161039797859
aF0.0
aF0.0
aF4.30812141057614
aF0.0
aF0.0
aF1.5802914335439258
aF0.0
aF0.0
aF2.208100417694785
aF0.0
aF0.0
aF0.20302545388610566
atp160
a(g1
(lp161
F0.0
aF5.378757576458729
aF0.0
aF5.085584926204683
aF0.0
aF3.957369944229729
aF0.0
aF1.4392954281056056
aF0.0
aF0.0
aF4.97605761692959
aF0.0
aF0.0
aF1.698722679555625
aF0.0
aF0.0
aF2.6857039847911213
aF0.0
aF0.0
aF0.1986605408037962
atp162
a(g1
(lp163
F0.0
aF4.856900044576212
aF0.0
aF4.568225496895355
aF0.0
aF3.4690743255073975
aF0.0
aF1.1202659364681327
aF0.0
aF0.0
aF4.229859176475686
aF0.0
aF0.0
aF1.2447530637603872
aF0.0
aF0.0
aF2.3626495894109945
aF0.0
aF0.0
aF0.10240301849319591
atp164
a(g1
(lp165
F0.0
aF5.551801501218469
aF0.0
aF5.2741587883325955
aF0.0
aF4.208530289236981
aF0.0
aF1.8100196380966451
aF0.0
aF0.0
aF5.348982200707401
aF0.0
aF0.0
aF2.3599555310191302
aF0.0
aF0.0
aF2.643319175626797
aF0.0
aF0.0
aF0.4407749324840191
atp166
a(g1
(lp167
F0.0
aF4.920044059818578
aF0.0
aF4.628177928499249
aF0.0
aF3.5215447425949122
aF0.0
aF1.177682068557541
aF0.0
aF0.0
aF3.8854176367897177
aF0.0
aF0.0
aF1.195593482591328
aF0.0
aF0.0
aF2.1866572139945695
aF0.0
aF0.0
aF0.13952959362327488
atp168
a(g1
(lp169
F0.0
aF4.600768710143861
aF0.0
aF4.338295038812837
aF0.0
aF3.3436433612572114
aF0.0
aF1.2150788613638122
aF0.0
aF0.0
aF3.1603566686261364
aF0.0
aF0.0
aF1.2440347361063797
aF0.0
aF0.0
aF1.5793191481686177
aF0.0
aF0.0
aF0.20796161867483653
atp170
a(g1
(lp171
F0.0
aF4.861086480857689
aF0.0
aF4.598928427624759
aF0.0
aF3.598060421050826
aF0.0
aF1.3575041499589633
aF0.0
aF0.0
aF4.009018418497645
aF0.0
aF0.0
aF1.5055610292180357
aF0.0
aF0.0
aF2.0810531666831884
aF0.0
aF0.0
aF0.2099217838648847
atp172
a(g1
(lp173
F0.0
aF4.502981174269437
aF0.0
aF4.24875231278511
aF0.0
aF3.2793459126856623
aF0.0
aF1.1600228385849176
aF0.0
aF0.0
aF3.265736828996106
aF0.0
aF0.0
aF1.2059189825253473
aF0.0
aF0.0
aF1.6250059509549661
aF0.0
aF0.0
aF0.12414628051360543
atp174
a(g1
(lp175
F0.0
aF5.326187795496582
aF0.0
aF5.052374380479836
aF0.0
aF4.001131095378045
aF0.0
aF1.6982310612380749
aF0.0
aF0.0
aF4.8759721458673155
aF0.0
aF0.0
aF2.1524928390508573
aF0.0
aF0.0
aF2.411111606821805
aF0.0
aF0.0
aF0.35749897438404743
atp176
a(g1
(lp177
F0.0
aF5.125046996416399
aF0.0
aF4.851694511193343
aF0.0
aF3.805296959277284
aF0.0
aF1.5522738637413367
aF0.0
aF0.0
aF4.231861803258375
aF0.0
aF0.0
aF1.6535440956733496
aF0.0
aF0.0
aF2.238245469003186
aF0.0
aF0.0
aF0.24642055315047487
atp178
a(g1
(lp179
F0.0
aF4.950370252467883
aF0.0
aF4.649899203055342
aF0.0
aF3.506412331643096
aF0.0
aF1.0873463926407536
aF0.0
aF0.0
aF4.119904385251585
aF0.0
aF0.0
aF1.1641371709715949
aF0.0
aF0.0
aF2.3285702878657277
aF0.0
aF0.0
aF0.0783355641409288
atp180
a(g1
(lp181
F0.0
aF4.599790607403974
aF0.0
aF4.324875016143199
aF0.0
aF3.2847012269488274
aF0.0
aF1.103212262900943
aF0.0
aF0.0
aF3.1844597202330864
aF0.0
aF0.0
aF1.0195879853127632
aF0.0
aF0.0
aF1.7325784508177016
aF0.0
aF0.0
aF0.09902098831767439
atp182
a(g1
(lp183
F0.0
aF5.145187602108137
aF0.0
aF4.87131561163392
aF0.0
aF3.825195060940832
aF0.0
aF1.487158224896337
aF0.0
aF0.0
aF4.7078310013832985
aF0.0
aF0.0
aF1.7473928334023023
aF0.0
aF0.0
aF2.4736722136124225
aF0.0
aF0.0
aF0.24101967461682977
atp184
a(g1
(lp185
F0.0
aF4.443855080542014
aF0.0
aF4.178827278488661
aF0.0
aF3.1772388241841427
aF0.0
aF1.0741739197813778
aF0.0
aF0.0
aF3.1495916307441396
aF0.0
aF0.0
aF1.0649988643965074
aF0.0
aF0.0
aF1.661793640992778
aF0.0
aF0.0
aF0.11784621545286446
atp186
a(g1
(lp187
F0.0
aF5.02290473058633
aF0.0
aF4.742425713675911
aF0.0
aF3.68005387923361
aF0.0
aF1.3767016177658848
aF0.0
aF0.0
aF4.263933454904562
aF0.0
aF0.0
aF1.5531792973785856
aF0.0
aF0.0
aF2.2490890133021963
aF0.0
aF0.0
aF0.21044268219959403
atp188
a(g1
(lp189
F0.0
aF4.37617855180506
aF0.0
aF4.129470706885593
aF0.0
aF3.192649901425801
aF0.0
aF1.1633334593705842
aF0.0
aF0.0
aF3.3017503491334326
aF0.0
aF0.0
aF1.2008982189416686
aF0.0
aF0.0
aF1.7063414050377237
aF0.0
aF0.0
aF0.1562084099149472
atp190
a(g1
(lp191
F0.0
aF5.471702954479259
aF0.0
aF5.2029519834339615
aF0.0
aF4.169293031732102
aF0.0
aF1.797686686237267
aF0.0
aF0.0
aF5.269616264946851
aF0.0
aF0.0
aF2.373633261496833
aF0.0
aF0.0
aF2.509418518133873
aF0.0
aF0.0
aF0.4081229058818813
atp192
a(g1
(lp193
F0.0
aF5.073137947556195
aF0.0
aF4.790038894917238
aF0.0
aF3.7049403335764826
aF0.0
aF1.322774529801757
aF0.0
aF0.0
aF3.86161577666812
aF0.0
aF0.0
aF1.382330432569958
aF0.0
aF0.0
aF2.0360706226458025
aF0.0
aF0.0
aF0.20217819605343038
atp194
a(g1
(lp195
F0.0
aF5.547315175912978
aF0.0
aF5.260378560162156
aF0.0
aF4.156988543983444
aF0.0
aF1.6755909566236689
aF0.0
aF0.0
aF5.417088632050632
aF0.0
aF0.0
aF2.1029562146303866
aF0.0
aF0.0
aF2.788349685357286
aF0.0
aF0.0
aF0.3214962945427081
atp196
a(g1
(lp197
F0.0
aF4.859866358311839
aF0.0
aF4.5847070961841085
aF0.0
aF3.5352212680622817
aF0.0
aF1.2580812995275403
aF0.0
aF0.0
aF3.675851140009378
aF0.0
aF0.0
aF1.2806670563872458
aF0.0
aF0.0
aF1.9894044664666468
aF0.0
aF0.0
aF0.1809382194699069
atp198
a(g1
(lp199
F0.0
aF5.463998705845927
aF0.0
aF5.163976456785321
aF0.0
aF4.011010805377463
aF0.0
aF1.4524470229466326
aF0.0
aF0.0
aF5.125729526353659
aF0.0
aF0.0
aF1.74343353467454
aF0.0
aF0.0
aF2.7730663532439097
aF0.0
aF0.0
aF0.22486365432349598
atp200
a(g1
(lp201
F0.0
aF5.233795124278347
aF0.0
aF4.940709859804393
aF0.0
aF3.8171832511635504
aF0.0
aF1.3493227708534121
aF0.0
aF0.0
aF4.518128443069003
aF0.0
aF0.0
aF1.5130556607698822
aF0.0
aF0.0
aF2.4838373029215783
aF0.0
aF0.0
aF0.20777392426989935
atp202
a(g1
(lp203
F0.0
aF5.191984300894351
aF0.0
aF4.920290414534872
aF0.0
aF3.876852485458275
aF0.0
aF1.5118844414002197
aF0.0
aF0.0
aF4.547808347540357
aF0.0
aF0.0
aF1.8762792944604803
aF0.0
aF0.0
aF2.180001240031385
aF0.0
aF0.0
aF0.2451359390750981
atp204
a(g1
(lp205
F0.0
aF4.835539435248307
aF0.0
aF4.565882408175579
aF0.0
aF3.5313366498839813
aF0.0
aF1.2480430103874935
aF0.0
aF0.0
aF3.9784760684919855
aF0.0
aF0.0
aF1.3762086825431068
aF0.0
aF0.0
aF2.1230294200585975
aF0.0
aF0.0
aF0.15965712172348956
atp206
a(g1
(lp207
F0.0
aF5.328680377595704
aF0.0
aF5.035137832451981
aF0.0
aF3.9114293397226367
aF0.0
aF1.431390329506793
aF0.0
aF0.0
aF4.644916826695819
aF0.0
aF0.0
aF1.6953980048649047
aF0.0
aF0.0
aF2.4128861383122944
aF0.0
aF0.0
aF0.22090100814870384
atp208
a(g1
(lp209
F0.0
aF5.382910362027698
aF0.0
aF5.106272405048465
aF0.0
aF4.048350030418459
aF0.0
aF1.692916159813196
aF0.0
aF0.0
aF5.058512219189691
aF0.0
aF0.0
aF2.066819154081188
aF0.0
aF0.0
aF2.540251623085054
aF0.0
aF0.0
aF0.3391699013853123
atp210
a(g1
(lp211
F0.0
aF5.103268656887866
aF0.0
aF4.825970499578824
aF0.0
aF3.763041576417727
aF0.0
aF1.3978871504598647
aF0.0
aF0.0
aF4.395534492695092
aF0.0
aF0.0
aF1.6671476860844752
aF0.0
aF0.0
aF2.25118352085267
aF0.0
aF0.0
aF0.24720582242094663
atp212
a(g1
(lp213
F0.0
aF4.956675321274538
aF0.0
aF4.671444867099485
aF0.0
aF3.5858140991166705
aF0.0
aF1.2562036916826673
aF0.0
aF0.0
aF4.2913062458026126
aF0.0
aF0.0
aF1.4049833568798735
aF0.0
aF0.0
aF2.310661961177395
aF0.0
aF0.0
aF0.14107389283109298
atp214
a(g1
(lp215
F0.0
aF5.1032247578486505
aF0.0
aF4.817186385083623
aF0.0
aF3.721480517044223
aF0.0
aF1.312120761568645
aF0.0
aF0.0
aF4.363376483537116
aF0.0
aF0.0
aF1.4506042433848796
aF0.0
aF0.0
aF2.354820681435627
aF0.0
aF0.0
aF0.18064610724636615
atp216
a(g1
(lp217
F0.0
aF4.622385875435138
aF0.0
aF4.318598048540033
aF0.0
aF3.1716513083446385
aF0.0
aF0.8518786907180522
aF0.0
aF0.0
aF3.464398146123596
aF0.0
aF0.0
aF0.8509762490919285
aF0.0
aF0.0
aF2.0406308511187192
aF0.0
aF0.0
aF0.03737510504740676
atp218
a(g1
(lp219
F0.0
aF5.323524613591076
aF0.0
aF5.033028062422807
aF0.0
aF3.9230194034292953
aF0.0
aF1.4703734478964907
aF0.0
aF0.0
aF4.729141931943062
aF0.0
aF0.0
aF1.8514825510840942
aF0.0
aF0.0
aF2.4859308211292057
aF0.0
aF0.0
aF0.21458622933066668
atp220
a(g1
(lp221
F0.0
aF4.929696360374493
aF0.0
aF4.659741241527961
aF0.0
aF3.6271005501923024
aF0.0
aF1.425122639867481
aF0.0
aF0.0
aF3.9502252653751135
aF0.0
aF0.0
aF1.6353884273904797
aF0.0
aF0.0
aF2.1665721607894732
aF0.0
aF0.0
aF0.355264459316809
atp222
a(g1
(lp223
F0.0
aF5.087210654878056
aF0.0
aF4.795065692731441
aF0.0
aF3.679391306122344
aF0.0
aF1.269411953738998
aF0.0
aF0.0
aF4.285386444283112
aF0.0
aF0.0
aF1.4054625899929276
aF0.0
aF0.0
aF2.282831289834055
aF0.0
aF0.0
aF0.13235493474544155
atp224
a(g1
(lp225
F0.0
aF5.055973391428485
aF0.0
aF4.782485129860537
aF0.0
aF3.7354385346937615
aF0.0
aF1.4142930724379985
aF0.0
aF0.0
aF4.081355584396102
aF0.0
aF0.0
aF1.6033517668564925
aF0.0
aF0.0
aF2.01399218526872
aF0.0
aF0.0
aF0.2215508956559472
atp226
a(g1
(lp227
F0.0
aF5.196750781279051
aF0.0
aF4.918190062779994
aF0.0
aF3.8556919246116603
aF0.0
aF1.5986584833221085
aF0.0
aF0.0
aF4.692122000007922
aF0.0
aF0.0
aF1.8388548885176135
aF0.0
aF0.0
aF2.4128007961177773
aF0.0
aF0.0
aF0.3041416276864102
atp228
a(g1
(lp229
F0.0
aF4.955964355417824
aF0.0
aF4.672648094789074
aF0.0
aF3.5984489259008203
aF0.0
aF1.3429544923972132
aF0.0
aF0.0
aF3.9362172908631425
aF0.0
aF0.0
aF1.451470442366297
aF0.0
aF0.0
aF2.096185283530245
aF0.0
aF0.0
aF0.24369588675487305
atp230
a(g1
(lp231
F0.0
aF5.047127426641632
aF0.0
aF4.7769934905466
aF0.0
aF3.748045152341335
aF0.0
aF1.461326691925824
aF0.0
aF0.0
aF4.441233679553429
aF0.0
aF0.0
aF1.6955066050478476
aF0.0
aF0.0
aF2.224533299831847
aF0.0
aF0.0
aF0.2359470645769379
atp232
a(g1
(lp233
F0.0
aF4.719418351923547
aF0.0
aF4.446918049505512
aF0.0
aF3.41329469896077
aF0.0
aF1.1986337817442878
aF0.0
aF0.0
aF4.043925095726283
aF0.0
aF0.0
aF1.3141160251676904
aF0.0
aF0.0
aF2.1106719619448433
aF0.0
aF0.0
aF0.09757863509449964
atp234
a(g1
(lp235
F0.0
aF5.034499659525133
aF0.0
aF4.773585885121317
aF0.0
aF3.7774443579706305
aF0.0
aF1.5289833540254794
aF0.0
aF0.0
aF4.408009616137377
aF0.0
aF0.0
aF1.8405353710294636
aF0.0
aF0.0
aF2.104218218335596
aF0.0
aF0.0
aF0.2599220911631843
atp236
a(g1
(lp237
F0.0
aF5.013444662999608
aF0.0
aF4.757056310040723
aF0.0
aF3.773895812039836
aF0.0
aF1.5553500830202216
aF0.0
aF0.0
aF4.418916714831035
aF0.0
aF0.0
aF1.8606341443843948
aF0.0
aF0.0
aF2.0138045043661545
aF0.0
aF0.0
aF0.21517502373173963
atp238
a(g1
(lp239
F0.0
aF5.19336409554698
aF0.0
aF4.900977878013276
aF0.0
aF3.782212609005794
aF0.0
aF1.3283167943098526
aF0.0
aF0.0
aF4.696880735922676
aF0.0
aF0.0
aF1.5215193466393955
aF0.0
aF0.0
aF2.5252006396418634
aF0.0
aF0.0
aF0.1439256237336711
atp240
a(g1
(lp241
F0.0
aF4.939904002693839
aF0.0
aF4.66246842373793
aF0.0
aF3.599082791857537
aF0.0
aF1.2674836450670985
aF0.0
aF0.0
aF3.882577130860896
aF0.0
aF0.0
aF1.30495307703795
aF0.0
aF0.0
aF2.1073658567754183
aF0.0
aF0.0
aF0.16157484393743046
atp242
a(g1
(lp243
F0.0
aF5.400856744069419
aF0.0
aF5.136982562998255
aF0.0
aF4.1138453754147255
aF0.0
aF1.7179198719147113
aF0.0
aF0.0
aF4.950176708164107
aF0.0
aF0.0
aF2.2618024659072353
aF0.0
aF0.0
aF2.30032342711429
aF0.0
aF0.0
aF0.38732854869172645
atp244
a(g1
(lp245
F0.0
aF4.999997802876642
aF0.0
aF4.7151399132827105
aF0.0
aF3.61666481326928
aF0.0
aF1.1840689178405057
aF0.0
aF0.0
aF4.1925848545751405
aF0.0
aF0.0
aF1.2166943166994815
aF0.0
aF0.0
aF2.3722151101597193
aF0.0
aF0.0
aF0.10755037900817746
atp246
a(g1
(lp247
F0.0
aF5.1014837205635475
aF0.0
aF4.817442212694343
aF0.0
aF3.7300270012371093
aF0.0
aF1.3251968062591661
aF0.0
aF0.0
aF4.481299582640318
aF0.0
aF0.0
aF1.4730897384903914
aF0.0
aF0.0
aF2.4619244374182414
aF0.0
aF0.0
aF0.18235366433030323
atp248
a(g1
(lp249
F0.0
aF4.675403968384557
aF0.0
aF4.403341628578542
aF0.0
aF3.37361524959587
aF0.0
aF1.1838827226141195
aF0.0
aF0.0
aF3.662799068302424
aF0.0
aF0.0
aF1.171362906494176
aF0.0
aF0.0
aF1.9999145004524757
aF0.0
aF0.0
aF0.12550179984505694
atp250
a(g1
(lp251
F0.0
aF5.22346559839273
aF0.0
aF4.953478704230591
aF0.0
aF3.9205100276202307
aF0.0
aF1.5817725605645518
aF0.0
aF0.0
aF4.808915425419136
aF0.0
aF0.0
aF2.0132940444052854
aF0.0
aF0.0
aF2.4839695074678416
aF0.0
aF0.0
aF0.2512122864057859
atp252
a(g1
(lp253
F0.0
aF4.168075834689503
aF0.0
aF3.909595380597409
aF0.0
aF2.9358708223859433
aF0.0
aF0.9321016868086245
aF0.0
aF0.0
aF2.9382997821320105
aF0.0
aF0.0
aF0.8924699228921816
aF0.0
aF0.0
aF1.6588864781985682
aF0.0
aF0.0
aF0.08195284455071475
atp254
a(g1
(lp255
F0.0
aF5.081323424537064
aF0.0
aF4.789693259739827
aF0.0
aF3.6761171140498807
aF0.0
aF1.2719129081554215
aF0.0
aF0.0
aF4.440157003799504
aF0.0
aF0.0
aF1.4192815871628184
aF0.0
aF0.0
aF2.3803764603794333
aF0.0
aF0.0
aF0.12645749979172557
atp256
a(g1
(lp257
F0.0
aF5.015273741367653
aF0.0
aF4.721239224026661
aF0.0
aF3.5974769700120564
aF0.0
aF1.174478362892295
aF0.0
aF0.0
aF3.9956489355555727
aF0.0
aF0.0
aF1.1702306253500816
aF0.0
aF0.0
aF2.3062080753062095
aF0.0
aF0.0
aF0.12075677650980791
atp258
a(g1
(lp259
F0.0
aF5.410410962490355
aF0.0
aF5.127511649425953
aF0.0
aF4.043649816505375
aF0.0
aF1.6814963792204505
aF0.0
aF0.0
aF4.85986427862217
aF0.0
aF0.0
aF2.085461430396202
aF0.0
aF0.0
aF2.411564614812748
aF0.0
aF0.0
aF0.38542720393960284
atp260
a(g1
(lp261
F0.0
aF5.141978050432663
aF0.0
aF4.871456625836957
aF0.0
aF3.84028749530205
aF0.0
aF1.6149975641445582
aF0.0
aF0.0
aF4.214372269176523
aF0.0
aF0.0
aF1.832192799543634
aF0.0
aF0.0
aF2.1544722929558944
aF0.0
aF0.0
aF0.4144408843847434
atp262
a.