(lp0
(VPt
p1
(lp2
F0.0
aF5.481076294901618
aF0.0
aF5.177935352593139
aF0.0
aF4.011603803483065
aF0.0
aF1.4138650955891694
aF0.0
aF0.0
aF5.088018436961699
aF0.0
aF0.0
aF1.6514517403728919
aF0.0
aF0.0
aF2.8006457547683423
aF0.0
aF0.0
aF0.20859580973584027
atp3
a(g1
(lp4
F0.0
aF5.5249762105572024
aF0.0
aF5.23259511887984
aF0.0
aF4.1068799631896
aF0.0
aF1.5709002425241916
aF0.0
aF0.0
aF5.486950930344177
aF0.0
aF0.0
aF1.9527287088423533
aF0.0
aF0.0
aF2.9365090065293007
aF0.0
aF0.0
aF0.2929313768204519
atp5
a(g1
(lp6
F0.0
aF5.4122995615598
aF0.0
aF5.119398587189586
aF0.0
aF3.99349707433038
aF0.0
aF1.4648614147719563
aF0.0
aF0.0
aF4.965090362203197
aF0.0
aF0.0
aF1.7422792169819439
aF0.0
aF0.0
aF2.6510452874283867
aF0.0
aF0.0
aF0.23700095023044415
atp7
a(g1
(lp8
F0.0
aF5.546528840469221
aF0.0
aF5.259576584729605
aF0.0
aF4.15616933452122
aF0.0
aF1.6491551277512058
aF0.0
aF0.0
aF5.43454764945052
aF0.0
aF0.0
aF2.1260585026271013
aF0.0
aF0.0
aF2.753694287268056
aF0.0
aF0.0
aF0.3093483969672478
atp9
a(g1
(lp10
F0.0
aF5.321947369146082
aF0.0
aF5.036593837198609
aF0.0
aF3.9415806521322727
aF0.0
aF1.493964299230751
aF0.0
aF0.0
aF5.034118654395651
aF0.0
aF0.0
aF1.8875090292801595
aF0.0
aF0.0
aF2.5398422603316284
aF0.0
aF0.0
aF0.24256695309408163
atp11
a(g1
(lp12
F0.0
aF5.429265771940194
aF0.0
aF5.150460581868156
aF0.0
aF4.079351507657707
aF0.0
aF1.6460355678456053
aF0.0
aF0.0
aF5.2605867977243275
aF0.0
aF0.0
aF2.0991675737913624
aF0.0
aF0.0
aF2.6471724825103884
aF0.0
aF0.0
aF0.3063390030394363
atp13
a(g1
(lp14
F0.0
aF5.338487000351357
aF0.0
aF5.0531070354631575
aF0.0
aF3.9600480486253957
aF0.0
aF1.5146428502250933
aF0.0
aF0.0
aF4.952378347584002
aF0.0
aF0.0
aF1.893161092040466
aF0.0
aF0.0
aF2.4353128817600833
aF0.0
aF0.0
aF0.2166211164785082
atp15
a(g1
(lp16
F0.0
aF5.3408327988806334
aF0.0
aF5.050653428244389
aF0.0
aF3.94183102158625
aF0.0
aF1.481556112768238
aF0.0
aF0.0
aF4.996520253522419
aF0.0
aF0.0
aF1.7662524717079255
aF0.0
aF0.0
aF2.658772268314466
aF0.0
aF0.0
aF0.2281388860451213
atp17
a(g1
(lp18
F0.0
aF5.471644127280045
aF0.0
aF5.171292726322641
aF0.0
aF4.016813992126117
aF0.0
aF1.4416483273308673
aF0.0
aF0.0
aF5.023302658160259
aF0.0
aF0.0
aF1.7192836740538027
aF0.0
aF0.0
aF2.7029013468544605
aF0.0
aF0.0
aF0.22348788703171998
atp19
a(g1
(lp20
F0.0
aF5.396481814149204
aF0.0
aF5.109294497245381
aF0.0
aF4.0047503773696755
aF0.0
aF1.5158363793128804
aF0.0
aF0.0
aF5.326403410634946
aF0.0
aF0.0
aF1.8918930499799047
aF0.0
aF0.0
aF2.7990633022610343
aF0.0
aF0.0
aF0.24189081025454373
atp21
a(g1
(lp22
F0.021895509904168792
aF5.528858101378552
aF0.0188714867635816
aF5.227876015948686
aF0.009466652739857728
aF4.0699042831849
aF0.00038506278356802235
aF1.4760680916687772
aF0.0
aF0.025535226762139655
aF5.2185204824673965
aF0.0
aF0.003087561125689762
aF1.7472598364804897
aF0.0
aF0.018889773265628504
aF2.866176403689761
aF0.0
aF3.0541581156127085e-05
aF0.2395196546257201
atp23
a(g1
(lp24
F0.013162958359794965
aF5.5325427986407405
aF0.01126324341928592
aF5.234084802289591
aF0.005463540273286268
aF4.086822395472444
aF0.00019016759011654594
aF1.5181889156335544
aF0.0
aF0.017386863309014736
aF5.5999811147166945
aF0.0
aF0.0018150744374158853
aF1.8811925074140314
aF0.0
aF0.013447928232044926
aF3.0607506860720566
aF0.0
aF1.54979321405015e-05
aF0.23258125588656792
atp25
a(g1
(lp26
F0.0
aF5.272545785162394
aF0.0
aF4.985922436025711
aF0.0
aF3.8867287988958377
aF0.0
aF1.4355069271083563
aF0.0
aF0.0
aF4.963274087239525
aF0.0
aF0.0
aF1.77591071623551
aF0.0
aF0.0
aF2.5399381122225955
aF0.0
aF0.0
aF0.21148054234366284
atp27
a(g1
(lp28
F0.0
aF5.391768057392097
aF0.0
aF5.112236977650553
aF0.0
aF4.039100215886642
aF0.0
aF1.6003027178978297
aF0.0
aF0.0
aF5.098386381443244
aF0.0
aF0.0
aF2.0109310238128058
aF0.0
aF0.0
aF2.58552929750783
aF0.0
aF0.0
aF0.30767346750986285
atp29
a(g1
(lp30
F0.0
aF5.299852319785524
aF0.0
aF5.012167444298964
aF0.0
aF3.910969945629279
aF0.0
aF1.4588363611783712
aF0.0
aF0.0
aF4.9784863241104516
aF0.0
aF0.0
aF1.834027956333906
aF0.0
aF0.0
aF2.498680037190945
aF0.0
aF0.0
aF0.2037713423162718
atp31
a(g1
(lp32
F0.01430544014807687
aF5.276102422785302
aF0.012253948294460054
aF4.985901687390008
aF0.005973713544946041
aF3.8775067041434212
aF0.00021277557341377684
aF1.4297942855311894
aF0.0
aF0.010049257988635174
aF4.921779737459357
aF0.0
aF0.0011125368482820196
aF1.6971471363221633
aF0.0
aF0.007658748449033827
aF2.6312048188355845
aF0.0
aF1.4058521220845906e-05
aF0.20743489289290148
atp33
a(g1
(lp34
F0.0
aF5.521603792076234
aF0.0
aF5.221492494001052
aF0.0
aF4.070000756870944
aF0.0
aF1.5055359636120793
aF0.0
aF0.0
aF5.301752068913663
aF0.0
aF0.0
aF1.8260053665971436
aF0.0
aF0.0
aF2.8724236882842464
aF0.0
aF0.0
aF0.2538081639452619
atp35
a(g1
(lp36
F0.0
aF5.371585972974262
aF0.0
aF5.077329027013478
aF0.0
aF3.94835707466374
aF0.0
aF1.4443918211754943
aF0.0
aF0.0
aF5.114536124954269
aF0.0
aF0.0
aF1.7304228660598364
aF0.0
aF0.0
aF2.7800183995517846
aF0.0
aF0.0
aF0.2354626875405701
atp37
a(g1
(lp38
F0.0
aF5.466407466794528
aF0.0
aF5.179013867858229
aF0.0
aF4.0769650257970484
aF0.0
aF1.5904147245271658
aF0.0
aF0.0
aF5.229508437385079
aF0.0
aF0.0
aF1.970278995814752
aF0.0
aF0.0
aF2.736244173821958
aF0.0
aF0.0
aF0.29885108070850636
atp39
a(g1
(lp40
F0.0
aF5.413969066473312
aF0.0
aF5.12630363115274
aF0.0
aF4.021960101592879
aF0.0
aF1.5361973003828582
aF0.0
aF0.0
aF5.180110828701246
aF0.0
aF0.0
aF1.8936463235084844
aF0.0
aF0.0
aF2.7113333483471522
aF0.0
aF0.0
aF0.25309699529058516
atp41
a(g1
(lp42
F0.0
aF5.577163856676938
aF0.0
aF5.290641924445046
aF0.0
aF4.187370050809606
aF0.0
aF1.6798676787336786
aF0.0
aF0.0
aF5.577987046597011
aF0.0
aF0.0
aF2.1719635218120965
aF0.0
aF0.0
aF2.8997193350574224
aF0.0
aF0.0
aF0.33857774936648144
atp43
a(g1
(lp44
F0.0
aF5.50462086871735
aF0.0
aF5.21507018489816
aF0.0
aF4.100587595917146
aF0.0
aF1.578895000497626
aF0.0
aF0.0
aF5.463439422753274
aF0.0
aF0.0
aF2.008525969746394
aF0.0
aF0.0
aF2.8575026736740847
aF0.0
aF0.0
aF0.2700337473803586
atp45
a(g1
(lp46
F0.0
aF5.414874722448689
aF0.0
aF5.117907641109734
aF0.0
aF3.978555418337119
aF0.0
aF1.4468699759831019
aF0.0
aF0.0
aF5.223943071706462
aF0.0
aF0.0
aF1.7314127932893333
aF0.0
aF0.0
aF2.844716068563123
aF0.0
aF0.0
aF0.20150398178865145
atp47
a(g1
(lp48
F0.0
aF5.3559653082961916
aF0.0
aF5.064078319916552
aF0.0
aF3.9447529212373786
aF0.0
aF1.4509821141805268
aF0.0
aF0.0
aF5.074870134228579
aF0.0
aF0.0
aF1.7348422410559097
aF0.0
aF0.0
aF2.7231319237321974
aF0.0
aF0.0
aF0.21062330512625965
atp49
a(g1
(lp50
F0.0
aF5.614357843304407
aF0.0
aF5.319176881000623
aF0.0
aF4.185919570086188
aF0.0
aF1.6317081526347408
aF0.0
aF0.0
aF5.5808086356878635
aF0.0
aF0.0
aF2.070623874531637
aF0.0
aF0.0
aF2.951462471702603
aF0.0
aF0.0
aF0.3141203848546109
atp51
a(g1
(lp52
F0.0
aF5.5285331436436405
aF0.0
aF5.235192587340352
aF0.0
aF4.108148696935173
aF0.0
aF1.572149469201705
aF0.0
aF0.0
aF5.420058067087833
aF0.0
aF0.0
aF1.9922382351971772
aF0.0
aF0.0
aF2.8576549097139687
aF0.0
aF0.0
aF0.29068091377155314
atp53
a(g1
(lp54
F0.0
aF5.577453271694106
aF0.0
aF5.286093361285698
aF0.0
aF4.167041825219487
aF0.0
aF1.6376795111012612
aF0.0
aF0.0
aF5.520144256094235
aF0.0
aF0.0
aF2.0931312042826598
aF0.0
aF0.0
aF2.882938010184732
aF0.0
aF0.0
aF0.3140571403678032
atp55
a(g1
(lp56
F0.0
aF5.475703391881869
aF0.0
aF5.181185992790709
aF0.0
aF4.050993336488709
aF0.0
aF1.522982454400885
aF0.0
aF0.0
aF5.285636428733306
aF0.0
aF0.0
aF1.8931089896807192
aF0.0
aF0.0
aF2.8162822160887435
aF0.0
aF0.0
aF0.26717373053065463
atp57
a(g1
(lp58
F0.0
aF5.5689744202740945
aF0.0
aF5.278795616822746
aF0.0
aF4.1598098922417295
aF0.0
aF1.607478399007664
aF0.0
aF0.0
aF5.542265299955682
aF0.0
aF0.0
aF2.048966912909354
aF0.0
aF0.0
aF2.898512206833097
aF0.0
aF0.0
aF0.28728138529673175
atp59
a(g1
(lp60
F0.0
aF5.660088559114055
aF0.0
aF5.368151645158912
aF0.0
aF4.244647218763635
aF0.0
aF1.6879027322126403
aF0.0
aF0.0
aF5.566976842134007
aF0.0
aF0.0
aF2.177912493545754
aF0.0
aF0.0
aF2.881021140269793
aF0.0
aF0.0
aF0.3521180388277765
atp61
a(g1
(lp62
F0.0
aF5.58743334213695
aF0.0
aF5.2883786790159535
aF0.0
aF4.138771963308538
aF0.0
aF1.5567915575146014
aF0.0
aF0.0
aF5.515452109436593
aF0.0
aF0.0
aF1.9487074671488995
aF0.0
aF0.0
aF2.952811911815887
aF0.0
aF0.0
aF0.26421684993156774
atp63
a(g1
(lp64
F0.0
aF5.48807875335887
aF0.0
aF5.198179520085254
aF0.0
aF4.083745457657135
aF0.0
aF1.5683975522774245
aF0.0
aF0.0
aF5.474760663612689
aF0.0
aF0.0
aF1.979128163306445
aF0.0
aF0.0
aF2.907314039905885
aF0.0
aF0.0
aF0.276907835418438
atp65
a(g1
(lp66
F0.2392184463288884
aF5.815712731729012
aF0.22041052264546954
aF5.5085228962112005
aF0.1507186777344746
aF4.3232156434969164
aF0.02582303141193256
aF1.631868999990747
aF9.552131960338157e-07
aF0.49711328902076524
aF6.129200066964156
aF1.0031025324706583e-08
aF0.12785252573022565
aF2.0756834139338283
aF9.257412654116762e-07
aF0.2916536210280823
aF3.42506031379727
aF1.1258218584618875e-14
aF0.005501593005779943
aF0.30358604935111116
atp67
a(g1
(lp68
F0.26077608066608154
aF6.060342810622211
aF0.2411745975227597
aF5.76737330426483
aF0.1678200779465728
aF4.632394795111342
aF0.03119976251466245
aF1.9877000932333846
aF6.512422674148992e-05
aF0.6285149026725311
aF6.988053775447362
aF5.636510710470414e-07
aF0.16847852358138415
aF2.8933409030354382
aF6.346212716366685e-05
aF0.37184511979348117
aF3.5960304613265084
aF3.561112161249273e-13
aF0.00788376474068792
aF0.5107442317374712
atp69
a(g1
(lp70
F0.2421334756479242
aF5.807773603156755
aF0.22320912343470076
aF5.502616982113614
aF0.15299369944635582
aF4.3257101325854315
aF0.02650715569508802
aF1.6490917672650354
aF1.6866190722637493e-05
aF0.5200217867282613
aF6.123838021657888
aF1.8366850441670331e-07
aF0.1299799217685216
aF2.1314717164503056
aF1.6326971525897582e-05
aF0.31123928127672723
aF3.3804064932585978
aF2.296023695422373e-13
aF0.0059879416819703
aF0.3053494773232327
atp71
a(g1
(lp72
F0.22915103088382163
aF5.894193997698592
aF0.21074178833021676
aF5.609373432755573
aF0.14286660274898522
aF4.507678462599593
aF0.023514619380397027
aF1.9379992407396165
aF0.0
aF0.5673797992665629
aF6.728029086662999
aF0.0
aF0.13408294044323174
aF2.807975092634346
aF0.0
aF0.35135330788383234
aF3.39240809983525
aF0.0
aF0.005647376623744401
aF0.4727506749379422
atp73
a(g1
(lp74
F0.061160991676789456
aF5.570925739179752
aF0.053819541896246895
aF5.277475525756031
aF0.029728403076879382
aF4.153639694866654
aF0.0018911090782038691
aF1.6394091089841525
aF0.0
aF0.050426797394697666
aF5.4125594940859845
aF0.0
aF0.010786805766435497
aF2.1225278447825335
aF0.0
aF0.029691233564796672
aF2.7285904181048344
aF0.0
aF0.0001395405676157443
aF0.3083947049545451
atp75
a(g1
(lp76
F0.45848640916233785
aF5.824821197855583
aF0.43008066511085974
aF5.527668624865948
aF0.3217095782644785
aF4.386008616804522
aF0.09075936519353289
aF1.7924746999866095
aF0.029015244155368956
aF0.7084452746585884
aF6.090994237624756
aF0.0007136767341759062
aF0.27340282584067604
aF2.3687542137491984
aF0.02697537442877586
aF0.36577893509477943
aF3.2210475256619744
aF9.873445200007868e-09
aF0.030958499893062992
aF0.4039132637629384
atp77
a(g1
(lp78
F0.1884750724355387
aF5.630584520052108
aF0.17114723426871087
aF5.345857086577411
aF0.10962414942077948
aF4.2531208525984985
aF0.014257106152024376
aF1.7671573793871762
aF0.002133686577554648
aF0.19691942286388409
aF5.708080573969828
aF6.976298748560029e-05
aF0.05951815295046468
aF2.370769598466545
aF0.0019373726198021017
aF0.10868686202831461
aF2.8785103071548375
aF2.2140679129553703e-09
aF0.0032139086289588495
aF0.42602793259164656
atp79
a(g1
(lp80
F0.9354556889674276
aF5.918164198772956
aF0.9034158951347449
aF5.6281828986636695
aF0.775880352208906
aF4.510257524528744
aF0.43842652921244607
aF1.9273662780882774
aF0.20782410394918327
aF0.8262888463578206
aF6.796768668490954
aF9.093442170890183e-05
aF1.4205874792679174
aF2.76197222990737
aF0.20755153924279637
aF0.06849403898931375
aF3.5255826248271367
aF7.60773767140498e-15
aF0.45252711685705416
aF0.5011918726310917
atp81
a(VCu
p82
(lp83
F0.6962940445195156
aF0.3600053543075182
aF0.6793081700362464
aF0.3236158996665514
aF0.6057339087417536
aF0.1983611291114996
aF0.35579562959039074
aF0.022399182027898385
aF0.0
aF0.30697841062815173
aF0.044010066233617515
aF0.0
aF0.006267042024971307
aF0.0030577810766498985
aF0.0
aF0.2903830734937464
aF0.03622298489913866
aF0.0
aF2.070471240194166e-06
aF4.317029595408401e-06
atp84
a(g82
(lp85
F0.6962940445195156
aF3.510070015452706
aF0.6793081700362464
aF3.2845993088176835
aF0.6057339087417536
aF2.4483126933492283
aF0.35579562959039074
aF0.8204786061072608
aF0.0
aF0.017204939410273956
aF3.6612372746007296
aF0.0
aF0.29604051324284913
aF0.627827642095089
aF0.0
aF8.044994674965957e-05
aF2.4140728735004138
aF0.0
aF0.259182450251835
aF0.011034731034295666
atp86
a(g1
(lp87
F0.024108537248267968
aF5.507147382519289
aF0.02081147094023775
aF5.203785089113367
aF0.010516068133242882
aF4.038494966277897
aF0.00044244290259718317
aF1.4469791936257086
aF0.0
aF0.03010206419602733
aF5.176115845217146
aF0.0
aF0.003504095203014525
aF1.6971231595776526
aF0.0
aF0.022688005401072225
aF2.859479420812761
aF0.0
aF3.648113550632939e-05
aF0.22720957005746786
atp88
a(g1
(lp89
F0.02276866442312666
aF5.542598059150475
aF0.01963638552149805
aF5.237107700695615
aF0.0098791312909084
aF4.064415693959168
aF0.000407318542443242
aF1.4699025275473638
aF0.0
aF0.03371993569932737
aF5.5718332402061845
aF0.0
aF0.0036403418242991247
aF1.7671790694935834
aF0.0
aF0.026009801903868885
aF3.098585420802219
aF0.0
aF3.2130680035603017e-05
aF0.20381565960493134
atp90
a(g1
(lp91
F0.0
aF5.494661441701735
aF0.0
aF5.202211113232682
aF0.0
aF4.076743623026579
aF0.0
aF1.530157722597393
aF0.0
aF0.0
aF5.162266318183169
aF0.0
aF0.0
aF1.8964508744476098
aF0.0
aF0.0
aF2.711079343048386
aF0.0
aF0.0
aF0.2571054247570382
atp92
a(g1
(lp93
F0.0
aF5.4806415846802174
aF0.0
aF5.200350079238918
aF0.0
aF4.120903438836392
aF0.0
aF1.6614231051341464
aF0.0
aF0.0
aF5.526308749423394
aF0.0
aF0.0
aF2.159858404840701
aF0.0
aF0.0
aF2.825155512480651
aF0.0
aF0.0
aF0.29323257184005025
atp94
a(g1
(lp95
F0.09829289644300528
aF5.540672706157963
aF0.08764202836739308
aF5.250708427075291
aF0.051465607261957466
aF4.139167801738671
aF0.004349252373127236
aF1.6499687672841632
aF5.691997554627225e-07
aF0.09718850234489759
aF5.4633831130094075
aF1.7314101771577487e-08
aF0.021828655936542415
aF2.1111841574537373
aF5.202642533224981e-07
aF0.05733166652067333
aF2.748567043783682
aF4.4541519810129055e-13
aF0.0004055723195588648
aF0.27040073524834035
atp96
a(g1
(lp97
F0.5928263609203063
aF5.706041700141872
aF0.5604434063506837
aF5.413239308283689
aF0.43522992725688964
aF4.286443586643276
aF0.14984395983066978
aF1.7208045763485946
aF0.06735197941033184
aF0.865947282364425
aF6.059810356057628
aF0.0020361212756186977
aF0.40103702298056976
aF2.254242886967215
aF0.06159514117910906
aF0.406525676044814
aF3.213779394556618
aF5.1446942262398795e-08
aF0.058470348876962855
aF0.33058425745770315
atp98
a(g1
(lp99
F0.0
aF5.329517296366083
aF0.0
aF5.039690604550906
aF0.0
aF3.926977691293496
aF0.0
aF1.450282781674383
aF0.0
aF0.0
aF5.060715228072397
aF0.0
aF0.0
aF1.8090682026476266
aF0.0
aF0.0
aF2.6059622741661888
aF0.0
aF0.0
aF0.20907287092441948
atp100
a(g1
(lp101
F0.016091729600836886
aF5.408098160942848
aF0.013805938393629015
aF5.113432176477522
aF0.006779996750686192
aF3.987134368094859
aF0.0002498835628435489
aF1.5012847003217964
aF0.0
aF0.012637436443132775
aF5.120405474392504
aF0.0
aF0.0012612845257735485
aF1.7925114041292178
aF0.0
aF0.010005350373608397
aF2.7506227730836157
aF0.0
aF1.8020709891183845e-05
aF0.24442267270444465
atp102
a(g1
(lp103
F0.0
aF5.610642128113725
aF0.0
aF5.310576343014039
aF0.0
aF4.159825998485908
aF0.0
aF1.5869481663137925
aF0.0
aF0.0
aF5.589950852213618
aF0.0
aF0.0
aF1.9872763499533472
aF0.0
aF0.0
aF3.0413775806751167
aF0.0
aF0.0
aF0.2932695034403865
atp104
a(g1
(lp105
F0.0
aF5.460415690953001
aF0.0
aF5.166634330305652
aF0.0
aF4.038041048990339
aF0.0
aF1.510401106373034
aF0.0
aF0.0
aF5.329801022836248
aF0.0
aF0.0
aF1.8703255720493492
aF0.0
aF0.0
aF2.8543916102294973
aF0.0
aF0.0
aF0.24911834424006965
atp106
a(g1
(lp107
F0.0
aF5.55058250636545
aF0.0
aF5.253665638356213
aF0.0
aF4.11518937827279
aF0.0
aF1.5676528294221217
aF0.0
aF0.0
aF5.415872836744216
aF0.0
aF0.0
aF1.957579788731297
aF0.0
aF0.0
aF2.9011909610138162
aF0.0
aF0.0
aF0.2792479695302257
atp108
a(g1
(lp109
F0.0
aF5.51509218586362
aF0.0
aF5.224597726419243
aF0.0
aF4.106628585888881
aF0.0
aF1.576544610536757
aF0.0
aF0.0
aF5.326047097167439
aF0.0
aF0.0
aF2.003300406038382
aF0.0
aF0.0
aF2.770278290420386
aF0.0
aF0.0
aF0.2799770654231361
atp110
a(g1
(lp111
F0.08825130796697005
aF5.698558592572063
aF0.07843507936628444
aF5.399682340024871
aF0.04537439156352385
aF4.250243600998458
aF0.0035769045386533933
aF1.6526039699242436
aF0.0
aF0.10605048899258757
aF5.9275143974544475
aF0.0
aF0.020721163353978264
aF2.1237797658040383
aF0.0
aF0.06531871900696416
aF3.2373141454009633
aF0.0
aF0.00026005742470953166
aF0.34127570861500767
atp112
a(g1
(lp113
F0.0
aF5.6038541936851445
aF0.0
aF5.306128465710678
aF0.0
aF4.1627417304154894
aF0.0
aF1.5975555525278258
aF0.0
aF0.0
aF5.476684796117528
aF0.0
aF0.0
aF2.015240582748684
aF0.0
aF0.0
aF2.898128903080971
aF0.0
aF0.0
aF0.29479631893927977
atp114
a(g1
(lp115
F0.24482102792237015
aF5.987300747298033
aF0.22459241760063225
aF5.685934058774554
aF0.1509226325116378
aF4.520445791106139
aF0.024666971161407158
aF1.8325736759523916
aF0.003796485427331616
aF0.38709222255558023
aF6.6465384092125
aF0.00010892884040335071
aF0.116654008662837
aF2.526027149589121
aF0.0034875916012866164
aF0.2158885415486692
aF3.562808374691192
aF2.363579398686753e-09
aF0.006539289237653291
aF0.43213988292645256
atp116
a(g1
(lp117
F0.0
aF5.448815674326837
aF0.0
aF5.160892947681333
aF0.0
aF4.055828554728079
aF0.0
aF1.5740743946509854
aF0.0
aF0.0
aF5.297985076789251
aF0.0
aF0.0
aF1.9765376359213647
aF0.0
aF0.0
aF2.7757962599489896
aF0.0
aF0.0
aF0.2928403632359762
atp118
a(g1
(lp119
F0.0
aF5.476775749778502
aF0.0
aF5.1808198010072655
aF0.0
aF4.043395719915643
aF0.0
aF1.4947029641783742
aF0.0
aF0.0
aF5.232316126144731
aF0.0
aF0.0
aF1.785028452273906
aF0.0
aF0.0
aF2.857763604517307
aF0.0
aF0.0
aF0.2501061861611656
atp120
a(g1
(lp121
F0.0
aF5.388324844897954
aF0.0
aF5.087116216133593
aF0.0
aF3.931798081372473
aF0.0
aF1.384542108246941
aF0.0
aF0.0
aF5.133740039696484
aF0.0
aF0.0
aF1.6397717301537234
aF0.0
aF0.0
aF2.8314313339861417
aF0.0
aF0.0
aF0.1863524699466903
atp122
a(g1
(lp123
F0.0
aF5.57754199671732
aF0.0
aF5.289610728540623
aF0.0
aF4.184362305871771
aF0.0
aF1.6767094012577404
aF0.0
aF0.0
aF5.53265086166398
aF0.0
aF0.0
aF2.173364451445575
aF0.0
aF0.0
aF2.862851946943024
aF0.0
aF0.0
aF0.3296891921121588
atp124
a(g1
(lp125
F0.0
aF5.491753926985525
aF0.0
aF5.207634203967286
aF0.0
aF4.11496053583044
aF0.0
aF1.6317311602923468
aF0.0
aF0.0
aF5.399176486496265
aF0.0
aF0.0
aF2.129892287693186
aF0.0
aF0.0
aF2.760944010029375
aF0.0
aF0.0
aF0.3091456010764399
atp126
a(g1
(lp127
F0.11869374105449096
aF5.602827531304245
aF0.10646043512284002
aF5.302271394068826
aF0.06426062028635982
aF4.1476507106477145
aF0.0061743706380318975
aF1.5567449703797445
aF1.966517233430196e-05
aF0.15944888424938786
aF5.745634787326687
aF5.742065077910865e-07
aF0.03264632389664481
aF1.9524337958456843
aF1.8038461249604133e-05
aF0.09859173412060618
aF3.115560201940213
aF1.3112361145699908e-11
aF0.0006645299803524109
aF0.23442257589308513
atp128
a(g1
(lp129
F0.0
aF5.307576814596144
aF0.0
aF5.02343795389015
aF0.0
aF3.9360065117110974
aF0.0
aF1.5130336073615294
aF0.0
aF0.0
aF4.9993537104722785
aF0.0
aF0.0
aF1.8414485014105093
aF0.0
aF0.0
aF2.613697575401421
aF0.0
aF0.0
aF0.2579746703712411
atp130
a(g1
(lp131
F0.0
aF5.546830900558928
aF0.0
aF5.255393225528272
aF0.0
aF4.134569274505606
aF0.0
aF1.6125856086763624
aF0.0
aF0.0
aF5.470643987112547
aF0.0
aF0.0
aF2.008477587471081
aF0.0
aF0.0
aF2.9075440832956656
aF0.0
aF0.0
aF0.31027482323726185
atp132
a(g1
(lp133
F0.0
aF5.607102234555514
aF0.0
aF5.312842634564449
aF0.0
aF4.1808372503478655
aF0.0
aF1.6212647402577613
aF0.0
aF0.0
aF5.490679377332048
aF0.0
aF0.0
aF2.0657523522666095
aF0.0
aF0.0
aF2.860295808664687
aF0.0
aF0.0
aF0.3043102245671996
atp134
a(g1
(lp135
F0.0
aF5.527365374622632
aF0.0
aF5.228340902460032
aF0.0
aF4.079348361965097
aF0.0
aF1.5102675063253936
aF0.0
aF0.0
aF5.277030414486062
aF0.0
aF0.0
aF1.8400465171107643
aF0.0
aF0.0
aF2.830629935459663
aF0.0
aF0.0
aF0.25294276104922275
atp136
a(g1
(lp137
F0.0
aF5.301452294084342
aF0.0
aF5.00907138372642
aF0.0
aF3.890945839781678
aF0.0
aF1.4399830226470975
aF0.0
aF0.0
aF4.960622476681724
aF0.0
aF0.0
aF1.7258165983881155
aF0.0
aF0.0
aF2.69314137688019
aF0.0
aF0.0
aF0.2632497278791138
atp138
a(g1
(lp139
F0.0
aF5.444924845590642
aF0.0
aF5.161362118202493
aF0.0
aF4.072651295057085
aF0.0
aF1.6040065573560507
aF0.0
aF0.0
aF5.194089806468483
aF0.0
aF0.0
aF2.000327534183757
aF0.0
aF0.0
aF2.6763355599178857
aF0.0
aF0.0
aF0.30502255312365106
atp140
a(g1
(lp141
F0.0
aF5.537722144468927
aF0.0
aF5.246671837677816
aF0.0
aF4.129225658142965
aF0.0
aF1.6094036146803803
aF0.0
aF0.0
aF5.3196871415130875
aF0.0
aF0.0
aF2.0190444033466224
aF0.0
aF0.0
aF2.7777579982272207
aF0.0
aF0.0
aF0.3081005462294992
atp142
a(g1
(lp143
F0.0
aF5.52738403529212
aF0.0
aF5.2397004896505015
aF0.0
aF4.132112056243349
aF0.0
aF1.6293105156372398
aF0.0
aF0.0
aF5.419915486074415
aF0.0
aF0.0
aF2.0921432918618357
aF0.0
aF0.0
aF2.797111177206562
aF0.0
aF0.0
aF0.3064981526982454
atp144
a(g1
(lp145
F0.0
aF5.409371226459006
aF0.0
aF5.119832296254084
aF0.0
aF4.0070345799367155
aF0.0
aF1.5145887747821996
aF0.0
aF0.0
aF5.206749465172614
aF0.0
aF0.0
aF1.9051817711254082
aF0.0
aF0.0
aF2.7311249093773475
aF0.0
aF0.0
aF0.2478333577694957
atp146
a(g1
(lp147
F0.0
aF5.449058957898918
aF0.0
aF5.152186477552631
aF0.0
aF4.014767610529094
aF0.0
aF1.489805011599592
aF0.0
aF0.0
aF5.130059423751226
aF0.0
aF0.0
aF1.792841703437229
aF0.0
aF0.0
aF2.7342434434840572
aF0.0
aF0.0
aF0.22572558510213503
atp148
a(g1
(lp149
F0.0
aF5.386269436009304
aF0.0
aF5.094093426101991
aF0.0
aF3.9720439002727814
aF0.0
aF1.4619002477024443
aF0.0
aF0.0
aF5.1016383125125
aF0.0
aF0.0
aF1.761169371924119
aF0.0
aF0.0
aF2.7197453016610647
aF0.0
aF0.0
aF0.20931924633511081
atp150
a(g1
(lp151
F0.0
aF5.5873670066350725
aF0.0
aF5.290283152320029
aF0.0
aF4.149389360342946
aF0.0
aF1.5892628800483615
aF0.0
aF0.0
aF5.509242443099745
aF0.0
aF0.0
aF2.001991460997377
aF0.0
aF0.0
aF2.927020822102398
aF0.0
aF0.0
aF0.29014450268085773
atp152
a(g1
(lp153
F0.0
aF5.532330572093871
aF0.0
aF5.242785720074043
aF0.0
aF4.129159567902308
aF0.0
aF1.6103954584018874
aF0.0
aF0.0
aF5.551981269812032
aF0.0
aF0.0
aF2.0360746000142824
aF0.0
aF0.0
aF2.955865165164398
aF0.0
aF0.0
aF0.30522102084065855
atp154
a(g1
(lp155
F0.0
aF5.5536657373670035
aF0.0
aF5.265122020334936
aF0.0
aF4.155067280306388
aF0.0
aF1.6327172998504067
aF0.0
aF0.0
aF5.482682336856497
aF0.0
aF0.0
aF2.0829296964186934
aF0.0
aF0.0
aF2.8530167670877353
aF0.0
aF0.0
aF0.30986963372707466
atp156
a(g1
(lp157
F0.0
aF5.49818432617904
aF0.0
aF5.2033010893107345
aF0.0
aF4.071665653408857
aF0.0
aF1.5374423193190352
aF0.0
aF0.0
aF5.388666072040686
aF0.0
aF0.0
aF1.891983432394551
aF0.0
aF0.0
aF2.9058500134708125
aF0.0
aF0.0
aF0.2522138875512231
atp158
a(g1
(lp159
F0.0
aF5.473457916271103
aF0.0
aF5.187156666147361
aF0.0
aF4.084670402191522
aF0.0
aF1.5789591278850568
aF0.0
aF0.0
aF5.332278835929588
aF0.0
aF0.0
aF1.9894625739536895
aF0.0
aF0.0
aF2.782665713758091
aF0.0
aF0.0
aF0.2901545435199845
atp160
a(g1
(lp161
F0.0
aF5.566495066587278
aF0.0
aF5.272983009083977
aF0.0
aF4.143952600405463
aF0.0
aF1.5945728353810797
aF0.0
aF0.0
aF5.481126562419293
aF0.0
aF0.0
aF1.9965063417480113
aF0.0
aF0.0
aF2.9169931603675776
aF0.0
aF0.0
aF0.2855901001447499
atp162
a(g1
(lp163
F0.0
aF5.389376258055692
aF0.0
aF5.094406781509411
aF0.0
aF3.962815587023142
aF0.0
aF1.4460808239392162
aF0.0
aF0.0
aF5.269355763699569
aF0.0
aF0.0
aF1.7751463486085646
aF0.0
aF0.0
aF2.846106489933445
aF0.0
aF0.0
aF0.20837597049896298
atp164
a(g1
(lp165
F0.0
aF5.575193598870188
aF0.0
aF5.284428576580926
aF0.0
aF4.167198694855884
aF0.0
aF1.6439675378965768
aF0.0
aF0.0
aF5.501790051798278
aF0.0
aF0.0
aF2.0888955718480946
aF0.0
aF0.0
aF2.890498551852922
aF0.0
aF0.0
aF0.32975184489654485
atp166
a(g1
(lp167
F0.0
aF5.339289287864472
aF0.0
aF5.042945093802544
aF0.0
aF3.9107762061861195
aF0.0
aF1.4244409361628563
aF0.0
aF0.0
aF4.849391448961034
aF0.0
aF0.0
aF1.6524643737794629
aF0.0
aF0.0
aF2.6294864670200297
aF0.0
aF0.0
aF0.22630754250957485
atp168
a(g1
(lp169
F0.0
aF5.378272820203215
aF0.0
aF5.0871436664181315
aF0.0
aF3.9709695483256184
aF0.0
aF1.48744190499118
aF0.0
aF0.0
aF4.981833653537991
aF0.0
aF0.0
aF1.828894213714008
aF0.0
aF0.0
aF2.551336564448617
aF0.0
aF0.0
aF0.25894968082566533
atp170
a(g1
(lp171
F0.0
aF5.296715332957866
aF0.0
aF5.016190823919519
aF0.0
aF3.943583189852554
aF0.0
aF1.5392372483466714
aF0.0
aF0.0
aF4.857138718707788
aF0.0
aF0.0
aF1.8723068644538647
aF0.0
aF0.0
aF2.499242072644391
aF0.0
aF0.0
aF0.2793156456144581
atp172
a(g1
(lp173
F0.0
aF5.301265533301556
aF0.0
aF5.016373319314436
aF0.0
aF3.9251022189649545
aF0.0
aF1.4880116718081773
aF0.0
aF0.0
aF4.930447643011067
aF0.0
aF0.0
aF1.8524471239823905
aF0.0
aF0.0
aF2.4584011429428054
aF0.0
aF0.0
aF0.22220802248598193
atp174
a(g1
(lp175
F0.0
aF5.499964967234998
aF0.0
aF5.213679675638295
aF0.0
aF4.111793090976524
aF0.0
aF1.6265923600010568
aF0.0
aF0.0
aF5.393003637008064
aF0.0
aF0.0
aF2.094565738161679
aF0.0
aF0.0
aF2.7722494020645025
aF0.0
aF0.0
aF0.3019619259085787
atp176
a(g1
(lp177
F0.0
aF5.474740478460735
aF0.0
aF5.179746021132706
aF0.0
aF4.045082957795693
aF0.0
aF1.5146766480333176
aF0.0
aF0.0
aF5.1119872209651875
aF0.0
aF0.0
aF1.8485010465655152
aF0.0
aF0.0
aF2.703699837425731
aF0.0
aF0.0
aF0.2500285097643886
atp178
a(g1
(lp179
F0.0
aF5.408325065861066
aF0.0
aF5.109858085502821
aF0.0
aF3.965265518537375
aF0.0
aF1.4289767529464141
aF0.0
aF0.0
aF5.12077254100446
aF0.0
aF0.0
aF1.7008953890213845
aF0.0
aF0.0
aF2.7824131189281314
aF0.0
aF0.0
aF0.1950505281466992
atp180
a(g1
(lp181
F0.0
aF5.202139236090839
aF0.0
aF4.9079541083806095
aF0.0
aF3.7824506272679623
aF0.0
aF1.3176200299422953
aF0.0
aF0.0
aF4.592387168066846
aF0.0
aF0.0
aF1.4839693000868248
aF0.0
aF0.0
aF2.515658629624874
aF0.0
aF0.0
aF0.16202031768471356
atp182
a(g1
(lp183
F0.0
aF5.4769657192955155
aF0.0
aF5.187397152805719
aF0.0
aF4.077837158400164
aF0.0
aF1.5852823773434124
aF0.0
aF0.0
aF5.290025760013594
aF0.0
aF0.0
aF1.987570073267095
aF0.0
aF0.0
aF2.7669917123092658
aF0.0
aF0.0
aF0.29169076072719774
atp184
a(g1
(lp185
F0.0
aF5.323041417945208
aF0.0
aF5.031358407105961
aF0.0
aF3.9141654346813928
aF0.0
aF1.440182042917542
aF0.0
aF0.0
aF4.972567806592417
aF0.0
aF0.0
aF1.79600890687967
aF0.0
aF0.0
aF2.5295299804426974
aF0.0
aF0.0
aF0.2135899167727615
atp186
a(g1
(lp187
F0.0
aF5.417668466853802
aF0.0
aF5.128216570338801
aF0.0
aF4.023287675710184
aF0.0
aF1.5671117642382426
aF0.0
aF0.0
aF5.101294989815058
aF0.0
aF0.0
aF1.9492364955927066
aF0.0
aF0.0
aF2.6317756788970934
aF0.0
aF0.0
aF0.2834396219870009
atp188
a(g1
(lp189
F0.0
aF5.202010241428767
aF0.0
aF4.91910284021843
aF0.0
aF3.8351840724661317
aF0.0
aF1.4268794471238506
aF0.0
aF0.0
aF4.887080170196094
aF0.0
aF0.0
aF1.7474121578640225
aF0.0
aF0.0
aF2.516658095184965
aF0.0
aF0.0
aF0.2139791385880868
atp190
a(g1
(lp191
F0.0
aF5.573673175616258
aF0.0
aF5.289295571495427
aF0.0
aF4.193461628912872
aF0.0
aF1.6866480425744497
aF0.0
aF0.0
aF5.583287281680904
aF0.0
aF0.0
aF2.1952537166322283
aF0.0
aF0.0
aF2.864315496195281
aF0.0
aF0.0
aF0.34428992911399015
atp192
a(g1
(lp193
F0.0
aF5.468746783328826
aF0.0
aF5.171080448392368
aF0.0
aF4.027353824721557
aF0.0
aF1.4770871216722083
aF0.0
aF0.0
aF4.995548284130128
aF0.0
aF0.0
aF1.775062244347656
aF0.0
aF0.0
aF2.6594656922479545
aF0.0
aF0.0
aF0.2543206900218167
atp194
a(g1
(lp195
F0.0
aF5.643692097498346
aF0.0
aF5.348974715307326
aF0.0
aF4.213754607763113
aF0.0
aF1.6410112493858582
aF0.0
aF0.0
aF5.670702285816375
aF0.0
aF0.0
aF2.1049699527920955
aF0.0
aF0.0
aF2.9837372187423243
aF0.0
aF0.0
aF0.31067632479322577
atp196
a(g1
(lp197
F0.0
aF5.337169790837168
aF0.0
aF5.042464848582727
aF0.0
aF3.9115734425331308
aF0.0
aF1.4034281190175577
aF0.0
aF0.0
aF4.883839645049731
aF0.0
aF0.0
aF1.6707082374300435
aF0.0
aF0.0
aF2.64604278515858
aF0.0
aF0.0
aF0.22176635009419862
atp198
a(g1
(lp199
F0.0
aF5.600402811100704
aF0.0
aF5.302125097964108
aF0.0
aF4.154470890807549
aF0.0
aF1.5729024189008862
aF0.0
aF0.0
aF5.565731469167958
aF0.0
aF0.0
aF1.9747380833286687
aF0.0
aF0.0
aF2.989595880430316
aF0.0
aF0.0
aF0.2802127230154675
atp200
a(g1
(lp201
F0.0
aF5.551844917953456
aF0.0
aF5.256110189909352
aF0.0
aF4.119068908106583
aF0.0
aF1.5619825040994393
aF0.0
aF0.0
aF5.4042566617638
aF0.0
aF0.0
aF1.9381782029727928
aF0.0
aF0.0
aF2.9010289169718395
aF0.0
aF0.0
aF0.28751024611360537
atp202
a(g1
(lp203
F0.0
aF5.526453847366277
aF0.0
aF5.239021049278957
aF0.0
aF4.134002826907001
aF0.0
aF1.6276640720586
aF0.0
aF0.0
aF5.414748859313022
aF0.0
aF0.0
aF2.0914045924586273
aF0.0
aF0.0
aF2.777210998854565
aF0.0
aF0.0
aF0.30210615057721085
atp204
a(g1
(lp205
F0.0
aF5.39115400778098
aF0.0
aF5.106194262297213
aF0.0
aF4.009511713296715
aF0.0
aF1.5294032155499777
aF0.0
aF0.0
aF5.170936874638669
aF0.0
aF0.0
aF1.895275843731782
aF0.0
aF0.0
aF2.725880824013794
aF0.0
aF0.0
aF0.26217333011479516
atp206
a(g1
(lp207
F0.0
aF5.58934806012006
aF0.0
aF5.2935834493037675
aF0.0
aF4.157533614364881
aF0.0
aF1.601901546214779
aF0.0
aF0.0
aF5.416624732165373
aF0.0
aF0.0
aF2.0270451265618155
aF0.0
aF0.0
aF2.836189606456253
aF0.0
aF0.0
aF0.2984492318557295
atp208
a(g1
(lp209
F0.0
aF5.509999647269638
aF0.0
aF5.220407432808096
aF0.0
aF4.109216556230032
aF0.0
aF1.6073010525823057
aF0.0
aF0.0
aF5.36742653221552
aF0.0
aF0.0
aF2.0103730652916862
aF0.0
aF0.0
aF2.820341153726735
aF0.0
aF0.0
aF0.30538034818426035
atp210
a(g1
(lp211
F0.0
aF5.49413634706
aF0.0
aF5.204466068244914
aF0.0
aF4.091426569322198
aF0.0
aF1.581512688834209
aF0.0
aF0.0
aF5.388240572247915
aF0.0
aF0.0
aF2.0044514769150057
aF0.0
aF0.0
aF2.8286901989627133
aF0.0
aF0.0
aF0.30118914042403266
atp212
a(g1
(lp213
F0.0
aF5.448053359773114
aF0.0
aF5.155496634261421
aF0.0
aF4.033633262635355
aF0.0
aF1.530447544895568
aF0.0
aF0.0
aF5.321591769412196
aF0.0
aF0.0
aF1.9025798821248252
aF0.0
aF0.0
aF2.8300768762083632
aF0.0
aF0.0
aF0.25594483512237715
atp214
a(g1
(lp215
F0.0
aF5.4768935043594285
aF0.0
aF5.182528860694288
aF0.0
aF4.0526208084737
aF0.0
aF1.5241939660432005
aF0.0
aF0.0
aF5.253794263066607
aF0.0
aF0.0
aF1.8702602945292535
aF0.0
aF0.0
aF2.793291483816693
aF0.0
aF0.0
aF0.26133064862203514
atp216
a(g1
(lp217
F0.0
aF5.270378685957842
aF0.0
aF4.967556807984893
aF0.0
aF3.809199425361985
aF0.0
aF1.28779792037242
aF0.0
aF0.0
aF4.846968461234024
aF0.0
aF0.0
aF1.4805645137792118
aF0.0
aF0.0
aF2.691115492544855
aF0.0
aF0.0
aF0.13876905756108038
atp218
a(g1
(lp219
F0.0
aF5.571871896697635
aF0.0
aF5.279272237170892
aF0.0
aF4.156398392021841
aF0.0
aF1.626737270301729
aF0.0
aF0.0
aF5.456505418957711
aF0.0
aF0.0
aF2.12312706227763
aF0.0
aF0.0
aF2.7952266200583873
aF0.0
aF0.0
aF0.2918498747965517
atp220
a(g1
(lp221
F0.0
aF5.41223021138835
aF0.0
aF5.127478610045178
aF0.0
aF4.031508295329089
aF0.0
aF1.5630104040863064
aF0.0
aF0.0
aF5.172496627076694
aF0.0
aF0.0
aF1.99570032618898
aF0.0
aF0.0
aF2.6949785174447287
aF0.0
aF0.0
aF0.2896224264558217
atp222
a(g1
(lp223
F0.0
aF5.494794951906645
aF0.0
aF5.19804625138643
aF0.0
aF4.05958823876419
aF0.0
aF1.5203025724465753
aF0.0
aF0.0
aF5.258680811820917
aF0.0
aF0.0
aF1.867325841648126
aF0.0
aF0.0
aF2.7926606406673153
aF0.0
aF0.0
aF0.2449231677642398
atp224
a(g1
(lp225
F0.0
aF5.4463401574821155
aF0.0
aF5.158810984851636
aF0.0
aF4.054638673073984
aF0.0
aF1.5664019637810056
aF0.0
aF0.0
aF5.121113567944726
aF0.0
aF0.0
aF1.93835717239376
aF0.0
aF0.0
aF2.6467924752428647
aF0.0
aF0.0
aF0.2865531259118206
atp226
a(g1
(lp227
F0.0
aF5.4784710559145395
aF0.0
aF5.186452668596787
aF0.0
aF4.064884289751566
aF0.0
aF1.559132913549745
aF0.0
aF0.0
aF5.353897198166975
aF0.0
aF0.0
aF1.9487536182827487
aF0.0
aF0.0
aF2.8296819506712363
aF0.0
aF0.0
aF0.28686929290532925
atp228
a(g1
(lp229
F0.0
aF5.421207909058878
aF0.0
aF5.125865332215105
aF0.0
aF3.993215086099025
aF0.0
aF1.4808172092701
aF0.0
aF0.0
aF5.1159923976996104
aF0.0
aF0.0
aF1.8047969513790116
aF0.0
aF0.0
aF2.7303506252375644
aF0.0
aF0.0
aF0.2549546785519257
atp230
a(g1
(lp231
F0.0
aF5.403155061082785
aF0.0
aF5.117501182244508
aF0.0
aF4.025308350454536
aF0.0
aF1.5783755467117782
aF0.0
aF0.0
aF5.142782478760858
aF0.0
aF0.0
aF1.9536635322915896
aF0.0
aF0.0
aF2.651573686107864
aF0.0
aF0.0
aF0.2888228961475572
atp232
a(g1
(lp233
F0.0
aF5.377755661778589
aF0.0
aF5.08574833808176
aF0.0
aF3.967348347710239
aF0.0
aF1.490923141637362
aF0.0
aF0.0
aF5.254386181175108
aF0.0
aF0.0
aF1.8188538022735563
aF0.0
aF0.0
aF2.7403555238936463
aF0.0
aF0.0
aF0.19685485082959053
atp234
a(g1
(lp235
F0.0
aF5.3942063549125665
aF0.0
aF5.112768232874625
aF0.0
aF4.035729473116299
aF0.0
aF1.6097940075231605
aF0.0
aF0.0
aF5.119150439250801
aF0.0
aF0.0
aF2.020224538095786
aF0.0
aF0.0
aF2.5972701632975226
aF0.0
aF0.0
aF0.3038613235690177
atp236
a(g1
(lp237
F0.0
aF5.470339834439483
aF0.0
aF5.188304542544381
aF0.0
aF4.10368616179004
aF0.0
aF1.6423335925256486
aF0.0
aF0.0
aF5.357316603192306
aF0.0
aF0.0
aF2.0896740100256923
aF0.0
aF0.0
aF2.6881401338566047
aF0.0
aF0.0
aF0.2831483110823075
atp238
a(g1
(lp239
F0.0
aF5.533967305947521
aF0.0
aF5.23944472390541
aF0.0
aF4.10621699617608
aF0.0
aF1.5506920349724276
aF0.0
aF0.0
aF5.4773728694700425
aF0.0
aF0.0
aF1.9274758956451317
aF0.0
aF0.0
aF2.925287387809354
aF0.0
aF0.0
aF0.2535708330070247
atp240
a(g1
(lp241
F0.0
aF5.338009707949793
aF0.0
aF5.042690078990512
aF0.0
aF3.908775836194285
aF0.0
aF1.3983134293284942
aF0.0
aF0.0
aF4.860505345312388
aF0.0
aF0.0
aF1.6297688226170362
aF0.0
aF0.0
aF2.6339767790827477
aF0.0
aF0.0
aF0.20335235924745523
atp242
a(g1
(lp243
F0.0
aF5.590303855136549
aF0.0
aF5.306208047731345
aF0.0
aF4.209807312599795
aF0.0
aF1.6922251985202832
aF0.0
aF0.0
aF5.551857139238352
aF0.0
aF0.0
aF2.2081330597889934
aF0.0
aF0.0
aF2.837087991852653
aF0.0
aF0.0
aF0.3561616792872439
atp244
a(g1
(lp245
F0.0
aF5.375400240985952
aF0.0
aF5.0788967745605875
aF0.0
aF3.937662220769161
aF0.0
aF1.3880087804757146
aF0.0
aF0.0
aF5.049742201319161
aF0.0
aF0.0
aF1.6115200485863845
aF0.0
aF0.0
aF2.7912778114315127
aF0.0
aF0.0
aF0.1813659704954472
atp246
a(g1
(lp247
F0.0
aF5.440109926712644
aF0.0
aF5.14674768467746
aF0.0
aF4.021794353801321
aF0.0
aF1.5104445002260314
aF0.0
aF0.0
aF5.172685870440473
aF0.0
aF0.0
aF1.8339793434663143
aF0.0
aF0.0
aF2.7724304425024724
aF0.0
aF0.0
aF0.25972515006193225
atp248
a(g1
(lp249
F0.0
aF5.351575410447759
aF0.0
aF5.055750384661166
aF0.0
aF3.9223867822870186
aF0.0
aF1.4178271426217905
aF0.0
aF0.0
aF5.044269189322025
aF0.0
aF0.0
aF1.700171573949944
aF0.0
aF0.0
aF2.7114821070327033
aF0.0
aF0.0
aF0.21145755948558764
atp250
a(g1
(lp251
F0.0
aF5.488394436981777
aF0.0
aF5.204462104772027
aF0.0
aF4.116527507115211
aF0.0
aF1.6562995422509725
aF0.0
aF0.0
aF5.307465772582327
aF0.0
aF0.0
aF2.1567885373062583
aF0.0
aF0.0
aF2.686383567722767
aF0.0
aF0.0
aF0.31152683970396905
atp252
a(g1
(lp253
F0.0
aF5.198316456302934
aF0.0
aF4.912716019985521
aF0.0
aF3.8198587417487877
aF0.0
aF1.3992427419688642
aF0.0
aF0.0
aF4.926559598008646
aF0.0
aF0.0
aF1.7516359337474803
aF0.0
aF0.0
aF2.5405256327751995
aF0.0
aF0.0
aF0.18707999858963678
atp254
a(g1
(lp255
F0.0
aF5.454013127318643
aF0.0
aF5.159687474923861
aF0.0
aF4.03035154616275
aF0.0
aF1.509646571007865
aF0.0
aF0.0
aF5.235948327511806
aF0.0
aF0.0
aF1.8492370731546186
aF0.0
aF0.0
aF2.7764781625560104
aF0.0
aF0.0
aF0.23910267387433323
atp256
a(g1
(lp257
F0.0
aF5.366724012969021
aF0.0
aF5.071247829577955
aF0.0
aF3.9379200705338593
aF0.0
aF1.4244166519061519
aF0.0
aF0.0
aF4.91066666943524
aF0.0
aF0.0
aF1.661790594914702
aF0.0
aF0.0
aF2.6868556844463223
aF0.0
aF0.0
aF0.2179820236527551
atp258
a(g1
(lp259
F0.0
aF5.5608896259875795
aF0.0
aF5.268231917779667
aF0.0
aF4.143600228765442
aF0.0
aF1.6172584265562702
aF0.0
aF0.0
aF5.404077215000553
aF0.0
aF0.0
aF2.0587149910220433
aF0.0
aF0.0
aF2.7985128507579593
aF0.0
aF0.0
aF0.3208629669992224
atp260
a(g1
(lp261
F0.0
aF5.437918370442729
aF0.0
aF5.145592441519483
aF0.0
aF4.024079448641344
aF0.0
aF1.5334577642256457
aF0.0
aF0.0
aF5.0791610305100106
aF0.0
aF0.0
aF1.886847182874145
aF0.0
aF0.0
aF2.6840200253622783
aF0.0
aF0.0
aF0.3096401364761087
atp262
a.