(lp0
(VPt
p1
(lp2
F0.0
aF5.196150377501123
aF0.0
aF4.896609792669548
aF0.0
aF3.7480061817619488
aF0.0
aF1.2444746540823195
aF0.0
aF0.0
aF4.120416665214447
aF0.0
aF0.0
aF1.2856967902883638
aF0.0
aF0.0
aF2.2701920422593647
aF0.0
aF0.0
aF0.14116457651953584
atp3
a(g1
(lp4
F0.0
aF5.341280807149226
aF0.0
aF5.054309074214205
aF0.0
aF3.953693096493647
aF0.0
aF1.5298375866914729
aF0.0
aF0.0
aF4.980945783688486
aF0.0
aF0.0
aF1.811502925228499
aF0.0
aF0.0
aF2.6566320977108826
aF0.0
aF0.0
aF0.31487426071996477
atp5
a(g1
(lp6
F0.0
aF5.141887968076379
aF0.0
aF4.857658529507431
aF0.0
aF3.7643726923568566
aF0.0
aF1.3223879079810437
aF0.0
aF0.0
aF4.119185263935658
aF0.0
aF0.0
aF1.4046363346906008
aF0.0
aF0.0
aF2.1936132806090876
aF0.0
aF0.0
aF0.17748843241800422
atp7
a(g1
(lp8
F0.0
aF5.513519413702375
aF0.0
aF5.2390621573187595
aF0.0
aF4.182325374282137
aF0.0
aF1.7572921537863606
aF0.0
aF0.0
aF5.253744805232214
aF0.0
aF0.0
aF2.3376420376301152
aF0.0
aF0.0
aF2.429540328999579
aF0.0
aF0.0
aF0.35695878795060837
atp9
a(g1
(lp10
F0.0
aF4.584023578347085
aF0.0
aF4.324321375511376
aF0.0
aF3.3398248480913613
aF0.0
aF1.2547301520724319
aF0.0
aF0.0
aF3.389145582349717
aF0.0
aF0.0
aF1.2840125737399668
aF0.0
aF0.0
aF1.7396968474497951
aF0.0
aF0.0
aF0.17187899458650627
atp11
a(g1
(lp12
F0.0
aF5.277424909690574
aF0.0
aF5.013004608659769
aF0.0
aF3.9958132345659614
aF0.0
aF1.677900572845042
aF0.0
aF0.0
aF4.8442291064897525
aF0.0
aF0.0
aF2.155578571677708
aF0.0
aF0.0
aF2.4115783823756303
aF0.0
aF0.0
aF0.370790722529016
atp13
a(g1
(lp14
F0.0
aF4.623956361832302
aF0.0
aF4.357590869454451
aF0.0
aF3.3450458308373023
aF0.0
aF1.1503044113743837
aF0.0
aF0.0
aF3.374462697631108
aF0.0
aF0.0
aF1.2231911735464105
aF0.0
aF0.0
aF1.6750121339793684
aF0.0
aF0.0
aF0.09906603612576906
atp15
a(g1
(lp16
F0.0
aF5.020397997712793
aF0.0
aF4.7414722050325775
aF0.0
aF3.677795991473217
aF0.0
aF1.3347272858768826
aF0.0
aF0.0
aF4.496452535428651
aF0.0
aF0.0
aF1.4869703412400617
aF0.0
aF0.0
aF2.432618085924052
aF0.0
aF0.0
aF0.15212524678059247
atp17
a(g1
(lp18
F0.0
aF5.3149396963949
aF0.0
aF5.013861722084788
aF0.0
aF3.85909099410303
aF0.0
aF1.3232527807364538
aF0.0
aF0.0
aF4.2978187807527
aF0.0
aF0.0
aF1.4331114306958925
aF0.0
aF0.0
aF2.310124120433882
aF0.0
aF0.0
aF0.1728596336895236
atp19
a(g1
(lp20
F0.0
aF5.1054575968164455
aF0.0
aF4.826146246828674
aF0.0
aF3.755311628816301
aF0.0
aF1.3916604732773292
aF0.0
aF0.0
aF4.891234393469098
aF0.0
aF0.0
aF1.6312603877615022
aF0.0
aF0.0
aF2.573783421859728
aF0.0
aF0.0
aF0.17558128673971704
atp21
a(g1
(lp22
F0.0005330635870375202
aF5.37175368007155
aF0.0004467523594967438
aF5.078566993315809
aF0.00019678887277137848
aF3.9509821782694456
aF4.378114322332812e-06
aF1.4313602811781128
aF0.0
aF0.00034981956046284754
aF4.536232153321777
aF0.0
aF4.1616472431906674e-05
aF1.5915073572372895
aF0.0
aF0.0002541439817271236
aF2.4166591576804772
aF0.0
aF1.4280303347247357e-07
aF0.227794570503828
atp23
a(g1
(lp24
F0.0
aF5.007592776375222
aF0.0
aF4.712188541337301
aF0.0
aF3.5859893541790533
aF0.0
aF1.171144477130416
aF0.0
aF0.0
aF4.567619939755913
aF0.0
aF0.0
aF1.307518081530721
aF0.0
aF0.0
aF2.5934973646514954
aF0.0
aF0.0
aF0.10183325862760918
atp25
a(g1
(lp26
F0.0
aF4.541331205777737
aF0.0
aF4.278045665984383
aF0.0
aF3.275057631151336
aF0.0
aF1.1011205832742017
aF0.0
aF0.0
aF3.351601110617645
aF0.0
aF0.0
aF1.1300366465149208
aF0.0
aF0.0
aF1.7378247742307047
aF0.0
aF0.0
aF0.11278135767918414
atp27
a(g1
(lp28
F0.0
aF5.235561465765926
aF0.0
aF4.977797764686372
aF0.0
aF3.9843731142526018
aF0.0
aF1.6645750532267167
aF0.0
aF0.0
aF4.844398708679598
aF0.0
aF0.0
aF2.129870078195848
aF0.0
aF0.0
aF2.282810324199669
aF0.0
aF0.0
aF0.33339226409664385
atp29
a(g1
(lp30
F0.0
aF4.639906845643792
aF0.0
aF4.373707172535595
aF0.0
aF3.3618003789701585
aF0.0
aF1.17259898867202
aF0.0
aF0.0
aF3.5336278379339396
aF0.0
aF0.0
aF1.255243138694012
aF0.0
aF0.0
aF1.8448490302024487
aF0.0
aF0.0
aF0.13293276397105994
atp31
a(g1
(lp32
F0.0012227745833186458
aF4.859896515940948
aF0.0010255081610011348
aF4.583027036374661
aF0.00045320437233901565
aF3.5303778559263495
aF1.024021992915566e-05
aF1.2440971533639704
aF5.493639787539553e-07
aF0.00033799312267132565
aF4.177086989564457
aF1.2149803253477483e-08
aF4.886046836491107e-05
aF1.3634240800011443
aF5.144692931874599e-07
aF0.00022942696562836974
aF2.2640513952360126
aF1.230823332541663e-13
aF2.1955915062222868e-07
aF0.15242931960537667
atp33
a(g1
(lp34
F0.0
aF5.301607403850519
aF0.0
aF4.993688225938883
aF0.0
aF3.818147348598509
aF0.0
aF1.2847864378693314
aF0.0
aF0.0
aF4.619811902183511
aF0.0
aF0.0
aF1.4092642634903654
aF0.0
aF0.0
aF2.613720032820717
aF0.0
aF0.0
aF0.1672003646199637
atp35
a(g1
(lp36
F0.0
aF4.929357455640894
aF0.0
aF4.642172661859692
aF0.0
aF3.5511187915247495
aF0.0
aF1.2679128073870616
aF0.0
aF0.0
aF4.1949678839899525
aF0.0
aF0.0
aF1.3194255329528175
aF0.0
aF0.0
aF2.384712956557402
aF0.0
aF0.0
aF0.19602180417806414
atp37
a(g1
(lp38
F0.0
aF5.19604293452097
aF0.0
aF4.921222771246633
aF0.0
aF3.869203387487319
aF0.0
aF1.4980825547596657
aF0.0
aF0.0
aF4.572875644150233
aF0.0
aF0.0
aF1.7537027329631678
aF0.0
aF0.0
aF2.361171460195952
aF0.0
aF0.0
aF0.2674898781187286
atp39
a(g1
(lp40
F0.0
aF4.984127261511177
aF0.0
aF4.704968370485935
aF0.0
aF3.635456674743661
aF0.0
aF1.2773675381667262
aF0.0
aF0.0
aF4.218794702523083
aF0.0
aF0.0
aF1.4152773753799333
aF0.0
aF0.0
aF2.2332273943869896
aF0.0
aF0.0
aF0.13852858816463448
atp41
a(g1
(lp42
F0.0
aF5.493882161342638
aF0.0
aF5.218089230052313
aF0.0
aF4.157231440634566
aF0.0
aF1.7921103419732656
aF0.0
aF0.0
aF5.29328373044902
aF0.0
aF0.0
aF2.3277072866890784
aF0.0
aF0.0
aF2.6723437839115642
aF0.0
aF0.0
aF0.40204029041185013
atp43
a(g1
(lp44
F0.0
aF5.2688513731724615
aF0.0
aF4.990728405222993
aF0.0
aF3.919818735665488
aF0.0
aF1.5273330587148293
aF0.0
aF0.0
aF5.1244194394432006
aF0.0
aF0.0
aF1.8908209823301663
aF0.0
aF0.0
aF2.6637713680222235
aF0.0
aF0.0
aF0.22292777126705882
atp45
a(g1
(lp46
F0.0
aF5.101820986647546
aF0.0
aF4.8058804703820455
aF0.0
aF3.676136320419909
aF0.0
aF1.2346408585338438
aF0.0
aF0.0
aF4.563283266940654
aF0.0
aF0.0
aF1.3498651585205728
aF0.0
aF0.0
aF2.5581042553041464
aF0.0
aF0.0
aF0.1155524990289359
atp47
a(g1
(lp48
F0.0
aF4.869859901735376
aF0.0
aF4.581918305041438
aF0.0
aF3.4853601972027892
aF0.0
aF1.136068418376691
aF0.0
aF0.0
aF4.030039611961661
aF0.0
aF0.0
aF1.1971191762953475
aF0.0
aF0.0
aF2.222828825774217
aF0.0
aF0.0
aF0.09106582748213854
atp49
a(g1
(lp50
F0.0
aF5.626466838149703
aF0.0
aF5.332401821912045
aF0.0
aF4.2044650886094175
aF0.0
aF1.6671710247268547
aF0.0
aF0.0
aF5.561607577299765
aF0.0
aF0.0
aF2.131737722930483
aF0.0
aF0.0
aF2.887508429864751
aF0.0
aF0.0
aF0.3307668348109875
atp51
a(g1
(lp52
F0.0
aF5.238289570438512
aF0.0
aF4.951521388183632
aF0.0
aF3.853490453039699
aF0.0
aF1.42574867351361
aF0.0
aF0.0
aF4.629769459916757
aF0.0
aF0.0
aF1.7007535953282853
aF0.0
aF0.0
aF2.4406844450993885
aF0.0
aF0.0
aF0.2581006988922688
atp53
a(g1
(lp54
F0.0
aF5.49741186383887
aF0.0
aF5.219133299411173
aF0.0
aF4.149095638068007
aF0.0
aF1.6990349176401642
aF0.0
aF0.0
aF5.342023433937359
aF0.0
aF0.0
aF2.233923956543287
aF0.0
aF0.0
aF2.596901751336714
aF0.0
aF0.0
aF0.3293905884436947
atp55
a(g1
(lp56
F0.0
aF5.075544042174093
aF0.0
aF4.783363078836144
aF0.0
aF3.6699161184592106
aF0.0
aF1.2657305245262385
aF0.0
aF0.0
aF4.27850437049076
aF0.0
aF0.0
aF1.4226141788419906
aF0.0
aF0.0
aF2.3365196748215196
aF0.0
aF0.0
aF0.18153613603924307
atp57
a(g1
(lp58
F0.0
aF5.465699277294105
aF0.0
aF5.179990814215122
aF0.0
aF4.075738866467107
aF0.0
aF1.5448281755050617
aF0.0
aF0.0
aF5.336231916419964
aF0.0
aF0.0
aF1.924127183898384
aF0.0
aF0.0
aF2.799221074966311
aF0.0
aF0.0
aF0.24288208229002475
atp59
a(g1
(lp60
F0.0
aF5.612833807616377
aF0.0
aF5.330179174194071
aF0.0
aF4.240323564629082
aF0.0
aF1.7387616422224184
aF0.0
aF0.0
aF5.243384678247878
aF0.0
aF0.0
aF2.2614227298712093
aF0.0
aF0.0
aF2.583872987049123
aF0.0
aF0.0
aF0.39596346835230967
atp61
a(g1
(lp62
F0.0
aF5.486329278997898
aF0.0
aF5.183906971755455
aF0.0
aF4.023163543896333
aF0.0
aF1.455771500333938
aF0.0
aF0.0
aF5.214206592922559
aF0.0
aF0.0
aF1.7450379814050678
aF0.0
aF0.0
aF2.817742408939275
aF0.0
aF0.0
aF0.20892059777399852
atp63
a(g1
(lp64
F0.0
aF5.385137760934823
aF0.0
aF5.104229175067123
aF0.0
aF4.023499022920218
aF0.0
aF1.5715981280727986
aF0.0
aF0.0
aF5.334933056524412
aF0.0
aF0.0
aF1.9944882353656612
aF0.0
aF0.0
aF2.766534849904016
aF0.0
aF0.0
aF0.2802555441590375
atp65
a(g1
(lp66
F0.1286392304753251
aF5.681652842801075
aF0.11553966022515394
aF5.372383040563275
aF0.07023322266303332
aF4.182675892182252
aF0.007030661811399953
aF1.5193879131856722
aF0.0004068525846273404
aF0.168548123694364
aF5.506202954550095
aF5.69318096585318e-06
aF0.03933458225073545
aF1.7996932821715945
aF0.0003902401192538467
aF0.10022437210985728
aF3.0815846086764176
aF1.4962478979581097e-11
aF0.0009387629235777154
aF0.2555424576106008
atp67
a(g1
(lp68
F0.19622977864345623
aF6.1277016080896125
aF0.17786497797249853
aF5.836531267732692
aF0.11307465107262193
aF4.70298119776468
aF0.014420223296006325
aF2.0380507316433216
aF0.004811499149528939
aF0.3281781223829946
aF7.012639809992415
aF8.067219882666474e-05
aF0.09225623226000886
aF3.007111956772509
aF0.004577376904946845
aF0.1823891177453967
aF3.507986188328148
aF3.6173505558043577e-10
aF0.003617241047563638
aF0.5100876146679459
atp69
a(g1
(lp70
F0.14195979118321783
aF5.8218141656018885
aF0.12812643437299204
aF5.5135439031436135
aF0.07960943058633047
aF4.322030411516493
aF0.008743146452225462
aF1.6027932363975552
aF0.0
aF0.2029130219635384
aF5.987604716373558
aF0.0
aF0.04723497041712367
aF1.999404652789543
aF0.0
aF0.1219884388001584
aF3.343483924916113
aF0.0
aF0.0015246714012393423
aF0.28083242278134124
atp71
a(g1
(lp72
F0.09689427000062456
aF5.765220282924135
aF0.08635745855639154
aF5.497239042469621
aF0.05060909484108062
aF4.46089117561321
aF0.004236908589843875
aF2.025347862369375
aF0.0
aF0.18362789434667545
aF6.721483635842883
aF0.0
aF0.03688185020279509
aF3.0488818778225455
aF0.0
aF0.11524298183390039
aF3.1910438405481223
aF0.0
aF0.0007161926699349336
aF0.5792056908359061
atp73
a(g1
(lp74
F0.0035144601668192915
aF5.379415867643299
aF0.002970136841363396
aF5.089772424230841
aF0.0013600632019392502
aF3.981320234171287
aF3.622859914313939e-05
aF1.5146123052574785
aF0.0
aF0.0011382328422479724
aF4.480428009772525
aF0.0
aF0.00024388281453979028
aF1.8494025284661555
aF0.0
aF0.0006494820081710714
aF2.2046907812785865
aF0.0
aF1.8054514885931246e-06
aF0.2860320446782901
atp75
a(g1
(lp76
F0.3073097703669605
aF5.550418883470558
aF0.2797721941627405
aF5.263526617912468
aF0.18151219471200897
aF4.166147391727089
aF0.025769253457751468
aF1.6848821855970382
aF0.030460837424577225
aF0.2675728387639225
aF5.256481960556855
aF0.0009497911975767925
aF0.08672136110689982
aF2.1022251734919943
aF0.027780334502564254
aF0.13568655072692756
aF2.735648140715652
aF2.6259271726793997e-08
aF0.004155274600404627
aF0.356738276669752
atp77
a(g1
(lp78
F0.09848317939406737
aF5.13117401960784
aF0.08760605080412605
aF4.860682371324839
aF0.05093640550276407
aF3.827005057551909
aF0.0041661746634651135
aF1.5128443935527556
aF0.00046072505229046156
aF0.04407237114948796
aF4.635813655857202
aF8.449303348762405e-06
aF0.013022170965727027
aF1.8513673882609647
aF0.00043627920529059044
aF0.023749984307401672
aF2.3487130350026955
aF4.9349278946335404e-11
aF0.0005565511808228658
aF0.29614764771268165
atp79
a(g1
(lp80
F0.7750153063688003
aF5.905601622301803
aF0.7376521000444397
aF5.618035706135934
aF0.5905303295663744
aF4.50771261272414
aF0.23481854662236568
aF1.9170543247001208
aF0.18540158314918756
aF0.464722462489637
aF6.906777076687416
aF0.002364357449880456
aF0.7174355235005838
aF2.7426174027222543
aF0.17848564854690013
aF0.04434906172571194
aF3.565866148695745
aF4.720653113166212e-09
aF0.20562055163045342
aF0.4332908465962111
atp81
a(VCu
p82
(lp83
F0.8035633703695062
aF2.330763716024822
aF0.7913850020158747
aF2.157177901324877
aF0.7372305619452422
aF1.5246023596102538
aF0.5305354514527388
aF0.38701888273903184
aF0.0
aF0.039559232716367736
aF1.749299074233126
aF0.0
aF0.24706244718621123
aF0.23786797463089654
aF0.0
aF0.0008558783039421386
aF1.2338338230920403
aF0.0
aF0.1725343923554276
aF0.0018475078605131449
atp84
a(g82
(lp85
F0.8035633703695062
aF0.42890872654176077
aF0.7913850020158747
aF0.38383790774071247
aF0.7372305619452422
aF0.23062742769919276
aF0.5305354514527388
aF0.02416864292306478
aF0.0
aF0.26747154784373495
aF0.06261144672953761
aF0.0
aF0.01915013205884397
aF0.005658657720731865
aF0.0
aF0.22366464565041982
aF0.04870803470044518
aF0.0
aF8.368324462404524e-05
aF8.016023603288024e-06
atp86
a(g1
(lp87
F0.00556326249189039
aF5.442850399303479
aF0.004717973971564622
aF5.137609169252394
aF0.002195525115822308
aF3.966923942304931
aF6.302648454587595e-05
aF1.3869203309800162
aF0.0
aF0.004593771270978179
aF4.76539622731074
aF0.0
aF0.0005906870220928946
aF1.5321236281882542
aF0.0
aF0.003318292720825995
aF2.65480796213274
aF0.0
aF4.705503687672098e-06
aF0.20028998403075424
atp88
a(g1
(lp89
F0.005491976645246931
aF5.49972576526686
aF0.004657015271363004
aF5.19269683541837
aF0.002166069250022891
aF4.020107992974101
aF6.203606531683656e-05
aF1.5018962011981425
aF0.0
aF0.007049487988918222
aF5.7809008625507525
aF0.0
aF0.0007693081540229976
aF1.7606847750496175
aF0.0
aF0.005358308979223423
aF3.1739581513258
aF0.0
aF4.12941060596107e-06
aF0.1476187336279863
atp90
a(g1
(lp91
F0.0
aF5.311221020213821
aF0.0
aF5.017313851115717
aF0.0
aF3.8880574399962637
aF0.0
aF1.3705433179356443
aF0.0
aF0.0
aF4.3621718672340215
aF0.0
aF0.0
aF1.5506826534581848
aF0.0
aF0.0
aF2.3342390377472753
aF0.0
aF0.0
aF0.18647969815812065
atp92
a(g1
(lp93
F0.0
aF5.114660044709894
aF0.0
aF4.8411170112877
aF0.0
aF3.796797715495817
aF0.0
aF1.5202299226581542
aF0.0
aF0.0
aF5.001582962196662
aF0.0
aF0.0
aF1.8467623853812083
aF0.0
aF0.0
aF2.6528300557437126
aF0.0
aF0.0
aF0.1932910309328735
atp94
a(g1
(lp95
F0.051671824318667535
aF5.285064075707053
aF0.04528427227539381
aF5.003740004471733
aF0.02454452531381742
aF3.9308713548222505
aF0.0014299657419148777
aF1.5689967228186896
aF0.0
aF0.026403836065512064
aF4.702730881161386
aF0.0
aF0.006686111796118205
aF1.9099474965881829
aF0.0
aF0.014624735152864356
aF2.196433107251922
aF0.0
aF0.00013441706718542789
aF0.18844869512985296
atp96
a(g1
(lp97
F0.3896597553808828
aF5.843266256590289
aF0.36311135000537365
aF5.557345722068528
aF0.2631686289705128
aF4.454127465047073
aF0.06337966050975648
aF1.875442665743082
aF0.022118105143528837
aF0.4301790289378799
aF6.446489074317073
aF3.95203896922718e-05
aF0.1991909021485904
aF2.634421758315757
aF0.021999966403705867
aF0.18442510426133246
aF3.245654840023025
aF2.2424110139672563e-13
aF0.023186166875149815
aF0.3980351514112461
atp98
a(g1
(lp99
F0.0
aF4.6336888138473284
aF0.0
aF4.367010754227784
aF0.0
aF3.3559038457797397
aF0.0
aF1.2309133403783905
aF0.0
aF0.0
aF3.5344903461472694
aF0.0
aF0.0
aF1.2411746460924609
aF0.0
aF0.0
aF1.8851440344449366
aF0.0
aF0.0
aF0.1425615929682784
atp100
a(g1
(lp101
F0.011182025338633357
aF5.203335526784262
aF0.009549264607340194
aF4.911584096466591
aF0.004589723113607736
aF3.8047103801650275
aF0.00015307694226162973
aF1.4450516309025545
aF0.0
aF0.006012244101026579
aF4.680306951896863
aF0.0
aF0.0007549725921036172
aF1.6175324965626496
aF0.0
aF0.004332293620046715
aF2.618321498870193
aF0.0
aF5.511180322220039e-06
aF0.27424065817412174
atp102
a(g1
(lp103
F0.0
aF5.362222052320946
aF0.0
aF5.063666164407235
aF0.0
aF3.9227765117364854
aF0.0
aF1.421812639889661
aF0.0
aF0.0
aF4.859852476943163
aF0.0
aF0.0
aF1.6521673371326366
aF0.0
aF0.0
aF2.66245509355455
aF0.0
aF0.0
aF0.22377912347137266
atp104
a(g1
(lp105
F0.0
aF4.983861958918485
aF0.0
aF4.6959690807620555
aF0.0
aF3.5970482821633603
aF0.0
aF1.2170234441705872
aF0.0
aF0.0
aF4.181453359616798
aF0.0
aF0.0
aF1.3577772249858011
aF0.0
aF0.0
aF2.257715734101383
aF0.0
aF0.0
aF0.1461203619551591
atp106
a(g1
(lp107
F0.0
aF5.24064496368459
aF0.0
aF4.943737763838425
aF0.0
aF3.811024132460726
aF0.0
aF1.346924531773377
aF0.0
aF0.0
aF4.461220249534171
aF0.0
aF0.0
aF1.5317117677184922
aF0.0
aF0.0
aF2.414837420470732
aF0.0
aF0.0
aF0.19035479378382295
atp108
a(g1
(lp109
F0.0
aF5.034653957214259
aF0.0
aF4.756617115028185
aF0.0
aF3.688549799089262
aF0.0
aF1.3088951341175674
aF0.0
aF0.0
aF4.185091602637049
aF0.0
aF0.0
aF1.529608352545894
aF0.0
aF0.0
aF2.1440283640745026
aF0.0
aF0.0
aF0.17241074714015986
atp110
a(g1
(lp111
F0.050738121907848426
aF5.507847176476988
aF0.04408653651178291
aF5.216560340713414
aF0.022987506993207705
aF4.097223192765981
aF0.001140750187434777
aF1.573710797364324
aF0.0006101094314909773
aF0.038983099841468666
aF5.306444251853553
aF1.5058015027717356e-05
aF0.0074494162465057676
aF1.9177858666431489
aF0.0005670768106140223
aF0.023674508228289957
aF2.9023304800357534
aF2.104174912611778e-10
aF5.260413177270327e-05
aF0.3258710233258033
atp112
a(g1
(lp113
F0.0
aF5.4150849333462086
aF0.0
aF5.119641470266742
aF0.0
aF3.987602341592753
aF0.0
aF1.4831069032509172
aF0.0
aF0.0
aF4.966482617435089
aF0.0
aF0.0
aF1.7859776242224574
aF0.0
aF0.0
aF2.5901735470651412
aF0.0
aF0.0
aF0.22604293099197972
atp114
a(g1
(lp115
F0.35465313874081944
aF5.720707609911975
aF0.32535438004757966
aF5.426984086607326
aF0.2189619370691659
aF4.296379438545731
aF0.03741195356378868
aF1.7283470137899444
aF0.03717957149287783
aF0.3422268341820814
aF6.363862105818245
aF0.0010400995570605405
aF0.1473932044494243
aF2.278022861740702
aF0.034226042538255085
aF0.15233141377845683
aF3.4070872967600248
aF2.0962294166106507e-08
aF0.012891048845955287
aF0.3130906814770701
atp116
a(g1
(lp117
F0.0
aF4.927693113304841
aF0.0
aF4.659525913244563
aF0.0
aF3.6364504453312487
aF0.0
aF1.3894758931354037
aF0.0
aF0.0
aF4.105086001825567
aF0.0
aF0.0
aF1.5943701298219892
aF0.0
aF0.0
aF2.0517045343472025
aF0.0
aF0.0
aF0.22058081615660932
atp118
a(g1
(lp119
F0.0
aF5.268385765361538
aF0.0
aF4.97112322762749
aF0.0
aF3.8306515763774325
aF0.0
aF1.318323915199319
aF0.0
aF0.0
aF4.639105165781008
aF0.0
aF0.0
aF1.4442601944541478
aF0.0
aF0.0
aF2.6168541011494493
aF0.0
aF0.0
aF0.17708688486134605
atp120
a(g1
(lp121
F0.0
aF4.939799007551519
aF0.0
aF4.631997547209656
aF0.0
aF3.4618350086865086
aF0.0
aF1.0213342927019933
aF0.0
aF0.0
aF4.106827276532553
aF0.0
aF0.0
aF1.0648387588628603
aF0.0
aF0.0
aF2.397507224831772
aF0.0
aF0.0
aF0.06938107495699013
atp122
a(g1
(lp123
F0.0
aF5.516394053364711
aF0.0
aF5.2347190114941275
aF0.0
aF4.1542038985961245
aF0.0
aF1.6939180381595162
aF0.0
aF0.0
aF5.368606303307922
aF0.0
aF0.0
aF2.224707719051355
aF0.0
aF0.0
aF2.781999328902451
aF0.0
aF0.0
aF0.3131180127864808
atp124
a(g1
(lp125
F0.0
aF5.284183717249999
aF0.0
aF5.013756917094906
aF0.0
aF3.9719175227301684
aF0.0
aF1.6198744296928707
aF0.0
aF0.0
aF4.848705463667078
aF0.0
aF0.0
aF2.142211069006837
aF0.0
aF0.0
aF2.492144051642006
aF0.0
aF0.0
aF0.38929231048321267
atp126
a(g1
(lp127
F0.14091071297296645
aF5.533035462959639
aF0.1268937428749878
aF5.229977301747868
aF0.07810048609202608
aF4.070544633564988
aF0.008311294340624966
aF1.5025876736830963
aF0.0006592147907870473
aF0.1569241585390208
aF5.7968505135319806
aF8.97887752163736e-06
aF0.040985312517628075
aF1.8668967616537175
aF0.0006329956188616455
aF0.084422151606826
aF3.1310409644342787
aF2.1786181729593872e-11
aF0.001058691672991584
aF0.16306424675217857
atp128
a(g1
(lp129
F0.0
aF4.751843449801472
aF0.0
aF4.48500276071368
aF0.0
aF3.4731756355320202
aF0.0
aF1.2998553830486212
aF0.0
aF0.0
aF3.7933277342366942
aF0.0
aF0.0
aF1.398465763451402
aF0.0
aF0.0
aF1.9184225315841519
aF0.0
aF0.0
aF0.171355937829763
atp130
a(g1
(lp131
F0.0
aF5.560200664576392
aF0.0
aF5.270391224158988
aF0.0
aF4.158522230772686
aF0.0
aF1.7221802957402312
aF0.0
aF0.0
aF5.387719781701564
aF0.0
aF0.0
aF2.1067805146297154
aF0.0
aF0.0
aF2.82488025106115
aF0.0
aF0.0
aF0.38518500763854485
atp132
a(g1
(lp133
F0.0
aF5.552199268352136
aF0.0
aF5.264891950529199
aF0.0
aF4.156890137405964
aF0.0
aF1.6533183240471725
aF0.0
aF0.0
aF5.260827549613172
aF0.0
aF0.0
aF2.130006921870025
aF0.0
aF0.0
aF2.640479439919514
aF0.0
aF0.0
aF0.3283101160876389
atp134
a(g1
(lp135
F0.0
aF5.236665695917728
aF0.0
aF4.9359032694103275
aF0.0
aF3.7865067510942705
aF0.0
aF1.2987458831759895
aF0.0
aF0.0
aF4.339745138736452
aF0.0
aF0.0
aF1.4366759859987852
aF0.0
aF0.0
aF2.3603434422610032
aF0.0
aF0.0
aF0.17118806175650453
atp136
a(g1
(lp137
F0.0
aF4.679508461339507
aF0.0
aF4.4035099982801995
aF0.0
aF3.3664658148530187
aF0.0
aF1.2825364711000253
aF0.0
aF0.0
aF3.5604421236572983
aF0.0
aF0.0
aF1.273041024096939
aF0.0
aF0.0
aF1.9960043565222303
aF0.0
aF0.0
aF0.24951010229786946
atp138
a(g1
(lp139
F0.0
aF5.068065462003548
aF0.0
aF4.805290404204787
aF0.0
aF3.7960576077839376
aF0.0
aF1.4917312946950418
aF0.0
aF0.0
aF4.2769923605976805
aF0.0
aF0.0
aF1.7664264915249586
aF0.0
aF0.0
aF2.058743017802569
aF0.0
aF0.0
aF0.26131739286961186
atp140
a(g1
(lp141
F0.0
aF5.284722863879749
aF0.0
aF4.999206281034776
aF0.0
aF3.9009233898758033
aF0.0
aF1.4467526401855941
aF0.0
aF0.0
aF4.717075846489151
aF0.0
aF0.0
aF1.6565711653803081
aF0.0
aF0.0
aF2.527360176944831
aF0.0
aF0.0
aF0.21674706759814738
atp142
a(g1
(lp143
F0.0
aF5.357759399856813
aF0.0
aF5.085498038202519
aF0.0
aF4.037040896735581
aF0.0
aF1.7285387120316917
aF0.0
aF0.0
aF4.861070981751487
aF0.0
aF0.0
aF2.2407154358125285
aF0.0
aF0.0
aF2.4035002975042024
aF0.0
aF0.0
aF0.40774299712268436
atp144
a(g1
(lp145
F0.0
aF4.9122923228632205
aF0.0
aF4.637217290145193
aF0.0
aF3.5860080081675485
aF0.0
aF1.333500954314976
aF0.0
aF0.0
aF4.063585809990657
aF0.0
aF0.0
aF1.4822586758178686
aF0.0
aF0.0
aF2.172267532621705
aF0.0
aF0.0
aF0.19911735108534354
atp146
a(g1
(lp147
F0.0
aF5.046233500893044
aF0.0
aF4.752550130068596
aF0.0
aF3.6353552258905197
aF0.0
aF1.245967995706442
aF0.0
aF0.0
aF4.09773611924726
aF0.0
aF0.0
aF1.3476801200685444
aF0.0
aF0.0
aF2.1760889114742437
aF0.0
aF0.0
aF0.12830252428613165
atp148
a(g1
(lp149
F0.0
aF4.875470428596997
aF0.0
aF4.5889610148009385
aF0.0
aF3.4950011237619805
aF0.0
aF1.1322716444915555
aF0.0
aF0.0
aF3.930529128930112
aF0.0
aF0.0
aF1.2058460188246212
aF0.0
aF0.0
aF2.133746618378275
aF0.0
aF0.0
aF0.08844043672805783
atp150
a(g1
(lp151
F0.0
aF5.475261097071332
aF0.0
aF5.1768096130843855
aF0.0
aF4.033414121578604
aF0.0
aF1.50286861887617
aF0.0
aF0.0
aF5.135576883931456
aF0.0
aF0.0
aF1.8312448118841207
aF0.0
aF0.0
aF2.725200499060198
aF0.0
aF0.0
aF0.24787566351058574
atp152
a(g1
(lp153
F0.0
aF5.420438981373378
aF0.0
aF5.142875220863032
aF0.0
aF4.075972271844363
aF0.0
aF1.6619054417135437
aF0.0
aF0.0
aF5.3219936339896226
aF0.0
aF0.0
aF2.078099089311024
aF0.0
aF0.0
aF2.7711559847888636
aF0.0
aF0.0
aF0.33629189758273736
atp154
a(g1
(lp155
F0.0
aF5.458306327247143
aF0.0
aF5.182685879374328
aF0.0
aF4.120795722903621
aF0.0
aF1.6802676406042838
aF0.0
aF0.0
aF5.300945134436668
aF0.0
aF0.0
aF2.1566015870177497
aF0.0
aF0.0
aF2.662435622232851
aF0.0
aF0.0
aF0.31375516159632144
atp156
a(g1
(lp157
F0.0
aF5.335065617544644
aF0.0
aF5.042193570636038
aF0.0
aF3.92041921556362
aF0.0
aF1.440002014705842
aF0.0
aF0.0
aF5.0835664642406355
aF0.0
aF0.0
aF1.6493383511852304
aF0.0
aF0.0
aF2.87679343069164
aF0.0
aF0.0
aF0.2004582621424037
atp158
a(g1
(lp159
F0.0
aF5.053933614469019
aF0.0
aF4.78081625997401
aF0.0
aF3.730287374431424
aF0.0
aF1.36713937948042
aF0.0
aF0.0
aF4.350402233495241
aF0.0
aF0.0
aF1.5949475256696717
aF0.0
aF0.0
aF2.2324127539559946
aF0.0
aF0.0
aF0.2052140124396811
atp160
a(g1
(lp161
F0.0
aF5.3915900047402205
aF0.0
aF5.098298569702857
aF0.0
aF3.9694389602781692
aF0.0
aF1.4474056771365726
aF0.0
aF0.0
aF5.011734192205218
aF0.0
aF0.0
aF1.7145692662083496
aF0.0
aF0.0
aF2.7048921204933776
aF0.0
aF0.0
aF0.20251147706194203
atp162
a(g1
(lp163
F0.0
aF4.880005061980452
aF0.0
aF4.59085153922623
aF0.0
aF3.489440393713328
aF0.0
aF1.1316803251237104
aF0.0
aF0.0
aF4.274492810525546
aF0.0
aF0.0
aF1.263118555056744
aF0.0
aF0.0
aF2.385210765141923
aF0.0
aF0.0
aF0.10510466031638037
atp164
a(g1
(lp165
F0.0
aF5.566205320306077
aF0.0
aF5.288000841483236
aF0.0
aF4.220000928210013
aF0.0
aF1.8131114293085606
aF0.0
aF0.0
aF5.375142337736805
aF0.0
aF0.0
aF2.3723416340901933
aF0.0
aF0.0
aF2.660168668909214
aF0.0
aF0.0
aF0.44690547282110993
atp166
a(g1
(lp167
F0.0
aF4.936630001431536
aF0.0
aF4.644359823672982
aF0.0
aF3.535884922527399
aF0.0
aF1.1852858931452877
aF0.0
aF0.0
aF3.919742407030541
aF0.0
aF0.0
aF1.2090466741561576
aF0.0
aF0.0
aF2.203397932426969
aF0.0
aF0.0
aF0.14177437770035456
atp168
a(g1
(lp169
F0.0
aF4.63573765602604
aF0.0
aF4.371546295296083
aF0.0
aF3.369835254421255
aF0.0
aF1.2231329454941011
aF0.0
aF0.0
aF3.2292869513748785
aF0.0
aF0.0
aF1.2652550512378289
aF0.0
aF0.0
aF1.6134457032107579
aF0.0
aF0.0
aF0.20885974063870283
atp170
a(g1
(lp171
F0.0
aF4.874616008606925
aF0.0
aF4.611845850504213
aF0.0
aF3.6087808348595565
aF0.0
aF1.3638851119948465
aF0.0
aF0.0
aF4.0293819747410895
aF0.0
aF0.0
aF1.5183254810022964
aF0.0
aF0.0
aF2.0869610055687327
aF0.0
aF0.0
aF0.21223438558660376
atp172
a(g1
(lp173
F0.0
aF4.533459994594665
aF0.0
aF4.277802958443038
aF0.0
aF3.3028290820512085
aF0.0
aF1.1698103769861212
aF0.0
aF0.0
aF3.3220690758064038
aF0.0
aF0.0
aF1.2284944488086096
aF0.0
aF0.0
aF1.6475043605335284
aF0.0
aF0.0
aF0.12618622762309287
atp174
a(g1
(lp175
F0.0
aF5.335294983031796
aF0.0
aF5.061028030198929
aF0.0
aF4.007796887073555
aF0.0
aF1.6961494206936774
aF0.0
aF0.0
aF4.905295503673408
aF0.0
aF0.0
aF2.1542088281702707
aF0.0
aF0.0
aF2.4272307040748013
aF0.0
aF0.0
aF0.35431672472395614
atp176
a(g1
(lp177
F0.0
aF5.138128067781849
aF0.0
aF4.863643165737962
aF0.0
aF3.8124961205934467
aF0.0
aF1.5458919291856996
aF0.0
aF0.0
aF4.2566469697863765
aF0.0
aF0.0
aF1.656800221393452
aF0.0
aF0.0
aF2.24937599436855
aF0.0
aF0.0
aF0.24528502537926938
atp178
a(g1
(lp179
F0.0
aF4.968862229014689
aF0.0
aF4.668413687751419
aF0.0
aF3.524615125001013
aF0.0
aF1.099956373652876
aF0.0
aF0.0
aF4.157588063859526
aF0.0
aF0.0
aF1.1821317360475623
aF0.0
aF0.0
aF2.3452416415599147
aF0.0
aF0.0
aF0.08118652564880426
atp180
a(g1
(lp181
F0.0
aF4.620135832629339
aF0.0
aF4.344092736100016
aF0.0
aF3.299184861998821
aF0.0
aF1.1051017779050427
aF0.0
aF0.0
aF3.22558328513906
aF0.0
aF0.0
aF1.0292197441189714
aF0.0
aF0.0
aF1.7566377928652992
aF0.0
aF0.0
aF0.09941986225623546
atp182
a(g1
(lp183
F0.0
aF5.157530293321155
aF0.0
aF4.88293376726226
aF0.0
aF3.8339953758612975
aF0.0
aF1.4896555831583405
aF0.0
aF0.0
aF4.722511060721875
aF0.0
aF0.0
aF1.7556169011465188
aF0.0
aF0.0
aF2.478547864754192
aF0.0
aF0.0
aF0.24277879634184127
atp184
a(g1
(lp185
F0.0
aF4.478255142145781
aF0.0
aF4.211713430723603
aF0.0
aF3.203840154955914
aF0.0
aF1.0834762153655533
aF0.0
aF0.0
aF3.209852794280466
aF0.0
aF0.0
aF1.0881322126256172
aF0.0
aF0.0
aF1.6877672202915217
aF0.0
aF0.0
aF0.11985236762717888
atp186
a(g1
(lp187
F0.0
aF5.036522632093537
aF0.0
aF4.755713850306481
aF0.0
aF3.6919278055743976
aF0.0
aF1.383714136677097
aF0.0
aF0.0
aF4.288438965166847
aF0.0
aF0.0
aF1.567861016696745
aF0.0
aF0.0
aF2.257093524886785
aF0.0
aF0.0
aF0.21288414387365928
atp188
a(g1
(lp189
F0.0
aF4.407294158498664
aF0.0
aF4.158699655055926
aF0.0
aF3.214512638503989
aF0.0
aF1.1689215727860658
aF0.0
aF0.0
aF3.356172492001233
aF0.0
aF0.0
aF1.2164468969475235
aF0.0
aF0.0
aF1.7333360761663317
aF0.0
aF0.0
aF0.15685765496084594
atp190
a(g1
(lp191
F0.0
aF5.4767179505124
aF0.0
aF5.207221910030184
aF0.0
aF4.170453408154703
aF0.0
aF1.7910047621666125
aF0.0
aF0.0
aF5.283493884379075
aF0.0
aF0.0
aF2.363889732636206
aF0.0
aF0.0
aF2.524966325652973
aF0.0
aF0.0
aF0.40458801984576154
atp192
a(g1
(lp193
F0.0
aF5.087964769897379
aF0.0
aF4.803918286562838
aF0.0
aF3.7151154954753576
aF0.0
aF1.3246448824971784
aF0.0
aF0.0
aF3.8952267349760983
aF0.0
aF0.0
aF1.3923104822569523
aF0.0
aF0.0
aF2.053884335425534
aF0.0
aF0.0
aF0.20282156743068208
atp194
a(g1
(lp195
F0.0
aF5.5563802439262435
aF0.0
aF5.268700125219466
aF0.0
aF4.162262507346997
aF0.0
aF1.6727538797507702
aF0.0
aF0.0
aF5.434670551750215
aF0.0
aF0.0
aF2.1035828703618518
aF0.0
aF0.0
aF2.8008064454183237
aF0.0
aF0.0
aF0.32049424221098355
atp196
a(g1
(lp197
F0.0
aF4.873610471995915
aF0.0
aF4.597310685091119
aF0.0
aF3.543299751576591
aF0.0
aF1.256481061532934
aF0.0
aF0.0
aF3.7036285310970287
aF0.0
aF0.0
aF1.285983768026471
aF0.0
aF0.0
aF2.0060042366806083
aF0.0
aF0.0
aF0.18080639471756701
atp198
a(g1
(lp199
F0.0
aF5.470450586094665
aF0.0
aF5.170388370780484
aF0.0
aF4.017152414724426
aF0.0
aF1.4565322854688794
aF0.0
aF0.0
aF5.144781678562781
aF0.0
aF0.0
aF1.7516112708402196
aF0.0
aF0.0
aF2.782880185732699
aF0.0
aF0.0
aF0.22647284111763252
atp200
a(g1
(lp201
F0.0
aF5.248199468545272
aF0.0
aF4.954883687879155
aF0.0
aF3.8302948061098565
aF0.0
aF1.357445966118047
aF0.0
aF0.0
aF4.555413663134012
aF0.0
aF0.0
aF1.5288724209977007
aF0.0
aF0.0
aF2.50197068525195
aF0.0
aF0.0
aF0.21039919958184541
atp202
a(g1
(lp203
F0.0
aF5.20749613735265
aF0.0
aF4.935351022601396
aF0.0
aF3.8900766998647196
aF0.0
aF1.5196462282317909
aF0.0
aF0.0
aF4.588573460339158
aF0.0
aF0.0
aF1.8912363013768905
aF0.0
aF0.0
aF2.203181630841077
aF0.0
aF0.0
aF0.24812250491564014
atp204
a(g1
(lp205
F0.0
aF4.85749372511063
aF0.0
aF4.587270214563889
aF0.0
aF3.550344232146735
aF0.0
aF1.2586345685265694
aF0.0
aF0.0
aF4.023349140421917
aF0.0
aF0.0
aF1.395344963783227
aF0.0
aF0.0
aF2.1448894664482423
aF0.0
aF0.0
aF0.16263541512303717
atp206
a(g1
(lp207
F0.0
aF5.340027665086147
aF0.0
aF5.046315315655855
aF0.0
aF3.921817875468578
aF0.0
aF1.438349882336403
aF0.0
aF0.0
aF4.674076595189465
aF0.0
aF0.0
aF1.708843746120814
aF0.0
aF0.0
aF2.4281132497883915
aF0.0
aF0.0
aF0.22385967715907673
atp208
a(g1
(lp209
F0.0
aF5.3860369332196925
aF0.0
aF5.108606707169206
aF0.0
aF4.047536506357819
aF0.0
aF1.6851711664266378
aF0.0
aF0.0
aF5.074319142709006
aF0.0
aF0.0
aF2.0558989116316355
aF0.0
aF0.0
aF2.5585874706095413
aF0.0
aF0.0
aF0.3340555551512322
atp210
a(g1
(lp211
F0.0
aF5.122546571149649
aF0.0
aF4.84497128746971
aF0.0
aF3.780720732210627
aF0.0
aF1.4093572519803956
aF0.0
aF0.0
aF4.443145393496791
aF0.0
aF0.0
aF1.6882291880759268
aF0.0
aF0.0
aF2.275027584986634
aF0.0
aF0.0
aF0.25142476756212273
atp212
a(g1
(lp213
F0.0
aF4.979646668047252
aF0.0
aF4.693981253327565
aF0.0
aF3.6062501203971817
aF0.0
aF1.2676640996033708
aF0.0
aF0.0
aF4.337099903339233
aF0.0
aF0.0
aF1.425305008493397
aF0.0
aF0.0
aF2.3325847648905405
aF0.0
aF0.0
aF0.14432833659312327
atp214
a(g1
(lp215
F0.0
aF5.125037560368033
aF0.0
aF4.83840530835265
aF0.0
aF3.7401490287611474
aF0.0
aF1.32209981854551
aF0.0
aF0.0
aF4.415740433491181
aF0.0
aF0.0
aF1.4698854830037493
aF0.0
aF0.0
aF2.3835839471980185
aF0.0
aF0.0
aF0.183688044695149
atp216
a(g1
(lp217
F0.0
aF4.649600096055021
aF0.0
aF4.34549022634704
aF0.0
aF3.1966218939444717
aF0.0
aF0.8658797230264332
aF0.0
aF0.0
aF3.515690022320296
aF0.0
aF0.0
aF0.8694919323186759
aF0.0
aF0.0
aF2.0665038298961225
aF0.0
aF0.0
aF0.03929241748263357
atp218
a(g1
(lp219
F0.0
aF5.345757330371853
aF0.0
aF5.055039500264148
aF0.0
aF3.9438878660162313
aF0.0
aF1.4852950565630805
aF0.0
aF0.0
aF4.793588437729319
aF0.0
aF0.0
aF1.8779511875183588
aF0.0
aF0.0
aF2.517046250544966
aF0.0
aF0.0
aF0.21936272021952055
atp220
a(g1
(lp221
F0.0
aF4.952232325143738
aF0.0
aF4.681756518144479
aF0.0
aF3.646484179310854
aF0.0
aF1.4306255786292472
aF0.0
aF0.0
aF4.008759647132923
aF0.0
aF0.0
aF1.6542151403103391
aF0.0
aF0.0
aF2.193291528343944
aF0.0
aF0.0
aF0.3516615875017219
atp222
a(g1
(lp223
F0.0
aF5.106994026505193
aF0.0
aF4.8143556849696845
aF0.0
aF3.69657029848243
aF0.0
aF1.279117384620144
aF0.0
aF0.0
aF4.330194190363709
aF0.0
aF0.0
aF1.4221414044356429
aF0.0
aF0.0
aF2.3074196847293735
aF0.0
aF0.0
aF0.13540575022110954
atp224
a(g1
(lp225
F0.0
aF5.072353577938694
aF0.0
aF4.798443284665732
aF0.0
aF3.7495284903546833
aF0.0
aF1.4214835778357984
aF0.0
aF0.0
aF4.124124492822002
aF0.0
aF0.0
aF1.6188695392632073
aF0.0
aF0.0
aF2.0373176528945365
aF0.0
aF0.0
aF0.22437553710260935
atp226
a(g1
(lp227
F0.0
aF5.221811605176881
aF0.0
aF4.942361117046667
aF0.0
aF3.8758757342021815
aF0.0
aF1.6024806725267395
aF0.0
aF0.0
aF4.780457908879227
aF0.0
aF0.0
aF1.8519083701081755
aF0.0
aF0.0
aF2.4699307648155653
aF0.0
aF0.0
aF0.3013819852094841
atp228
a(g1
(lp229
F0.0
aF4.977137056921733
aF0.0
aF4.692968904971534
aF0.0
aF3.6149150581264444
aF0.0
aF1.345317498014227
aF0.0
aF0.0
aF3.988415632797098
aF0.0
aF0.0
aF1.4634478358568899
aF0.0
aF0.0
aF2.125393463756944
aF0.0
aF0.0
aF0.24289291029260263
atp230
a(g1
(lp231
F0.0
aF5.058322674509447
aF0.0
aF4.787593383091101
aF0.0
aF3.756416212511838
aF0.0
aF1.4649301665434087
aF0.0
aF0.0
aF4.459822107261261
aF0.0
aF0.0
aF1.7033077376550179
aF0.0
aF0.0
aF2.2357353608518395
aF0.0
aF0.0
aF0.23760516701554393
atp232
a(g1
(lp233
F0.0
aF4.754265935022575
aF0.0
aF4.480710391925382
aF0.0
aF3.442705202931358
aF0.0
aF1.2156621238984602
aF0.0
aF0.0
aF4.1166263803578245
aF0.0
aF0.0
aF1.341826972086008
aF0.0
aF0.0
aF2.1434557469113
aF0.0
aF0.0
aF0.10059186239094467
atp234
a(g1
(lp235
F0.0
aF5.043732102212977
aF0.0
aF4.782032935210704
aF0.0
aF3.7830197341392195
aF0.0
aF1.5296316488508483
aF0.0
aF0.0
aF4.420650101558336
aF0.0
aF0.0
aF1.8421701868178364
aF0.0
aF0.0
aF2.115566817240828
aF0.0
aF0.0
aF0.2609756587521121
atp236
a(g1
(lp237
F0.0
aF5.038001276329302
aF0.0
aF4.780440042507204
aF0.0
aF3.792580062169438
aF0.0
aF1.562401997380344
aF0.0
aF0.0
aF4.472420417892694
aF0.0
aF0.0
aF1.8778019805621178
aF0.0
aF0.0
aF2.042179619640848
aF0.0
aF0.0
aF0.2177230321436926
atp238
a(g1
(lp239
F0.0
aF5.208407979123862
aF0.0
aF4.915910820183398
aF0.0
aF3.7963751919133415
aF0.0
aF1.3373166809996402
aF0.0
aF0.0
aF4.731416100221369
aF0.0
aF0.0
aF1.5374760525844633
aF0.0
aF0.0
aF2.543169102749766
aF0.0
aF0.0
aF0.14761717797758395
atp240
a(g1
(lp241
F0.0
aF4.950031021460661
aF0.0
aF4.671591154219265
aF0.0
aF3.6044672512586486
aF0.0
aF1.2666387817129914
aF0.0
aF0.0
aF3.9020962655752167
aF0.0
aF0.0
aF1.3081578331654218
aF0.0
aF0.0
aF2.1185300672739498
aF0.0
aF0.0
aF0.16151987187338693
atp242
a(g1
(lp243
F0.0
aF5.409696206386363
aF0.0
aF5.14502139172666
aF0.0
aF4.119073694343586
aF0.0
aF1.7186861965229459
aF0.0
aF0.0
aF4.969141131150287
aF0.0
aF0.0
aF2.263065494448144
aF0.0
aF0.0
aF2.317231757212879
aF0.0
aF0.0
aF0.3885195430125487
atp244
a(g1
(lp245
F0.0
aF5.01159017130028
aF0.0
aF4.726057881788964
aF0.0
aF3.624990257329831
aF0.0
aF1.1865051545645258
aF0.0
aF0.0
aF4.220320190901933
aF0.0
aF0.0
aF1.2238661998010552
aF0.0
aF0.0
aF2.389495814445409
aF0.0
aF0.0
aF0.10829255007365327
atp246
a(g1
(lp247
F0.0
aF5.111989218736955
aF0.0
aF4.827561603606195
aF0.0
aF3.7386804956612187
aF0.0
aF1.3303726617373175
aF0.0
aF0.0
aF4.499083324550385
aF0.0
aF0.0
aF1.4827772401572097
aF0.0
aF0.0
aF2.4691822065839375
aF0.0
aF0.0
aF0.1844492218689871
atp248
a(g1
(lp249
F0.0
aF4.699585365342426
aF0.0
aF4.426025917684241
aF0.0
aF3.390179985354613
aF0.0
aF1.1858676139700508
aF0.0
aF0.0
aF3.7058293502763306
aF0.0
aF0.0
aF1.1823094839273245
aF0.0
aF0.0
aF2.02510517820685
aF0.0
aF0.0
aF0.12650031638376402
atp250
a(g1
(lp251
F0.0
aF5.235389609381701
aF0.0
aF4.964947046659159
aF0.0
aF3.930228799111161
aF0.0
aF1.5873089106628087
aF0.0
aF0.0
aF4.830087394096521
aF0.0
aF0.0
aF2.0246020243353002
aF0.0
aF0.0
aF2.488473316377616
aF0.0
aF0.0
aF0.25412004307051445
atp252
a(g1
(lp253
F0.0
aF4.21043796456573
aF0.0
aF3.9504278259099146
aF0.0
aF2.970160823638755
aF0.0
aF0.9462111183315827
aF0.0
aF0.0
aF3.011973946546596
aF0.0
aF0.0
aF0.9210411030242862
aF0.0
aF0.0
aF1.6919601322879723
aF0.0
aF0.0
aF0.08444763161753521
atp254
a(g1
(lp255
F0.0
aF5.0899389459671
aF0.0
aF4.798268279073817
aF0.0
aF3.684379476301338
aF0.0
aF1.2770878993328953
aF0.0
aF0.0
aF4.459023870988601
aF0.0
aF0.0
aF1.4287100016218606
aF0.0
aF0.0
aF2.39010668074948
aF0.0
aF0.0
aF0.12881406940945525
atp256
a(g1
(lp257
F0.0
aF5.022181962428132
aF0.0
aF4.728008352041491
aF0.0
aF3.603716551803633
aF0.0
aF1.1786659889453368
aF0.0
aF0.0
aF4.012755517454227
aF0.0
aF0.0
aF1.179704531983024
aF0.0
aF0.0
aF2.311867290151098
aF0.0
aF0.0
aF0.12228422892020259
atp258
a(g1
(lp259
F0.0
aF5.419467981095123
aF0.0
aF5.136120588366993
aF0.0
aF4.05032280495756
aF0.0
aF1.6796384190771962
aF0.0
aF0.0
aF4.8880646505801595
aF0.0
aF0.0
aF2.0883065469613498
aF0.0
aF0.0
aF2.426749530190208
aF0.0
aF0.0
aF0.3829392635033683
atp260
a(g1
(lp261
F0.0
aF5.149695125425562
aF0.0
aF4.878188679466573
aF0.0
aF3.8430208175114227
aF0.0
aF1.6075393996189418
aF0.0
aF0.0
aF4.234521251601655
aF0.0
aF0.0
aF1.828169482814487
aF0.0
aF0.0
aF2.166076119169472
aF0.0
aF0.0
aF0.4087227672487073
atp262
a.