(lp0
(VPt
p1
(lp2
F0.0
aF5.418842774498461
aF0.0
aF5.115310282855348
aF0.0
aF3.9479690699792176
aF0.0
aF1.3612642933140133
aF0.0
aF0.0
aF4.867372127824797
aF0.0
aF0.0
aF1.5486286641347045
aF0.0
aF0.0
aF2.6852989248465096
aF0.0
aF0.0
aF0.18640541515712197
atp3
a(g1
(lp4
F0.0
aF5.498624521354114
aF0.0
aF5.206809257600735
aF0.0
aF4.083705865607901
aF0.0
aF1.5612693505858362
aF0.0
aF0.0
aF5.426336135601674
aF0.0
aF0.0
aF1.925126876085471
aF0.0
aF0.0
aF2.9065431485816813
aF0.0
aF0.0
aF0.2935076631035872
atp5
a(g1
(lp6
F0.0
aF5.343515104647783
aF0.0
aF5.0519503508660355
aF0.0
aF3.9312704465385164
aF0.0
aF1.4199893994683845
aF0.0
aF0.0
aF4.7471279423143065
aF0.0
aF0.0
aF1.648596581005882
aF0.0
aF0.0
aF2.5332629516916243
aF0.0
aF0.0
aF0.2183024646022963
atp7
a(g1
(lp8
F0.0
aF5.542425093826946
aF0.0
aF5.257309342443873
aF0.0
aF4.160877140036616
aF0.0
aF1.6652532043326749
aF0.0
aF0.0
aF5.410483591651736
aF0.0
aF0.0
aF2.1597878276235978
aF0.0
aF0.0
aF2.700031184976588
aF0.0
aF0.0
aF0.3136095296348629
atp9
a(g1
(lp10
F0.0
aF5.180871230588612
aF0.0
aF4.899594445349971
aF0.0
aF3.8219412807608006
aF0.0
aF1.4314858911854038
aF0.0
aF0.0
aF4.700796584867155
aF0.0
aF0.0
aF1.7701155519368117
aF0.0
aF0.0
aF2.3511131553058444
aF0.0
aF0.0
aF0.2228700804499633
atp11
a(g1
(lp12
F0.0
aF5.394655023526753
aF0.0
aF5.118947579820298
aF0.0
aF4.0598829423598675
aF0.0
aF1.6527566825322673
aF0.0
aF0.0
aF5.1828363580228975
aF0.0
aF0.0
aF2.1118999870498865
aF0.0
aF0.0
aF2.578175648290361
aF0.0
aF0.0
aF0.30772511825583027
atp13
a(g1
(lp14
F0.0
aF5.201347302713666
aF0.0
aF4.9194880471273486
aF0.0
aF3.8413696761160856
aF0.0
aF1.4421759555368407
aF0.0
aF0.0
aF4.627758623891189
aF0.0
aF0.0
aF1.764740629778892
aF0.0
aF0.0
aF2.2385372883000105
aF0.0
aF0.0
aF0.18212858162277387
atp15
a(g1
(lp16
F0.0
aF5.2659116088879685
aF0.0
aF4.977808801220723
aF0.0
aF3.8780162400523617
aF0.0
aF1.4454304268490856
aF0.0
aF0.0
aF4.854097694322222
aF0.0
aF0.0
aF1.6946907466239538
aF0.0
aF0.0
aF2.586892215137149
aF0.0
aF0.0
aF0.20879309474284205
atp17
a(g1
(lp18
F0.0
aF5.427315578262517
aF0.0
aF5.126375683313673
aF0.0
aF3.969957901419734
aF0.0
aF1.4005842439982776
aF0.0
aF0.0
aF4.837809323487044
aF0.0
aF0.0
aF1.6369453365862785
aF0.0
aF0.0
aF2.602706183302839
aF0.0
aF0.0
aF0.20601971840901412
atp19
a(g1
(lp20
F0.0
aF5.367015798224975
aF0.0
aF5.079679085254789
aF0.0
aF3.975038975976621
aF0.0
aF1.4935750043816036
aF0.0
aF0.0
aF5.289611784692814
aF0.0
aF0.0
aF1.8566095510893545
aF0.0
aF0.0
aF2.7792999437679677
aF0.0
aF0.0
aF0.22787862119227237
atp21
a(g1
(lp22
F0.021602590171235083
aF5.493438892755018
aF0.01861504057411082
aF5.192441878203686
aF0.009328743393239117
aF4.034571594339878
aF0.0003777086527462136
aF1.4469987905764952
aF0.0
aF0.024004001408794825
aF5.065267391610891
aF0.0
aF0.002976554191375022
aF1.685187697566815
aF0.0
aF0.017640791434274324
aF2.777158351937183
aF0.0
aF3.0505550447759605e-05
aF0.22631676051898109
atp23
a(g1
(lp24
F0.013947522642290532
aF5.481913027892829
aF0.011943413896681491
aF5.184181070853409
aF0.005813413005300786
aF4.0404372927373196
aF0.0002055979870182779
aF1.487674363266893
aF0.0
aF0.01839967031712867
aF5.529815821992988
aF0.0
aF0.0019966635266650034
aF1.8321938343263053
aF0.0
aF0.014072353161195416
aF3.024727057087875
aF0.0
aF1.6663159035214813e-05
aF0.21531585128928046
atp25
a(g1
(lp26
F0.0
aF5.127808848526496
aF0.0
aF4.844690004209914
aF0.0
aF3.7603312603916548
aF0.0
aF1.3565752169735086
aF0.0
aF0.0
aF4.627246557132942
aF0.0
aF0.0
aF1.6382701954414092
aF0.0
aF0.0
aF2.351343316063727
aF0.0
aF0.0
aF0.1834508659668467
atp27
a(g1
(lp28
F0.0
aF5.348165069420341
aF0.0
aF5.072973925215671
aF0.0
aF4.0165070254333255
aF0.0
aF1.607108035624127
aF0.0
aF0.0
aF5.00659018877251
aF0.0
aF0.0
aF2.021957464239585
aF0.0
aF0.0
aF2.5025138974549854
aF0.0
aF0.0
aF0.3145075396757646
atp29
a(g1
(lp30
F0.0
aF5.1695752374784325
aF0.0
aF4.884415569317376
aF0.0
aF3.7943778764046323
aF0.0
aF1.3820913175064171
aF0.0
aF0.0
aF4.67552881351285
aF0.0
aF0.0
aF1.7042629816458363
aF0.0
aF0.0
aF2.3380729365896986
aF0.0
aF0.0
aF0.17514931961075292
atp31
a(g1
(lp32
F0.017803751416070546
aF5.204858619248784
aF0.015296663322941129
aF4.916830815758211
aF0.007562184071688446
aF3.8176716728007154
aF0.00028744557673224366
aF1.3968162117395206
aF0.0
aF0.01201773059853673
aF4.790000420074219
aF0.0
aF0.0014344107107703897
aF1.6397197901942402
aF0.0
aF0.00894791328314803
aF2.561257391986939
aF0.0
aF1.841962815336118e-05
aF0.196745122597327
atp33
a(g1
(lp34
F0.0
aF5.48763765636855
aF0.0
aF5.185502381428814
aF0.0
aF4.027148941567887
aF0.0
aF1.4622400177118133
aF0.0
aF0.0
aF5.184320413141569
aF0.0
aF0.0
aF1.7423134820180308
aF0.0
aF0.0
aF2.8316603530821216
aF0.0
aF0.0
aF0.23516537097703896
atp35
a(g1
(lp36
F0.0
aF5.291737195437289
aF0.0
aF4.997726781493254
aF0.0
aF3.871223601891398
aF0.0
aF1.3950977720655449
aF0.0
aF0.0
aF4.943542837727448
aF0.0
aF0.0
aF1.6338653068697702
aF0.0
aF0.0
aF2.7126451909815263
aF0.0
aF0.0
aF0.22068000871893123
atp37
a(g1
(lp38
F0.0
aF5.43121144022273
aF0.0
aF5.145698572149698
aF0.0
aF4.051303474757986
aF0.0
aF1.581601065834299
aF0.0
aF0.0
aF5.140199331311503
aF0.0
aF0.0
aF1.9471635477341616
aF0.0
aF0.0
aF2.680693479668905
aF0.0
aF0.0
aF0.2961692453696123
atp39
a(g1
(lp40
F0.0
aF5.356828852820872
aF0.0
aF5.070792754010244
aF0.0
aF3.9728920803713343
aF0.0
aF1.5055297223876893
aF0.0
aF0.0
aF5.045477327531415
aF0.0
aF0.0
aF1.8323299981296877
aF0.0
aF0.0
aF2.6371166612421044
aF0.0
aF0.0
aF0.23595275907096225
atp41
a(g1
(lp42
F0.0
aF5.5701219904170065
aF0.0
aF5.285255217131288
aF0.0
aF4.188077205011585
aF0.0
aF1.6973232655609107
aF0.0
aF0.0
aF5.557886528793797
aF0.0
aF0.0
aF2.2023551871686693
aF0.0
aF0.0
aF2.872132393989706
aF0.0
aF0.0
aF0.3459841628334747
atp43
a(g1
(lp44
F0.0
aF5.4659061374652875
aF0.0
aF5.178119856051634
aF0.0
aF4.070178680872338
aF0.0
aF1.5656700614014452
aF0.0
aF0.0
aF5.407592784047799
aF0.0
aF0.0
aF1.9880632466607242
aF0.0
aF0.0
aF2.8182067236859636
aF0.0
aF0.0
aF0.25816925874912183
atp45
a(g1
(lp46
F0.0
aF5.366382941603221
aF0.0
aF5.069054549992071
aF0.0
aF3.9290402462514886
aF0.0
aF1.4071977249159122
aF0.0
aF0.0
aF5.11966671075347
aF0.0
aF0.0
aF1.6587567193962962
aF0.0
aF0.0
aF2.8017866566316414
aF0.0
aF0.0
aF0.18120628351513252
atp47
a(g1
(lp48
F0.0
aF5.274698014038443
aF0.0
aF4.983059068400891
aF0.0
aF3.8659324552058845
aF0.0
aF1.392976990905956
aF0.0
aF0.0
aF4.899458418482748
aF0.0
aF0.0
aF1.6292474167105075
aF0.0
aF0.0
aF2.642992136985797
aF0.0
aF0.0
aF0.18256412197886365
atp49
a(g1
(lp50
F0.0
aF5.634336921384423
aF0.0
aF5.338671777022971
aF0.0
aF4.203592117032125
aF0.0
aF1.6446227566214595
aF0.0
aF0.0
aF5.62211681786086
aF0.0
aF0.0
aF2.0975019372573613
aF0.0
aF0.0
aF2.966663656610862
aF0.0
aF0.0
aF0.320066696194745
atp51
a(g1
(lp52
F0.0
aF5.505265654490966
aF0.0
aF5.212699138835862
aF0.0
aF4.088858309118682
aF0.0
aF1.5625966755023366
aF0.0
aF0.0
aF5.348653370397536
aF0.0
aF0.0
aF1.9753122729519037
aF0.0
aF0.0
aF2.8148019079225883
aF0.0
aF0.0
aF0.29137396827753015
atp53
a(g1
(lp54
F0.0
aF5.580565697016646
aF0.0
aF5.2897186827627385
aF0.0
aF4.172701173910889
aF0.0
aF1.6465208501870505
aF0.0
aF0.0
aF5.518432412473439
aF0.0
aF0.0
aF2.1160988161905228
aF0.0
aF0.0
aF2.859893986164686
aF0.0
aF0.0
aF0.31668548786568507
atp55
a(g1
(lp56
F0.0
aF5.425295691692362
aF0.0
aF5.130339825046769
aF0.0
aF3.9995003116955954
aF0.0
aF1.4825653869996183
aF0.0
aF0.0
aF5.147691034408441
aF0.0
aF0.0
aF1.818783494479398
aF0.0
aF0.0
aF2.7537876920400963
aF0.0
aF0.0
aF0.2515587375022474
atp57
a(g1
(lp58
F0.0
aF5.574150726375016
aF0.0
aF5.284477678862894
aF0.0
aF4.16642491937874
aF0.0
aF1.6093452554867347
aF0.0
aF0.0
aF5.552361857546909
aF0.0
aF0.0
aF2.0565484985915328
aF0.0
aF0.0
aF2.894933204391474
aF0.0
aF0.0
aF0.2855107475971442
atp59
a(g1
(lp60
F0.0
aF5.682571649611474
aF0.0
aF5.392079246974895
aF0.0
aF4.2735384852653
aF0.0
aF1.7197410361978263
aF0.0
aF0.0
aF5.573183445771531
aF0.0
aF0.0
aF2.2407209293271433
aF0.0
aF0.0
aF2.8530110036021545
aF0.0
aF0.0
aF0.37555433375885955
atp61
a(g1
(lp62
F0.0
aF5.601758350919288
aF0.0
aF5.300141855010336
aF0.0
aF4.140527159724334
aF0.0
aF1.541914124222366
aF0.0
aF0.0
aF5.534730893202209
aF0.0
aF0.0
aF1.9270162306812695
aF0.0
aF0.0
aF2.9764458758864483
aF0.0
aF0.0
aF0.2551203583045383
atp63
a(g1
(lp64
F0.0
aF5.476999615249022
aF0.0
aF5.188103032909399
aF0.0
aF4.07736027806049
aF0.0
aF1.5686494648262188
aF0.0
aF0.0
aF5.471983375049887
aF0.0
aF0.0
aF1.9844663904549953
aF0.0
aF0.0
aF2.8982670868549048
aF0.0
aF0.0
aF0.27699214811697564
atp65
a(g1
(lp66
F0.2237094148296216
aF5.784265447653102
aF0.2055018177548246
aF5.476187962183613
aF0.13858717166180254
aF4.287996601275931
aF0.02228221038673964
aF1.5977571980128125
aF6.839304648344679e-05
aF0.43685641331983793
aF5.989989079007359
aF6.297805797586813e-07
aF0.1088741733285319
aF2.0052212606821787
aF6.653797310209167e-05
aF0.26155928425028263
aF3.3498221650824673
aF4.783864032062663e-13
aF0.004667327924796793
aF0.2874733787403719
atp67
a(g1
(lp68
F0.2621512037710546
aF6.067995554172766
aF0.24240167942571986
aF5.775253161237259
aF0.16858051316976141
aF4.6406736686678824
aF0.03135789918678379
aF1.9943223356174584
aF0.00039620375676796007
aF0.6040361386326187
aF6.914761978474764
aF2.177136797483541e-06
aF0.17172067256138557
aF2.9192907996509803
aF0.0003897434744737198
aF0.34580328287758816
aF3.5182920023546926
aF3.5534267606725874e-13
aF0.008331864653989381
aF0.5236810560556447
atp69
a(g1
(lp70
F0.21260846745103365
aF5.784743536819409
aF0.19485823400390245
aF5.478890738200203
aF0.1300337897251299
aF4.299405847276304
aF0.019930489626454648
aF1.6205565308106593
aF0.00013971050705145763
aF0.4256143456280659
aF6.010131905734284
aF1.6881457287364118e-06
aF0.09856831292849798
aF2.075627862430518
aF0.00013476603795650396
aF0.263951380075734
aF3.3148666582701893
aF2.872790277013888e-12
aF0.004052728267892849
aF0.29121141635226866
atp71
a(g1
(lp72
F0.19883222835786662
aF5.819778325892166
aF0.18177615625998306
aF5.536217398489824
aF0.11988025615385806
aF4.4397768599468055
aF0.01736194122243634
aF1.8883715377463053
aF0.0
aF0.47161905016099864
aF6.574207637421745
aF0.0
aF0.10696545273231454
aF2.714055052954699
aF0.0
aF0.2926457092873782
aF3.296717753800407
aF0.0
aF0.0036352363149111944
aF0.44201086727295213
atp73
a(g1
(lp74
F0.05046375854550941
aF5.5431094621204675
aF0.04420126908443972
aF5.249939766408961
aF0.02389654875727744
aF4.127842775778654
aF0.0013758429611174714
aF1.624868679626878
aF0.0
aF0.03663127068974117
aF5.285366310384419
aF0.0
aF0.007962417498028142
aF2.0956055970706657
aF0.0
aF0.02150674711480513
aF2.632565489009252
aF0.0
aF0.00010700484731417245
aF0.3005299689646347
atp75
a(g1
(lp76
F0.44807824705382693
aF5.781552112403781
aF0.41977571003144315
aF5.486467910159977
aF0.31209792489005383
aF4.353928693341439
aF0.08555077011790743
aF1.7818532082446699
aF0.02948657379946955
aF0.6577338347347575
aF5.928827134533962
aF0.0005148474876302823
aF0.2590131154129227
aF2.3436137056966135
aF0.02799443854019269
aF0.33580111792375394
aF3.101146210039631
aF2.601889825176874e-09
aF0.029864456688448993
aF0.4012472924036984
atp77
a(g1
(lp78
F0.1574987918521721
aF5.592854383459605
aF0.1419496861732958
aF5.311906182442151
aF0.08780766282395766
aF4.233989916548397
aF0.009726871615522586
aF1.7784031207450017
aF0.0019237546727774908
aF0.14301018105945207
aF5.61117259260582
aF5.7656634175083844e-05
aF0.04122212586652887
aF2.400470776495804
aF0.0017606573337120449
aF0.08096170427749075
aF2.783007837939282
aF1.420604653323626e-09
aF0.002152526753710484
aF0.4448117918884801
atp79
a(g1
(lp80
F0.95283775969618
aF5.831745611769029
aF0.9194291074184984
aF5.54064383058921
aF0.7860098565921257
aF4.419290380099763
aF0.4331952213280203
aF1.8409455240532835
aF0.2410368421370088
aF0.7520762208645904
aF6.604031057784725
aF0.00025707436544965436
aF1.3275844377024353
aF2.579687812327872
aF0.24026726119484196
aF0.0568573892380934
aF3.458510434788396
aF3.1088228265300574e-13
aF0.4220177784477892
aF0.43222383289427735
atp81
a(VCu
p82
(lp83
F0.7281413931975043
aF0.3992976438373283
aF0.7124372658433867
aF0.35989812807027105
aF0.6438652639487484
aF0.2236722008690479
aF0.40252197014790014
aF0.02754747818202582
aF0.0
aF0.3437543159107263
aF0.05241320398630423
aF0.0
aF0.007687417094817624
aF0.003859394870393156
aF0.0
aF0.323760283421654
aF0.042639197836960394
aF0.0
aF3.7708658096033354e-06
aF5.467988386555967e-06
atp84
a(g82
(lp85
F0.7281413931975043
aF3.3295926390542974
aF0.7124372658433867
aF3.1120837145802582
aF0.6438652639487484
aF2.3074950334370183
aF0.40252197014790014
aF0.7590134214836632
aF0.0
aF0.019564536082185623
aF3.3027914138555845
aF0.0
aF0.3318771969233583
aF0.5502238575878962
aF0.0
aF0.00011467891346805116
aF2.193547430061693
aF0.0
aF0.2905513050776002
aF0.008483610595151547
atp86
a(g1
(lp87
F0.013625661845445674
aF5.478930792068809
aF0.01166429113250449
aF5.174830002678684
aF0.005669627921695093
aF4.007060438699548
aF0.00019921735744779826
aF1.4178576507013296
aF0.0
aF0.01531305518341625
aF5.043012149892578
aF0.0
aF0.0016727740328366181
aF1.6398157642919686
aF0.0
aF0.01169410125259623
aF2.784949757782219
aF0.0
aF1.4404883469149037e-05
aF0.21431305228804987
atp88
a(g1
(lp89
F0.015586145137358665
aF5.525638173816486
aF0.013366307768061726
aF5.219502297787123
aF0.006550748943590401
aF4.045122603665395
aF0.00023916395957376992
aF1.4579356279132998
aF0.0
aF0.021935210719064145
aF5.537770510651096
aF0.0
aF0.0023128416576115433
aF1.7519206016771443
aF0.0
aF0.016923509240151294
aF3.058726481952419
aF0.0
aF1.5896921574669233e-05
aF0.19117487126226418
atp90
a(g1
(lp91
F0.0
aF5.457818958793354
aF0.0
aF5.164838339436748
aF0.0
aF4.037334387434371
aF0.0
aF1.4921570477818025
aF0.0
aF0.0
aF4.9983336855927485
aF0.0
aF0.0
aF1.82450794706554
aF0.0
aF0.0
aF2.6265718721572258
aF0.0
aF0.0
aF0.23919845052904798
atp92
a(g1
(lp93
F0.0
aF5.451685391806398
aF0.0
aF5.1722410477617835
aF0.0
aF4.096875057445439
aF0.0
aF1.6567737176891035
aF0.0
aF0.0
aF5.509050354529331
aF0.0
aF0.0
aF2.156590710850737
aF0.0
aF0.0
aF2.8111885895602025
aF0.0
aF0.0
aF0.2803994683328062
atp94
a(g1
(lp95
F0.07799440520980298
aF5.499951166747748
aF0.06905690997505096
aF5.211638290106011
aF0.03925732157020333
aF4.106926181223325
aF0.0028581695769060917
aF1.6408652889367996
aF2.913027795943141e-05
aF0.06821284047409092
aF5.366219275554469
aF8.326018557345161e-07
aF0.014979766247484256
aF2.0885750283622504
aF2.6768735581330813e-05
aF0.04072803473458861
aF2.6529353233168
aF1.7864828083640777e-11
aF0.00025945327729011777
aF0.2479970145235351
atp96
a(g1
(lp97
F0.5538549306034628
aF5.675078711006539
aF0.5207690986728413
aF5.383471321281413
aF0.3940952130500722
aF4.262134751474755
aF0.11990188096099982
aF1.7070963958619865
aF0.06746965595722274
aF0.7674442023913995
aF5.91808012733832
aF0.0020606758890530865
aF0.31802193865888184
aF2.242543536600486
aF0.061646876377934624
aF0.38303467103467076
aF3.09520981288945
aF5.3643345149049946e-08
aF0.040648573719622286
aF0.32901147926446955
atp98
a(g1
(lp99
F0.0
aF5.202721578771997
aF0.0
aF4.91500546309482
aF0.0
aF3.812314667472372
aF0.0
aF1.382611591117787
aF0.0
aF0.0
aF4.759435125765421
aF0.0
aF0.0
aF1.6843522758583451
aF0.0
aF0.0
aF2.449825975028213
aF0.0
aF0.0
aF0.1862096740111142
atp100
a(g1
(lp101
F0.00906987645994664
aF5.3773697066800406
aF0.0077274810236858
aF5.083508838896183
aF0.0036741182811862857
aF3.961305021643433
aF0.00011653451883542508
aF1.4935055529144565
aF0.0
aF0.006478942031930559
aF5.046773897070229
aF0.0
aF0.0006033608620008208
aF1.7740438549337774
aF0.0
aF0.005171335652399569
aF2.7125009637367428
aF0.0
aF6.8013947325134694e-06
aF0.25063478732635386
atp102
a(g1
(lp103
F0.0
aF5.582429434232259
aF0.0
aF5.281837809411601
aF0.0
aF4.1292329423345295
aF0.0
aF1.5583212168633194
aF0.0
aF0.0
aF5.495957875385245
aF0.0
aF0.0
aF1.9324542342650226
aF0.0
aF0.0
aF2.9986638411606696
aF0.0
aF0.0
aF0.2800045127986402
atp104
a(g1
(lp105
F0.0
aF5.399153038472121
aF0.0
aF5.106036790757269
aF0.0
aF3.9806675038973958
aF0.0
aF1.469550327299036
aF0.0
aF0.0
aF5.176684728039171
aF0.0
aF0.0
aF1.7969510785676108
aF0.0
aF0.0
aF2.7742722706480967
aF0.0
aF0.0
aF0.2320666011984342
atp106
a(g1
(lp107
F0.0
aF5.4987201978321805
aF0.0
aF5.201810466525489
aF0.0
aF4.063882788803385
aF0.0
aF1.5268995428894276
aF0.0
aF0.0
aF5.24724888403642
aF0.0
aF0.0
aF1.8804186840187305
aF0.0
aF0.0
aF2.8094438059148183
aF0.0
aF0.0
aF0.2604268855094083
atp108
a(g1
(lp109
F0.0
aF5.449185398621367
aF0.0
aF5.160456369896297
aF0.0
aF4.049465031974002
aF0.0
aF1.5390163600109799
aF0.0
aF0.0
aF5.1552304095654184
aF0.0
aF0.0
aF1.9357940997730307
aF0.0
aF0.0
aF2.670160849003218
aF0.0
aF0.0
aF0.26098567925134486
atp110
a(g1
(lp111
F0.09965770522642413
aF5.699007313862172
aF0.08889696123827096
aF5.401632708779495
aF0.05230616327563276
aF4.257835281059873
aF0.004461048119316901
aF1.667591889588739
aF0.0
aF0.12011330295890585
aF5.904322818211096
aF0.0
aF0.02468729176051542
aF2.153115161556948
aF0.0
aF0.0720942463443905
aF3.203072930671551
aF0.0
aF0.0003270083483463313
aF0.3553330946703176
atp112
a(g1
(lp113
F0.0
aF5.5787106114997265
aF0.0
aF5.280593711402533
aF0.0
aF4.13638853451876
aF0.0
aF1.5773565619338306
aF0.0
aF0.0
aF5.388785550683424
aF0.0
aF0.0
aF1.975657643751364
aF0.0
aF0.0
aF2.845836623895163
aF0.0
aF0.0
aF0.28263911482979376
atp114
a(g1
(lp115
F0.2767372252273534
aF5.9469196321812605
aF0.25456226451690506
aF5.645798023500089
aF0.17341965287568678
aF4.482124174685133
aF0.030656635032009723
aF1.8074940935540638
aF0.007556038023156546
aF0.415338723348887
aF6.56290704527593
aF0.00018221825840344675
aF0.13760868126715786
aF2.478005486440416
aF0.007034726413188618
aF0.2225736950683085
aF3.499541025966783
aF2.379239925299388e-09
aF0.008853783564387412
aF0.40651755759035896
atp116
a(g1
(lp117
F0.0
aF5.368152461622694
aF0.0
aF5.083305969502355
aF0.0
aF3.9911922524702246
aF0.0
aF1.5467094951011902
aF0.0
aF0.0
aF5.100779634298849
aF0.0
aF0.0
aF1.9208960356225424
aF0.0
aF0.0
aF2.648678861440165
aF0.0
aF0.0
aF0.2824000931217837
atp118
a(g1
(lp119
F0.0
aF5.4439182665193036
aF0.0
aF5.147339656539298
aF0.0
aF4.0077721901407966
aF0.0
aF1.4615920589531588
aF0.0
aF0.0
aF5.127155066741916
aF0.0
aF0.0
aF1.7222781501145317
aF0.0
aF0.0
aF2.8117267789711304
aF0.0
aF0.0
aF0.23516244048979137
atp120
a(g1
(lp121
F0.0
aF5.309930356807458
aF0.0
aF5.006718666341083
aF0.0
aF3.8453027566799856
aF0.0
aF1.3094305798191717
aF0.0
aF0.0
aF4.9506198974085045
aF0.0
aF0.0
aF1.5128774988233658
aF0.0
aF0.0
aF2.763609678088678
aF0.0
aF0.0
aF0.155923922804679
atp122
a(g1
(lp123
F0.0
aF5.573531184784372
aF0.0
aF5.286475840875717
aF0.0
aF4.184865362091408
aF0.0
aF1.684143264630623
aF0.0
aF0.0
aF5.515908775482822
aF0.0
aF0.0
aF2.1945230332487284
aF0.0
aF0.0
aF2.842454678515322
aF0.0
aF0.0
aF0.3293885116170658
atp124
a(g1
(lp125
F0.0
aF5.46660450123812
aF0.0
aF5.1857119655838835
aF0.0
aF4.104795012755831
aF0.0
aF1.642834917231289
aF0.0
aF0.0
aF5.335861318951937
aF0.0
aF0.0
aF2.1629997238345826
aF0.0
aF0.0
aF2.7083202044205095
aF0.0
aF0.0
aF0.32052343582326004
atp126
a(g1
(lp127
F0.1228305973949695
aF5.567795115971581
aF0.11018975037736825
aF5.266811597497031
aF0.06659632414380404
aF4.111696967986057
aF0.006476251479120675
aF1.5285675006704467
aF0.0002510108480698671
aF0.15983577795329845
aF5.650854147241373
aF6.6196799033549246e-06
aF0.03369983717889791
aF1.9103484114037546
aF0.00023215497425446604
aF0.09702461950329867
aF3.042272818874606
aF1.1229385401222676e-10
aF0.0006674586891377435
aF0.21415731199379395
atp128
a(g1
(lp129
F0.0
aF5.20565536364733
aF0.0
aF4.924603790221108
aF0.0
aF3.850620681668005
aF0.0
aF1.4714555133453049
aF0.0
aF0.0
aF4.771142507649034
aF0.0
aF0.0
aF1.756078233911273
aF0.0
aF0.0
aF2.479386769324316
aF0.0
aF0.0
aF0.23957225057202958
atp130
a(g1
(lp131
F0.0
aF5.562070035058206
aF0.0
aF5.27045409957139
aF0.0
aF4.148561949082318
aF0.0
aF1.6285658555055644
aF0.0
aF0.0
aF5.4935262845048864
aF0.0
aF0.0
aF2.0331312919851734
aF0.0
aF0.0
aF2.912586726877038
aF0.0
aF0.0
aF0.32279885872002245
atp132
a(g1
(lp133
F0.0
aF5.602529352303751
aF0.0
aF5.309007283913061
aF0.0
aF4.17932254780852
aF0.0
aF1.623497532779901
aF0.0
aF0.0
aF5.4559344794234725
aF0.0
aF0.0
aF2.073270979757341
aF0.0
aF0.0
aF2.822044367341787
aF0.0
aF0.0
aF0.3054667572356986
atp134
a(g1
(lp135
F0.0
aF5.478767153436844
aF0.0
aF5.178943593741673
aF0.0
aF4.027678317457621
aF0.0
aF1.4670557126155903
aF0.0
aF0.0
aF5.111026884953295
aF0.0
aF0.0
aF1.7557714448564345
aF0.0
aF0.0
aF2.750761114779613
aF0.0
aF0.0
aF0.234099385748021
atp136
a(g1
(lp137
F0.0
aF5.197454687692129
aF0.0
aF4.906889865388362
aF0.0
aF3.7985358300268834
aF0.0
aF1.4001090942176468
aF0.0
aF0.0
aF4.7119358175259665
aF0.0
aF0.0
aF1.638042238517666
aF0.0
aF0.0
aF2.5704035425654133
aF0.0
aF0.0
aF0.2606149674745998
atp138
a(g1
(lp139
F0.0
aF5.377693136322103
aF0.0
aF5.097813324983104
aF0.0
aF4.023501382832516
aF0.0
aF1.5855181090146298
aF0.0
aF0.0
aF5.025013912877999
aF0.0
aF0.0
aF1.9587132664234108
aF0.0
aF0.0
aF2.5621510181473024
aF0.0
aF0.0
aF0.2980768516201059
atp140
a(g1
(lp141
F0.0
aF5.502237922905607
aF0.0
aF5.2121288012860125
aF0.0
aF4.09816546006853
aF0.0
aF1.5886626153965793
aF0.0
aF0.0
aF5.217103825965259
aF0.0
aF0.0
aF1.9717087293459912
aF0.0
aF0.0
aF2.7231281816113753
aF0.0
aF0.0
aF0.29600353090944326
atp142
a(g1
(lp143
F0.0
aF5.499377609710187
aF0.0
aF5.215089574480102
aF0.0
aF4.119830332850398
aF0.0
aF1.6473746501296285
aF0.0
aF0.0
aF5.348056767583715
aF0.0
aF0.0
aF2.123011329051621
aF0.0
aF0.0
aF2.7315150447083374
aF0.0
aF0.0
aF0.3171144607272701
atp144
a(g1
(lp145
F0.0
aF5.3263559487943795
aF0.0
aF5.03896240856005
aF0.0
aF3.934765963000277
aF0.0
aF1.474217938828475
aF0.0
aF0.0
aF5.016193242833577
aF0.0
aF0.0
aF1.8296117265288727
aF0.0
aF0.0
aF2.635063754502657
aF0.0
aF0.0
aF0.23308114700218016
atp146
a(g1
(lp147
F0.0
aF5.3782615881524345
aF0.0
aF5.08130139207183
aF0.0
aF3.9450987465073797
aF0.0
aF1.44070460076108
aF0.0
aF0.0
aF4.9366996737781506
aF0.0
aF0.0
aF1.6974264515380821
aF0.0
aF0.0
aF2.6340817347943846
aF0.0
aF0.0
aF0.20170009614680387
atp148
a(g1
(lp149
F0.0
aF5.299701549328198
aF0.0
aF5.008366406356313
aF0.0
aF3.8902609199355633
aF0.0
aF1.4012660072704826
aF0.0
aF0.0
aF4.893426772244161
aF0.0
aF0.0
aF1.6518884146638129
aF0.0
aF0.0
aF2.614912699727016
aF0.0
aF0.0
aF0.18037652464700726
atp150
a(g1
(lp151
F0.0
aF5.576951186533672
aF0.0
aF5.279348655470562
aF0.0
aF4.136896567557608
aF0.0
aF1.5789179741626367
aF0.0
aF0.0
aF5.46751006289914
aF0.0
aF0.0
aF1.983067094515141
aF0.0
aF0.0
aF2.9032383480160115
aF0.0
aF0.0
aF0.2847585343524494
atp152
a(g1
(lp153
F0.0
aF5.527144267877168
aF0.0
aF5.239179874039335
aF0.0
aF4.131533795423995
aF0.0
aF1.624073847675808
aF0.0
aF0.0
aF5.550276731023116
aF0.0
aF0.0
aF2.058242650746069
aF0.0
aF0.0
aF2.9443981198266904
aF0.0
aF0.0
aF0.31377227073979114
atp154
a(g1
(lp155
F0.0
aF5.542468378461532
aF0.0
aF5.2557101099589705
aF0.0
aF4.152176015697356
aF0.0
aF1.6399150253721944
aF0.0
aF0.0
aF5.46009980762418
aF0.0
aF0.0
aF2.0971204362317395
aF0.0
aF0.0
aF2.8237277182294562
aF0.0
aF0.0
aF0.31149774462027424
atp156
a(g1
(lp157
F0.0
aF5.481169148803842
aF0.0
aF5.186238677428253
aF0.0
aF4.054680919588115
aF0.0
aF1.5247957389595364
aF0.0
aF0.0
aF5.353770487504095
aF0.0
aF0.0
aF1.8628682876251133
aF0.0
aF0.0
aF2.9010571091015915
aF0.0
aF0.0
aF0.24407642957247727
atp158
a(g1
(lp159
F0.0
aF5.419407973329068
aF0.0
aF5.135310593047802
aF0.0
aF4.041110363639816
aF0.0
aF1.5542047176226366
aF0.0
aF0.0
aF5.202744150649573
aF0.0
aF0.0
aF1.9430156616578482
aF0.0
aF0.0
aF2.705372507549896
aF0.0
aF0.0
aF0.2801160276533262
atp160
a(g1
(lp161
F0.0
aF5.550430824104465
aF0.0
aF5.256994581129503
aF0.0
aF4.127834331574064
aF0.0
aF1.5793520703520583
aF0.0
aF0.0
aF5.4319791099008645
aF0.0
aF0.0
aF1.9660735458783312
aF0.0
aF0.0
aF2.89513096179712
aF0.0
aF0.0
aF0.27574020594073523
atp162
a(g1
(lp163
F0.0
aF5.31816198030043
aF0.0
aF5.023148786550799
aF0.0
aF3.8924954432477192
aF0.0
aF1.3926178661376503
aF0.0
aF0.0
aF5.130557116759099
aF0.0
aF0.0
aF1.6866193330551635
aF0.0
aF0.0
aF2.7882891294487195
aF0.0
aF0.0
aF0.18623458728212236
atp164
a(g1
(lp165
F0.0
aF5.589021983212328
aF0.0
aF5.299731016240363
aF0.0
aF4.188022459804253
aF0.0
aF1.6745214530324954
aF0.0
aF0.0
aF5.514567439998002
aF0.0
aF0.0
aF2.143928454791318
aF0.0
aF0.0
aF2.8743270375179093
aF0.0
aF0.0
aF0.35138437201101097
atp166
a(g1
(lp167
F0.0
aF5.254103278590392
aF0.0
aF4.957938958193279
aF0.0
aF3.8283012925205417
aF0.0
aF1.367190351237785
aF0.0
aF0.0
aF4.633222565394279
aF0.0
aF0.0
aF1.5426176458618177
aF0.0
aF0.0
aF2.529846002517526
aF0.0
aF0.0
aF0.2043117228094789
atp168
a(g1
(lp169
F0.0
aF5.248309956457725
aF0.0
aF4.960509739538728
aF0.0
aF3.8590884402369103
aF0.0
aF1.4265796285914185
aF0.0
aF0.0
aF4.640553301775015
aF0.0
aF0.0
aF1.7119967906409834
aF0.0
aF0.0
aF2.3524562284641486
aF0.0
aF0.0
aF0.24275797243688185
atp170
a(g1
(lp171
F0.0
aF5.200165583263191
aF0.0
aF4.923579006094636
aF0.0
aF3.8671111347030975
aF0.0
aF1.5024817440441678
aF0.0
aF0.0
aF4.643286702716962
aF0.0
aF0.0
aF1.796647175321366
aF0.0
aF0.0
aF2.3767433868446672
aF0.0
aF0.0
aF0.2648690690814128
atp172
a(g1
(lp173
F0.0
aF5.15241178378997
aF0.0
aF4.87223293780899
aF0.0
aF3.80033937488759
aF0.0
aF1.4183699182940561
aF0.0
aF0.0
aF4.593452406072731
aF0.0
aF0.0
aF1.7248873819219883
aF0.0
aF0.0
aF2.2565597021788126
aF0.0
aF0.0
aF0.1940557559365262
atp174
a(g1
(lp175
F0.0
aF5.467639141012229
aF0.0
aF5.1838303097691165
aF0.0
aF4.091614453319033
aF0.0
aF1.6356881456052346
aF0.0
aF0.0
aF5.309616200306624
aF0.0
aF0.0
aF2.1084652341080914
aF0.0
aF0.0
aF2.7027568366112793
aF0.0
aF0.0
aF0.3060259617783858
atp176
a(g1
(lp177
F0.0
aF5.40612196670168
aF0.0
aF5.113751796329737
aF0.0
aF3.9894881593707447
aF0.0
aF1.4975152486158683
aF0.0
aF0.0
aF4.907191742274995
aF0.0
aF0.0
aF1.790302025534342
aF0.0
aF0.0
aF2.5868573377388744
aF0.0
aF0.0
aF0.24137506360734437
atp178
a(g1
(lp179
F0.0
aF5.334793131795769
aF0.0
aF5.035420213538136
aF0.0
aF3.888722302281752
aF0.0
aF1.3666273234827229
aF0.0
aF0.0
aF4.944545480087691
aF0.0
aF0.0
aF1.5939522326334095
aF0.0
aF0.0
aF2.7025911616406004
aF0.0
aF0.0
aF0.1663558353036221
atp180
a(g1
(lp181
F0.0
aF5.06583260046696
aF0.0
aF4.77386240082393
aF0.0
aF3.6591846721956447
aF0.0
aF1.243623991524744
aF0.0
aF0.0
aF4.254517638952388
aF0.0
aF0.0
aF1.3461285092734692
aF0.0
aF0.0
aF2.3370204811732416
aF0.0
aF0.0
aF0.1367611354776017
atp182
a(g1
(lp183
F0.0
aF5.4166448712988124
aF0.0
aF5.129466805518538
aF0.0
aF4.030049127504764
aF0.0
aF1.564452871959262
aF0.0
aF0.0
aF5.15984710024637
aF0.0
aF0.0
aF1.9431897337700073
aF0.0
aF0.0
aF2.6919497521097444
aF0.0
aF0.0
aF0.2821549932373627
atp184
a(g1
(lp185
F0.0
aF5.165205529660163
aF0.0
aF4.87679896574474
aF0.0
aF3.7746658162019955
aF0.0
aF1.357849681763137
aF0.0
aF0.0
aF4.6109133974421725
aF0.0
aF0.0
aF1.6471556595022028
aF0.0
aF0.0
aF2.334310609813605
aF0.0
aF0.0
aF0.18673964668716858
atp186
a(g1
(lp187
F0.0
aF5.339707884013098
aF0.0
aF5.052050448800445
aF0.0
aF3.956053197453322
aF0.0
aF1.5324171057868814
aF0.0
aF0.0
aF4.915824511880888
aF0.0
aF0.0
aF1.8774973910854869
aF0.0
aF0.0
aF2.5311078263619344
aF0.0
aF0.0
aF0.2689068342408122
atp188
a(g1
(lp189
F0.0
aF5.047745202341323
aF0.0
aF4.769780138376411
aF0.0
aF3.706740334912904
aF0.0
aF1.3611992105203325
aF0.0
aF0.0
aF4.571020292605586
aF0.0
aF0.0
aF1.6245221068300677
aF0.0
aF0.0
aF2.3460604411449464
aF0.0
aF0.0
aF0.19490977698185125
atp190
a(g1
(lp191
F0.0
aF5.563280698636851
aF0.0
aF5.281452702927938
aF0.0
aF4.195154918313221
aF0.0
aF1.704743278998459
aF0.0
aF0.0
aF5.548216453392513
aF0.0
aF0.0
aF2.2295342452617084
aF0.0
aF0.0
aF2.812639545938181
aF0.0
aF0.0
aF0.355234780590742
atp192
a(g1
(lp193
F0.0
aF5.391474602526313
aF0.0
aF5.094980784520969
aF0.0
aF3.9564423915455644
aF0.0
aF1.4305745508518877
aF0.0
aF0.0
aF4.739388832204939
aF0.0
aF0.0
aF1.6764445474218341
aF0.0
aF0.0
aF2.5167707876030208
aF0.0
aF0.0
aF0.23743755772073952
atp194
a(g1
(lp195
F0.0
aF5.646732394700896
aF0.0
aF5.35223145348585
aF0.0
aF4.217798753400816
aF0.0
aF1.6476836204929788
aF0.0
aF0.0
aF5.659720747376663
aF0.0
aF0.0
aF2.1150975734717
aF0.0
aF0.0
aF2.967376901721077
aF0.0
aF0.0
aF0.3138925927857858
atp196
a(g1
(lp197
F0.0
aF5.229560210667541
aF0.0
aF4.93723312175005
aF0.0
aF3.816821485683028
aF0.0
aF1.3487855327712543
aF0.0
aF0.0
aF4.592359131733118
aF0.0
aF0.0
aF1.558790802216496
aF0.0
aF0.0
aF2.4938595183666106
aF0.0
aF0.0
aF0.20614036923691098
atp198
a(g1
(lp199
F0.0
aF5.595049533041526
aF0.0
aF5.296016235880775
aF0.0
aF4.145239115001376
aF0.0
aF1.5596365142331656
aF0.0
aF0.0
aF5.538548060661632
aF0.0
aF0.0
aF1.952247576700639
aF0.0
aF0.0
aF2.9767938786066512
aF0.0
aF0.0
aF0.2726927314544971
atp200
a(g1
(lp201
F0.0
aF5.508586155635643
aF0.0
aF5.212947196682655
aF0.0
aF4.0766041821156165
aF0.0
aF1.5288823357358166
aF0.0
aF0.0
aF5.270423005202877
aF0.0
aF0.0
aF1.8705105953984733
aF0.0
aF0.0
aF2.8384678827022927
aF0.0
aF0.0
aF0.27472503575661916
atp202
a(g1
(lp203
F0.0
aF5.488911257426898
aF0.0
aF5.204176121127361
aF0.0
aF4.109500152993856
aF0.0
aF1.623364869119645
aF0.0
aF0.0
aF5.317327859336727
aF0.0
aF0.0
aF2.0881084419389015
aF0.0
aF0.0
aF2.6895229923049415
aF0.0
aF0.0
aF0.2971471729467729
atp204
a(g1
(lp205
F0.0
aF5.2965177089598034
aF0.0
aF5.01442457653704
aF0.0
aF3.928865987221046
aF0.0
aF1.4799341097959005
aF0.0
aF0.0
aF4.957305134097888
aF0.0
aF0.0
aF1.8013628980655445
aF0.0
aF0.0
aF2.6142835949565693
aF0.0
aF0.0
aF0.24067152775440717
atp206
a(g1
(lp207
F0.0
aF5.562054280094823
aF0.0
aF5.266148308259429
aF0.0
aF4.130074110913229
aF0.0
aF1.5811163975874434
aF0.0
aF0.0
aF5.314899855542586
aF0.0
aF0.0
aF1.9866620188524848
aF0.0
aF0.0
aF2.7766890274176586
aF0.0
aF0.0
aF0.28828953644980454
atp208
a(g1
(lp209
F0.0
aF5.493906114103225
aF0.0
aF5.205613648597648
aF0.0
aF4.099884524810673
aF0.0
aF1.6134394791085676
aF0.0
aF0.0
aF5.323908813188715
aF0.0
aF0.0
aF2.012455130871506
aF0.0
aF0.0
aF2.7831780298463697
aF0.0
aF0.0
aF0.30797178321074853
atp210
a(g1
(lp211
F0.0
aF5.452168371753442
aF0.0
aF5.1645003285574616
aF0.0
aF4.05915295116174
aF0.0
aF1.5668070063389683
aF0.0
aF0.0
aF5.279147476031015
aF0.0
aF0.0
aF1.9804610334220765
aF0.0
aF0.0
aF2.754542886358732
aF0.0
aF0.0
aF0.2996441482829732
atp212
a(g1
(lp213
F0.0
aF5.388006050213473
aF0.0
aF5.0963029584447535
aF0.0
aF3.9785459418992106
aF0.0
aF1.4952375071167623
aF0.0
aF0.0
aF5.192837653571065
aF0.0
aF0.0
aF1.8386368348648559
aF0.0
aF0.0
aF2.7594995320912368
aF0.0
aF0.0
aF0.2370514590408767
atp214
a(g1
(lp215
F0.0
aF5.424298043975359
aF0.0
aF5.130667644039297
aF0.0
aF4.003796006554873
aF0.0
aF1.4886509545054807
aF0.0
aF0.0
aF5.121656832599263
aF0.0
aF0.0
aF1.8000421141816625
aF0.0
aF0.0
aF2.7286693429866644
aF0.0
aF0.0
aF0.24590004387997136
atp216
a(g1
(lp217
F0.0
aF5.150583879100687
aF0.0
aF4.8463387125758395
aF0.0
aF3.6850197718909556
aF0.0
aF1.190762625291843
aF0.0
aF0.0
aF4.568789565426256
aF0.0
aF0.0
aF1.3281896158636812
aF0.0
aF0.0
aF2.5680387286435744
aF0.0
aF0.0
aF0.1072032684581206
atp218
a(g1
(lp219
F0.0
aF5.543104226883457
aF0.0
aF5.251001245117466
aF0.0
aF4.130704059036795
aF0.0
aF1.6122043852140777
aF0.0
aF0.0
aF5.3646489463900355
aF0.0
aF0.0
aF2.105403233540257
aF0.0
aF0.0
aF2.7390736629038295
aF0.0
aF0.0
aF0.28010328527106326
atp220
a(g1
(lp221
F0.0
aF5.333551680291035
aF0.0
aF5.051919905038823
aF0.0
aF3.9679147938641006
aF0.0
aF1.5376204847631878
aF0.0
aF0.0
aF4.981281093753072
aF0.0
aF0.0
aF1.945900361845643
aF0.0
aF0.0
aF2.606564770266218
aF0.0
aF0.0
aF0.29215673257160485
atp222
a(g1
(lp223
F0.0
aF5.441146017138672
aF0.0
aF5.144268878092976
aF0.0
aF4.0060442504879
aF0.0
aF1.4797700523842057
aF0.0
aF0.0
aF5.117832846229041
aF0.0
aF0.0
aF1.7895733329292034
aF0.0
aF0.0
aF2.7190442585501757
aF0.0
aF0.0
aF0.22159342690147746
atp224
a(g1
(lp225
F0.0
aF5.380067761249439
aF0.0
aF5.0953525550553405
aF0.0
aF4.002279825616368
aF0.0
aF1.5426461188129201
aF0.0
aF0.0
aF4.943592069790603
aF0.0
aF0.0
aF1.8850996614480848
aF0.0
aF0.0
aF2.530754182112091
aF0.0
aF0.0
aF0.27520502280219755
atp226
a(g1
(lp227
F0.0
aF5.440665169295332
aF0.0
aF5.15011516569619
aF0.0
aF4.035158212836486
aF0.0
aF1.5595609585294534
aF0.0
aF0.0
aF5.268739790199192
aF0.0
aF0.0
aF1.933905038113275
aF0.0
aF0.0
aF2.7721622613397154
aF0.0
aF0.0
aF0.2889483797659286
atp228
a(g1
(lp229
F0.0
aF5.3453023776994275
aF0.0
aF5.051002922607734
aF0.0
aF3.9240330712673406
aF0.0
aF1.444637936347621
aF0.0
aF0.0
aF4.915770920950712
aF0.0
aF0.0
aF1.731246780001257
aF0.0
aF0.0
aF2.622495575374539
aF0.0
aF0.0
aF0.24665309631571736
atp230
a(g1
(lp231
F0.0
aF5.324724852027499
aF0.0
aF5.041861954785983
aF0.0
aF3.9619329215677936
aF0.0
aF1.5503429412835095
aF0.0
aF0.0
aF4.967667886138228
aF0.0
aF0.0
aF1.892456945189917
aF0.0
aF0.0
aF2.544752385353482
aF0.0
aF0.0
aF0.2765354770422929
atp232
a(g1
(lp233
F0.0
aF5.284392314525298
aF0.0
aF4.995078905461051
aF0.0
aF3.8890125256139445
aF0.0
aF1.456078801729918
aF0.0
aF0.0
aF5.111702393472233
aF0.0
aF0.0
aF1.7517863682036439
aF0.0
aF0.0
aF2.6408714099019437
aF0.0
aF0.0
aF0.17269837974293528
atp234
a(g1
(lp235
F0.0
aF5.3127346353520934
aF0.0
aF5.035155939781469
aF0.0
aF3.974191582497852
aF0.0
aF1.5881650461099641
aF0.0
aF0.0
aF4.932517853632292
aF0.0
aF0.0
aF1.973396888772388
aF0.0
aF0.0
aF2.470551121376478
aF0.0
aF0.0
aF0.29376222094320203
atp236
a(g1
(lp237
F0.0
aF5.411181845518235
aF0.0
aF5.133229592180741
aF0.0
aF4.0646614163438715
aF0.0
aF1.6407391313593336
aF0.0
aF0.0
aF5.2450399292318535
aF0.0
aF0.0
aF2.080199669291874
aF0.0
aF0.0
aF2.573137647964935
aF0.0
aF0.0
aF0.2703541387150579
atp238
a(g1
(lp239
F0.0
aF5.48399669408912
aF0.0
aF5.189571358064036
aF0.0
aF4.057471378171202
aF0.0
aF1.513855368262296
aF0.0
aF0.0
aF5.356385355352995
aF0.0
aF0.0
aF1.8583167548806494
aF0.0
aF0.0
aF2.8636851312258957
aF0.0
aF0.0
aF0.23282290978802
atp240
a(g1
(lp241
F0.0
aF5.244744288224389
aF0.0
aF4.95129765869847
aF0.0
aF3.825525933019062
aF0.0
aF1.3486785169366593
aF0.0
aF0.0
aF4.610989074375921
aF0.0
aF0.0
aF1.5271959063483966
aF0.0
aF0.0
aF2.504103957060883
aF0.0
aF0.0
aF0.185863746997972
atp242
a(g1
(lp243
F0.0
aF5.553059220847393
aF0.0
aF5.27241718203861
aF0.0
aF4.188738882519591
aF0.0
aF1.6936441006293057
aF0.0
aF0.0
aF5.426226594589938
aF0.0
aF0.0
aF2.209951060073548
aF0.0
aF0.0
aF2.7321960007849353
aF0.0
aF0.0
aF0.36137651743130766
atp244
a(g1
(lp245
F0.0
aF5.302884862260614
aF0.0
aF5.007383263112748
aF0.0
aF3.869272814964239
aF0.0
aF1.3321375531365631
aF0.0
aF0.0
aF4.880243180211224
aF0.0
aF0.0
aF1.5091854970429663
aF0.0
aF0.0
aF2.720568615771078
aF0.0
aF0.0
aF0.15794896993955784
atp246
a(g1
(lp247
F0.0
aF5.372741469075163
aF0.0
aF5.080913429194323
aF0.0
aF3.9624603595734884
aF0.0
aF1.4720463038262466
aF0.0
aF0.0
aF5.015932652788281
aF0.0
aF0.0
aF1.7582376745460215
aF0.0
aF0.0
aF2.694124174470835
aF0.0
aF0.0
aF0.24301283528157225
atp248
a(g1
(lp249
F0.0
aF5.230010255594638
aF0.0
aF4.936059887293041
aF0.0
aF3.8122541838473154
aF0.0
aF1.3510462635277682
aF0.0
aF0.0
aF4.764860811755408
aF0.0
aF0.0
aF1.572113589091459
aF0.0
aF0.0
aF2.5719714888537135
aF0.0
aF0.0
aF0.18571010271743146
atp250
a(g1
(lp251
F0.0
aF5.441876748422761
aF0.0
aF5.1607987333167875
aF0.0
aF4.084418536636932
aF0.0
aF1.6498377754473876
aF0.0
aF0.0
aF5.204999226895859
aF0.0
aF0.0
aF2.1494707801962996
aF0.0
aF0.0
aF2.6204852323396333
aF0.0
aF0.0
aF0.30267674997309874
atp252
a(g1
(lp253
F0.0
aF5.013480304821624
aF0.0
aF4.731430824877422
aF0.0
aF3.654599416938437
aF0.0
aF1.296557857601319
aF0.0
aF0.0
aF4.554286695845899
aF0.0
aF0.0
aF1.5750307888769357
aF0.0
aF0.0
aF2.3663293303173902
aF0.0
aF0.0
aF0.1563466915974869
atp254
a(g1
(lp255
F0.0
aF5.373862490586373
aF0.0
aF5.080148787546388
aF0.0
aF3.954295663406216
aF0.0
aF1.4567494871460402
aF0.0
aF0.0
aF5.050001986778979
aF0.0
aF0.0
aF1.7508751422844255
aF0.0
aF0.0
aF2.679605907384354
aF0.0
aF0.0
aF0.21179985592008715
atp256
a(g1
(lp257
F0.0
aF5.289691409613346
aF0.0
aF4.994154037870474
aF0.0
aF3.8613699319822583
aF0.0
aF1.364370842776117
aF0.0
aF0.0
aF4.695685409423652
aF0.0
aF0.0
aF1.545114256195252
aF0.0
aF0.0
aF2.5924597509547724
aF0.0
aF0.0
aF0.19267503217933837
atp258
a(g1
(lp259
F0.0
aF5.535798696318099
aF0.0
aF5.244672463717579
aF0.0
aF4.126315564733256
aF0.0
aF1.6231192845676459
aF0.0
aF0.0
aF5.30890513972349
aF0.0
aF0.0
aF2.0620460478359837
aF0.0
aF0.0
aF2.7218474470800067
aF0.0
aF0.0
aF0.3298029588292087
atp260
a(g1
(lp261
F0.0
aF5.374220831332289
aF0.0
aF5.08470014574259
aF0.0
aF3.9752379908014284
aF0.0
aF1.5277902094843627
aF0.0
aF0.0
aF4.873958994567329
aF0.0
aF0.0
aF1.8512733602773608
aF0.0
aF0.0
aF2.556488207148881
aF0.0
aF0.0
aF0.3217022269165163
atp262
a.