(lp0
(VPt
p1
(lp2
F0.5412946278250683
aF5.67134899688865
aF0.4944731416481266
aF5.378716963688667
aF0.325698485009324
aF4.250496892919537
aF0.04918753855301123
aF1.6808783778090306
aF0.08339854526537549
aF1.1617729992785697
aF6.166886655718904
aF0.008875402141557695
aF0.28186858001207676
aF2.2078000429465345
aF0.06259434061975457
aF0.6935378095029231
aF3.3273401613150444
aF3.342755463669538e-05
aF0.010352470633630947
aF0.32457803249911144
atp3
a(g1
(lp4
F0.5148565007419537
aF5.727289449265431
aF0.4695923590537016
aF5.424345026863054
aF0.3074253740085201
aF4.264731138544587
aF0.045890124116880586
aF1.6695230694285528
aF0.07395758796651214
aF0.9098636835952201
aF5.712685563794782
aF0.007688350574792689
aF0.19802791763123026
aF2.0205166108575
aF0.055829328231723534
aF0.58649889162619
aF3.2063156530346006
aF2.4803800452759813e-05
aF0.010714819669584444
aF0.36712155409983216
atp5
a(g1
(lp6
F0.5481286326752699
aF5.650881322759952
aF0.503859897367133
aF5.365367721033338
aF0.34229869834540927
aF4.265394073332277
aF0.06123956909156204
aF1.7446992731307316
aF0.09615765135184619
aF1.2405005778420892
aF6.129915058048391
aF0.007757634046976103
aF0.3365107254602082
aF2.3489694414835793
aF0.07651774498284211
aF0.70402892726906
aF3.198974046045489
aF1.2481318767687052e-05
aF0.013875439206172166
aF0.35035086805804566
atp7
a(g1
(lp8
F0.5119456199805253
aF5.673852176232928
aF0.46880343488756154
aF5.3762282693793315
aF0.31277248815189224
aF4.2374757538609495
aF0.05096743823961173
aF1.6803832442297473
aF0.08440888121144687
aF0.9852307064561716
aF5.7081081532132005
aF0.006695546872804143
aF0.21992521173821145
aF2.0668231186089616
aF0.06740824900519436
aF0.6304812840971844
aF3.1570214511056935
aF1.0332164084190862e-05
aF0.01267699707123105
aF0.3628721618381776
atp9
a(g1
(lp10
F0.6899480291735508
aF5.801581053518185
aF0.6308420319075017
aF5.505924029671848
aF0.41964064971771864
aF4.367970435463348
aF0.07238949108379118
aF1.7671878441656295
aF0.10614656658424369
aF0.965291623793288
aF6.030092180349545
aF0.012048203122437401
aF0.28975656882454537
aF2.28679193587137
aF0.07852754256544489
aF0.5237893651324156
aF3.253561093235207
aF4.726425859385939e-05
aF0.015538701113910562
aF0.40790974766263477
atp11
a(g1
(lp12
F1.7071311516684065
aF5.55392849144477
aF1.6354242868412687
aF5.263459436019026
aF1.3497863821468779
aF4.14596865218726
aF0.622984012486109
aF1.6119255850029734
aF0.6845268129281336
aF2.1515249691387885
aF5.9202209477348715
aF0.18156362314585267
aF1.6441970711579756
aF2.0662826662828153
aF0.41659517654498446
aF0.7965937084142825
aF3.2287755091936616
aF0.009277059511038816
aF0.43449273427819557
aF0.28693272452010604
atp13
a(g1
(lp14
F0.7467655392765137
aF5.7420511313299825
aF0.6856772690138949
aF5.447039392612944
aF0.464734475021703
aF4.313362056505883
aF0.08524441900007143
aF1.7334755360931862
aF0.13807845241904465
aF1.0213898955311498
aF5.984184044974873
aF0.01243733559886311
aF0.3267221549564371
aF2.2175994350953876
aF0.10705660714100329
aF0.5394974583810357
aF3.2545147226666575
aF2.357887519689375e-05
aF0.019614708347030406
aF0.38310514868908396
atp15
a(g1
(lp16
F1.5369533837220102
aF5.817303947274876
aF1.474133011715377
aF5.52508181656674
aF1.2244781615256108
aF4.3973005380568155
aF0.5782262681762065
aF1.7941824412500214
aF0.6436455728993375
aF2.0937632897334066
aF6.172841089592132
aF0.14015771805465974
aF1.7826259157950333
aF2.4221371815817934
aF0.36584883666114193
aF0.7199768751850374
aF3.2291746188717356
aF0.002050609456508042
aF0.451744415268314
aF0.4029926918079495
atp17
a(VCu
p18
(lp19
F1.3117586173733025
aF3.5168810697826833
aF1.260948858970478
aF3.2953825631739666
aF1.0594317911062263
aF2.4711499073194174
aF0.5287408865198571
aF0.8461499433516498
aF0.07549575223241667
aF1.4965689469575743
aF3.490138090262014
aF0.03765426357126849
aF0.7926370783116685
aF0.6989757534428761
aF0.07516962175238727
aF0.6488996166890127
aF2.200346512799624
aF0.03720555212572916
aF0.1465588299664527
aF0.01568383930964567
atp20
a(g18
(lp21
F1.3117586173733025
aF3.280142415280615
aF1.260948858970478
aF3.067422869260598
aF1.0594317911062263
aF2.2756848066076385
aF0.5287408865198571
aF0.7199789173955939
aF0.07549575223241667
aF1.6058615378755283
aF3.0373302229972796
aF0.037654263571268484
aF0.6800202052229959
aF0.5780418787700295
aF0.07516962175238727
aF0.7924422616552348
aF1.936252181626828
aF0.03720555212572916
aF0.09947891823862252
aF0.01191044036125673
atp22
a.