(lp0
(VPt
p1
(lp2
F0.9423966954015721
aF5.574459848940961
aF0.85943897569666
aF5.310289979769131
aF0.5625572084020827
aF4.279820257339125
aF0.08420500188508147
aF1.8150522984118962
aF0.08275750546467645
aF1.6725990273957323
aF7.11553296637382
aF0.009988832041897398
aF0.36593367408491506
aF2.6412697294112544
aF0.06285517442511267
aF1.0530677657351704
aF3.6758505810590054
aF0.00021581572584457903
aF0.016464844718052495
aF0.35495430061106087
atp3
a(g1
(lp4
F1.616542280178895
aF5.241322815082262
aF1.5332904664806404
aF4.9720971628471435
aF1.2066034450220435
aF3.942594565473269
aF0.43906062041725935
aF1.5992835641581635
aF0.46827231570051087
aF2.855118900225809
aF6.281632577058816
aF0.11532312537971456
aF1.1803204039993898
aF2.1685966759916315
aF0.3070841313020763
aF1.4947976036969517
aF3.273068584375488
aF0.010951235677622085
aF0.2116559920672539
aF0.2263846840887152
atp5
a(g1
(lp6
F0.9562344922882063
aF5.539894351766017
aF0.8874686597849786
aF5.286010856820596
aF0.6342016636476613
aF4.292551432261757
aF0.16054405707101502
aF1.861652810645111
aF0.11419163364354988
aF1.7892939517754642
aF7.129934082947961
aF0.005833476114190987
aF0.6065325683237365
aF2.779433346523387
aF0.09877223818898821
aF0.988132833959233
aF3.5247020436123906
aF5.5549373049597245e-06
aF0.06529148265761472
aF0.369948121637272
atp7
a(g1
(lp8
F1.5070490643469374
aF5.708908962180462
aF1.4468837338302571
aF5.428210373693169
aF1.2109335899948543
aF4.3377399957860465
aF0.6036745425069867
aF1.7744143848539111
aF0.5212678716190992
aF2.7363580968288317
aF7.055736826793574
aF0.1384369089441047
aF1.7864643557576305
aF2.5425981646278952
aF0.26077800291763786
aF1.1080952269048403
aF3.6786418124836637
aF0.0017890683214969478
aF0.41912991511334324
aF0.3396897772016348
atp9
a(g1
(lp10
F1.3326452420272685
aF5.653666366190383
aF1.2573209538492318
aF5.3950731016166085
aF0.9706040812171111
aF4.378338421649955
aF0.3520110465396345
aF1.8813707599529919
aF0.3263319956781462
aF2.753678337838985
aF7.166389163564341
aF0.047854368163102845
aF1.1781848623349593
aF2.8755552694430233
aF0.22495364440117374
aF1.4373916921977412
aF3.484144542066683
aF0.000920997027280231
aF0.22936637615407082
aF0.3807173928492713
atp11
a(g1
(lp12
F1.4105866547141142
aF5.011710163892418
aF1.3411202506625644
aF4.7271373079810735
aF1.0731206270937972
aF3.6541690576489194
aF0.44315910293425975
aF1.3680533512419877
aF0.41837733297151786
aF1.7708077406684675
aF5.6587157892267514
aF0.07939835152772955
aF0.986954083800745
aF1.6162213405157007
aF0.2500976288634781
aF0.8966860182116447
aF3.2011031118929365
aF0.0004543998851692774
aF0.2287201912583994
aF0.12658131989972476
atp13
a(g1
(lp14
F1.5736222361766683
aF4.974874554854161
aF1.4956529401690906
aF4.710324184300308
aF1.1913893500363892
aF3.6960744597431727
aF0.4874755167492774
aF1.4231593228533785
aF0.4132519304401668
aF2.7082809593296497
aF5.971793127390171
aF0.08975453233385192
aF1.1959982817194368
aF1.8117457960160246
aF0.31092485441952794
aF1.3742329671454285
aF3.264098440292202
aF0.013643984933641256
aF0.27906957827775086
aF0.14698390498562383
atp15
a(g1
(lp16
F1.2622129539996434
aF5.83577025354868
aF1.1619053432279525
aF5.5657801718188935
aF0.7975725098633859
aF4.509430218288012
aF0.1641005074534956
aF1.9482324439741965
aF0.17312065070861174
aF1.985759521273238
aF7.2681248490967985
aF0.02667871057594143
aF0.5773205707556488
aF2.9713440887115143
aF0.12601845357798097
aF1.1675662871591663
aF3.5279717243929563
aF0.0007970156949775093
aF0.0546441382828722
aF0.4247681882774054
atp17
a(VCu
p18
(lp19
F1.0079127072541338
aF5.279141909218853
aF0.9615735779342856
aF4.97989112255436
aF0.7863308112153117
aF3.8491773591928986
aF0.3896243182645385
aF1.4572319216998881
aF0.03277213537653637
aF2.0045673467471476
aF5.443410366564228
aF0.012993546785206603
aF1.0364221484900797
aF1.6062176791203537
aF0.01925577658352262
aF0.8767101623695832
aF3.17666668571917
aF0.0020700325846956607
aF0.214827664078339
aF0.18331854997644303
atp20
a(g18
(lp21
F1.0079127072541338
aF5.322147709914451
aF0.9615735779342854
aF5.0031902011470155
aF0.7863308112153115
aF3.797805116084426
aF0.38962431826453836
aF1.2769984738571214
aF0.03277213537653634
aF2.1202103478783463
aF4.849098348086519
aF0.012993546785206592
aF0.9004792394980504
aF1.1760762742852178
aF0.019255776583522604
aF1.0221519949499225
aF3.062889863258698
aF0.0020700325846956602
aF0.1113980037486286
aF0.1759320748129002
atp22
a.