(lp0
(VPt
p1
(lp2
F0.05218686886846019
aF4.3771610493102155
aF0.04553410473544813
aF4.14629868509855
aF0.02420387154352134
aF3.2549042830240684
aF0.0013105058542330443
aF1.2509205799095826
aF1.8037941650832254e-05
aF0.06305890935163003
aF4.004412890787926
aF5.04623948561771e-06
aF0.009400399069032813
aF1.0950830653910213
aF8.606062397149854e-06
aF0.046025922690602926
aF2.469458024336792
aF5.2714247303643935e-08
aF0.00018075342194027904
aF0.14703146789821106
atp3
a(g1
(lp4
F0.18452932498954291
aF4.89621847841426
aF0.16819578623615983
aF4.679584832473298
aF0.10939308069702143
aF3.850044722806527
aF0.01485332965790257
aF1.9936462400067454
aF0.0
aF0.2744516306913928
aF3.461522866726075
aF0.0
aF0.09314145206491735
aF2.9929084139143507
aF0.0
aF0.1812187404381094
aF1.4417255264309718
aF0.0
aF0.031450829841568134
aF1.1534419689884499
atp5
a(g1
(lp6
F0.25562567619057375
aF4.823825812263747
aF0.23137131166093328
aF4.598510015086402
aF0.14611196128255238
aF3.7319998199008513
aF0.018273036369696932
aF1.709709907361698
aF0.0009328656356100286
aF0.3378322761694431
aF3.8266155126455
aF0.0004012584146220718
aF0.0742111464936536
aF2.058701853090222
aF0.0003189243951180457
aF0.23007956329631604
aF1.8940522051985242
aF1.091711718032527e-05
aF0.004821962067631716
aF0.45025237967209286
atp7
a(g1
(lp8
F0.10963834162088572
aF4.505024449408179
aF0.09809384703790748
aF4.290465310188256
aF0.058527097650782026
aF3.4757515447921463
aF0.0053249957140584815
aF1.7324474007728092
aF0.0
aF0.17685113522721532
aF4.33734672364855
aF0.0
aF0.02613878211830281
aF1.3424631111264134
aF0.0
aF0.12738605496779218
aF2.457337690474144
aF0.0
aF0.0005246726179848737
aF0.1098170956689297
atp9
a(g1
(lp10
F0.7554661827217335
aF4.44313141152674
aF0.7046790522769566
aF4.209148506951487
aF0.5119978017932427
aF3.3001361961885984
aF0.12219434888561809
aF1.1910297613196106
aF0.03396824191763092
aF0.7603592741925169
aF3.9435956475744947
aF0.011323402839559394
aF0.20956517403244915
aF1.1854315285171673
aF0.01807584512942159
aF0.5251858853946002
aF2.2463400536152176
aF0.0009042598949003711
aF0.024974126524018116
aF0.09554402426848321
atp11
a(g1
(lp12
F0.683559490163206
aF0.10170758920198314
aF0.6376041059702747
aF0.08907070438420264
aF0.46835713740599816
aF0.04812227647033216
aF0.13806768882919848
aF0.002767071116881374
aF0.04197384143355391
aF0.0008385032324974268
aF0.0
aF0.007073488210892969
aF0.00029206102439589604
aF0.0
aF0.026340642619328978
aF0.00041779140522252544
aF0.0
aF2.2982242629850677e-05
aF1.5351989363482273e-05
aF0.0
atp13
a(g1
(lp14
F0.09352393818886522
aF3.720956263943054
aF0.08188626086628566
aF3.481659102170252
aF0.044214224855852635
aF2.5977058434541216
aF0.0025578898311072133
aF0.8541874535124359
aF1.7970489086560656e-07
aF0.0704770545895376
aF2.3563115302514976
aF4.780954747155809e-08
aF0.010340733742699112
aF0.3556163863829014
aF8.855492103815245e-08
aF0.05003358480564519
aF1.7691061048356822
aF4.4364096769692115e-10
aF0.00010387312982850526
aF0.06565108242930878
atp15
a(g1
(lp16
F1.235328131221432
aF3.2462322474666947
aF1.1886084883327148
aF3.0308386822103284
aF1.0176374975166973
aF2.2199743330153723
aF0.6708615837351244
aF0.5861300215778456
aF0.1701477556270302
aF0.39895601223267685
aF2.407489683714989
aF0.029111564715767344
aF0.6658655160147613
aF0.48478144407634405
aF0.11375083804799484
aF0.06479523514632736
aF1.5503557720709251
aF0.0006258193562043899
aF0.24050661791835906
aF0.01901948625881056
atp17
a(VCu
p18
(lp19
F0.7851359811889553
aF0.9140613942436215
aF0.7302739829004303
aF0.8463998620874108
aF0.525536780060704
aF0.6001361545300621
aF0.12700485228250757
aF0.15340833778768767
aF0.026818145026656085
aF0.23586789101376404
aF0.018038945891859694
aF0.009683332389872727
aF0.03967512750790445
aF0.002760219326383439
aF0.013746126805616992
aF0.1900018882529265
aF0.012216078094714323
aF0.0007961235580941807
aF0.004845473787667292
aF3.068788907307318e-05
atp20
a(g18
(lp21
F0.785135981188955
aF2.4557965597210765
aF0.73027398290043
aF2.309573095029269
aF0.5255367800607037
aF1.7803065182156057
aF0.12700485228250735
aF0.8200350410892517
aF0.026818145026656075
aF0.14393737152988162
aF1.299297580192115
aF0.009683332389872719
aF0.17043107092893314
aF0.26579328471320146
aF0.013746126805616984
aF0.05942374939247177
aF0.8100012087694218
aF0.0007961235580941776
aF0.07412547972340909
aF0.006341608138700697
atp22
a.