(lp0
(VPt
p1
(lp2
F0.22694014371555643
aF4.885735566099798
aF0.2083315356921127
aF4.632301164705792
aF0.14018134397950727
aF3.6599891374130062
aF0.022509698412944004
aF1.4835427242780008
aF0.00018860301086989285
aF0.4922472816190082
aF4.983931511381671
aF2.167063657981993e-05
aF0.1372907994703928
aF1.641550929445127
aF0.00014082169062728153
aF0.2466788867359408
aF2.9718515976107085
aF1.5251483005601226e-07
aF0.0025793946389799306
aF0.22919396637949796
atp3
a(g1
(lp4
F0.7575583972785993
aF5.488818038011146
aF0.7007207143248501
aF5.2558565011759795
aF0.48843894747308697
aF4.348321449621362
aF0.09352132716932388
aF2.1910169866004843
aF0.09754022571144755
aF1.1787701806573123
aF5.1248403054712925
aF0.01853645674301549
aF0.3585892534025924
aF3.3068580591467405
aF0.06070621032000055
aF0.6384309810812804
aF2.4294490358083336
aF0.0004061080646643208
aF0.033425862694895635
aF0.9067537313484203
atp5
a(g1
(lp6
F0.45908231188004534
aF4.97498855492842
aF0.4314648089197627
aF4.726947505200874
aF0.32594004512669744
aF3.7702904368486303
aF0.09629589663868064
aF1.593342444805377
aF0.015618555920818029
aF0.7068383239190043
aF4.477848603683109
aF0.001069049192034068
aF0.3885559558028924
aF1.7787480602938417
aF0.012825251831124195
aF0.2624626893966923
aF2.576093953354479
aF7.214775667493221e-07
aF0.046532586428671606
aF0.44968575227698
atp7
a(g1
(lp8
F0.3547261984955875
aF5.441915483579347
aF0.3252239282644156
aF5.199263611612851
aF0.21915623114842317
aF4.255757646281848
aF0.03952948589716895
aF2.0177931494655343
aF0.012121596868480525
aF0.6970896009834605
aF5.603470816858214
aF0.0013451957146529798
aF0.23660688948712033
aF2.6809975063453546
aF0.009034492467271941
aF0.3256144566455751
aF2.9909225523980063
aF9.06146088455704e-06
aF0.007892479784964539
aF0.5993960333681077
atp9
a(g1
(lp10
F0.4339838207974293
aF4.940814421146919
aF0.402273486444349
aF4.683767749512451
aF0.2859842682534771
aF3.681166768352776
aF0.0674137555807986
aF1.350665527075074
aF0.020499837259030755
aF0.6331310469227188
aF4.787280724462129
aF0.0018765081873374997
aF0.2590336225690321
aF1.3002979753454451
aF0.015795870974916616
aF0.2658847958931097
aF2.975499648579989
aF1.5583406950057813e-06
aF0.01580686585709111
aF0.15170739827064839
atp11
a(g1
(lp12
F0.0769278757303854
aF0.27844724534105236
aF0.06748713083107957
aF0.2457996402603677
aF0.036809621139920805
aF0.13791827044013638
aF0.002269194903882848
aF0.009612187740465301
aF6.59742402914189e-05
aF0.00012707002168827473
aF0.010174620114977027
aF1.9926912045590264e-05
aF4.47322829857436e-05
aF0.0007304258651511806
aF2.9888259296115933e-05
aF5.248211455574597e-05
aF0.00826870782660822
aF2.4874997524514654e-07
aF9.22426512883258e-07
aF2.39638332546538e-07
atp13
a(g1
(lp14
F0.24055621975648084
aF4.290985717117883
aF0.2150844560152226
aF4.029684384754764
aF0.1286900719313204
aF3.0459783784833734
aF0.013104481305950327
aF1.0261624851226945
aF0.002412861452680321
aF0.2571180705561808
aF3.138910907629898
aF0.00025091768989111664
aF0.04787542087611038
aF0.7038218870423926
aF0.0018320089594191606
aF0.15791102145740626
aF2.117001624908632
aF1.3595013768522481e-06
aF0.0006300592473558974
aF0.084142796732605
atp15
a(g1
(lp16
F1.52053506508781
aF4.454048662164003
aF1.4544809005752863
aF4.2204307161754375
aF1.1841624558464814
aF3.3276433632487463
aF0.45873732892944197
aF1.37985123451132
aF0.3821480004904076
aF0.9741286951135485
aF4.92923523778632
aF0.15296293083835683
aF0.9576433905754789
aF1.27378005287558
aF0.15426975311553381
aF0.2907029803358039
aF2.9170299968974165
aF0.012020856985798316
aF0.30791924498114454
aF0.06193034108289882
atp17
a(VCu
p18
(lp19
F1.0736148253762117
aF3.17082698683087
aF1.0170573481043892
aF2.973679777538043
aF0.7968514075156985
aF2.2208519008490732
aF0.2795812824652769
aF0.6335503188222543
aF0.05377311434106238
aF0.5292751259780418
aF2.830288276085494
aF0.021924265904890116
aF0.21551398928090565
aF0.5718441905134171
aF0.03668109113134553
aF0.22412332768081383
aF1.8301562548597505
aF0.006535834031022256
aF0.017847431292116127
aF0.02332485447090395
atp20
a(g18
(lp21
F1.0736148253762117
aF0.8994830459110245
aF1.0170573481043896
aF0.831387183529036
aF0.7968514075156987
aF0.5885110840498422
aF0.27958128246527714
aF0.15983085001593755
aF0.05377311434106233
aF0.5170330463213564
aF0.25125284319835345
aF0.021924265904890126
aF0.1515344601555754
aF0.00915985733249838
aF0.03668109113134549
aF0.24403768206215465
aF0.22771094751719442
aF0.00653583403102226
aF0.002079215403640551
aF9.696428831721316e-06
atp22
a.