(lp0
(VPt
p1
(lp2
F1.0678345289919602
aF2.3990833064869057
aF1.0446761788324024
aF2.2411919058256853
aF0.960234047885443
aF1.6601697320951276
aF0.7744304594555779
aF0.5553582182714267
aF0.004237414424298731
aF1.2662937065640614
aF0.6067988997360887
aF0.007247410170911999
aF0.5560163898102226
aF0.12000263066745859
aF0.00034925164349239925
aF0.5049135429223648
aF0.46410179554723235
aF0.0019453547802902973
aF0.044152612604645036
aF0.013831136021104477
atp3
a(g1
(lp4
F0.2099098766465068
aF2.2252746983211713
aF0.18978880427072992
aF2.1170152384791976
aF0.11932240472086773
aF1.6984424384095491
aF0.014644533229048143
aF0.7091882897996192
aF0.00043939459457555184
aF0.1529363521817155
aF0.8903574992466036
aF0.00016651797820857364
aF0.041240320041957074
aF0.22846968773930465
aF0.00016756717458893023
aF0.08355826235413777
aF0.5871841997086975
aF3.4563254093078863e-06
aF0.0011795128331933795
aF0.048168612830833
atp5
a(g1
(lp6
F0.6671922829284664
aF2.4291217213643024
aF0.6250688200245736
aF2.319135550849148
aF0.4628921078655167
aF1.8979522724289186
aF0.11959231720379761
aF0.9035786896943185
aF0.005723664208993122
aF0.6099573105686829
aF0.763627164045175
aF0.005495567110702531
aF0.18534709922779433
aF0.42822788225264796
aF0.0007599889550412897
aF0.38605736308708055
aF0.35055069252904153
aF0.0006458932644303364
aF0.026820680667652898
aF0.10163088986384049
atp7
a(g1
(lp8
F0.21101807040819495
aF2.346790963324507
aF0.192630714268334
aF2.2469225081099413
aF0.12642920373536345
aF1.8564818937720045
aF0.018363447008469085
aF0.8908329749917114
aF0.0001206524800621271
aF0.2227324455057823
aF0.8048492590394705
aF4.0774787944618555e-05
aF0.05018765633219422
aF0.3823262647956234
aF5.0374914642724524e-05
aF0.13640389171331652
aF0.40909417922567853
aF6.571070911925051e-07
aF0.0019324598019102492
aF0.08581657850749136
atp9
a(g1
(lp10
F1.1931558648283245
aF1.5172337671527034
aF1.1599195822963249
aF1.3963823996983828
aF1.0236902470080849
aF0.9695222328513861
aF0.6374298746943828
aF0.26063432258456415
aF8.46983622486547e-05
aF0.4247780678416252
aF0.36444143372565757
aF0.03230199272534925
aF0.33072368731174645
aF0.029070912456359416
aF1.514957028826362e-12
aF0.1357286117171143
aF0.2983051978201241
aF0.03204922435271328
aF0.047546024523748634
aF0.0005541593376358077
atp11
a(g1
(lp12
F0.823930553387908
aF2.675564873766751
aF0.7590510838301533
aF2.5335032632519376
aF0.5220850324930091
aF2.0096206959696428
aF0.10308860035429226
aF0.9478083385908359
aF0.004674479443726138
aF0.9191164323634043
aF0.6150668448393725
aF0.003634138821822414
aF0.11189480129604454
aF0.4059706371313523
aF0.0008461457176054627
aF0.7714562192405898
aF0.43178208239571414
aF0.0003089393881641281
aF0.02118441489068332
aF0.20124065348640244
atp13
a(g1
(lp14
F0.7323914957832804
aF2.029418025380571
aF0.6789646285199592
aF1.9069883929450278
aF0.4819550153796227
aF1.4528248726715558
aF0.11221108378786968
aF0.5426816021396191
aF0.00536484039519003
aF0.5928620959683254
aF0.5124959994329803
aF0.004740741843072872
aF0.07635177105805287
aF0.0914054346495121
aF0.0008140874000134076
aF0.508827946427184
aF0.40863435535234754
aF0.0004941884465124732
aF0.021370711948564197
aF0.018302099280607886
atp15
a(g1
(lp16
F0.9731838950217919
aF2.7028665744997724
aF0.934943905753736
aF2.5630754802612787
aF0.792559150470119
aF2.0416264703477687
aF0.46761674397818953
aF0.9537435888934371
aF0.004376889562897824
aF1.272746967119418
aF0.6421886515631976
aF0.004181805241307606
aF0.5511124176208585
aF0.41056437092786086
aF0.0006238542552473833
aF0.8853119493022436
aF0.4334170733361159
aF0.0005070181976069165
aF0.22826522794822612
aF0.26256660305679735
atp17
a(VCu
p18
(lp19
F0.10117549699013667
aF3.257278177427738
aF0.08862476831385027
aF3.114868782521543
aF0.04792585164973556
aF2.5793312256538887
aF0.0027627015652227356
aF1.4408537440685807
aF0.0
aF0.06402863110925654
aF1.639215144249992
aF0.0
aF0.012210826118148957
aF0.9719479318866591
aF0.0
aF0.041461005322022675
aF0.7150198719225275
aF0.0
aF0.0002882547334020641
aF0.14188424658370238
atp20
a(g18
(lp21
F0.10117549699013652
aF2.621338390568698
aF0.08862476831385013
aF2.470174935274673
aF0.04792585164973548
aF1.9098359839041414
aF0.00276270156522273
aF0.8065233156430514
aF0.0
aF0.0854310673121101
aF0.8224877714068316
aF0.0
aF0.003991439763109049
aF0.2484979128624648
aF0.0
aF0.07706399178693661
aF0.47656287552933907
aF0.0
aF2.7220226122587526e-05
aF0.049540409844582134
atp22
a.