(lp0
(VPt
p1
(lp2
F1.0915509310479425
aF2.8781569198985184
aF1.0251278733280882
aF2.7067401381788945
aF0.7725736458177414
aF2.0510433622738304
aF0.2389628872175474
aF0.6406897232342331
aF0.017898950342303464
aF1.0993094355201767
aF1.4003232526050042
aF0.01916090259735228
aF0.2569738476384273
aF0.2805791101098474
aF0.0024035324974413805
aF0.7117260789634458
aF1.0323202856444045
aF0.0029961442757577713
aF0.028314027825976553
aF0.03432807296298013
atp3
a(g1
(lp4
F0.6353113635251831
aF0.8271479769379202
aF0.5906273095763137
aF0.747603683189674
aF0.42211941888646065
aF0.46958118023622875
aF0.09139227514080665
aF0.058395984301971446
aF0.005431999714239044
aF0.04275206909330393
aF0.05059152399418526
aF0.004826968284833202
aF0.014112327336671532
aF0.007053844791547622
aF0.0008080769408919738
aF0.019537079388153973
aF0.035696666294794864
aF0.0005034631899171703
aF0.000414402827855454
aF4.974485608136658e-05
atp5
a(g1
(lp6
F0.7756369263293239
aF3.129080156390982
aF0.7218551437300793
aF2.9857120013820952
aF0.5258536646928003
aF2.446665648655885
aF0.15495543909102022
aF1.3091024403662408
aF0.0043240458369317065
aF0.97349339036101
aF0.9553083752949084
aF0.002091918701043569
aF0.4178779182027958
aF0.973494330218757
aF0.0013762205430425598
aF0.5970472745805099
aF0.35200548572099644
aF8.422530154058043e-05
aF0.09511805705935289
aF0.4446986071831429
atp7
a(g1
(lp8
F0.9640855197387423
aF2.5994186605431353
aF0.9477348314012973
aF2.4196521451224875
aF0.8859664162556732
aF1.7532402148368196
aF0.7195447258654968
aF0.46291201535016613
aF0.004177445654408347
aF0.878562914541397
aF0.9728398344754661
aF0.0026969607924931093
aF0.5799127815259574
aF0.24115565693114285
aF0.0009599820029512022
aF0.2989733880511959
aF0.610289029376249
aF0.00017169452006777074
aF0.1469843317137599
aF0.01241031741900336
atp9
a(g1
(lp10
F0.018749439367375116
aF1.5023451948665647
aF0.01612141607958208
aF1.384319900589417
aF0.007998050129280586
aF0.9519993285194343
aF0.00030902668898178537
aF0.18433175821049588
aF0.0
aF9.560414036409432e-05
aF0.09222974772013613
aF0.0
aF4.929314922838195e-05
aF0.03748637693303504
aF0.0
aF2.95716948733241e-05
aF0.03731587675500986
aF0.0
aF2.289918367338874e-06
aF0.0015380571647736047
atp11
a(g1
(lp12
F0.35341106605418077
aF2.273489994242471
aF0.31923501788983105
aF2.0817162393107576
aF0.19979953598817812
aF1.3943421175814634
aF0.023968107429016398
aF0.2584017883190041
aF0.0004575456406684583
aF0.28872982143254955
aF0.48558337059377005
aF0.00016588815689082246
aF0.0215643802799608
aF0.09362253943815943
aF0.00018113537241005355
aF0.2440910517060549
aF0.31081206252875626
aF3.1580164546542354e-06
aF0.00022203561126431855
aF0.0019687873996458902
atp13
a(g1
(lp14
F0.8168742731729443
aF2.7383762353073493
aF0.7579571087507417
aF2.604193333118048
aF0.5372557166782688
aF2.104629931340989
aF0.11467760638324684
aF1.1066132791054368
aF0.005247078896865885
aF0.7831145510055038
aF1.287468387930882
aF0.002811531706354676
aF0.2229377436810445
aF0.45347080457953687
aF0.001458596507302417
aF0.4913161366640407
aF0.7296217657358911
aF0.0001216289424494393
aF0.048944222892223645
aF0.04434040743767398
atp15
a(g1
(lp16
F0.10403169079174338
aF1.4521950547140774
aF0.09230002834916388
aF1.3301502188159244
aF0.053092188504791686
aF0.8917414101086099
aF0.0042200164192238415
aF0.1605640431009297
aF3.6487985399127996e-05
aF0.037541230652220835
aF0.07611034216311119
aF1.091279491494286e-05
aF0.0015326446338912992
aF0.025503688953673363
aF1.664343899400321e-05
aF0.03420239863998973
aF0.03271956207218392
aF1.3316420506100558e-07
aF1.7813437758010797e-05
aF0.0004906220825851148
atp17
a(VCu
p18
(lp19
F0.17803929443504557
aF1.3824356462149467
aF0.15667079082586813
aF1.2702628538786191
aF0.08657803901410054
aF0.8638248313926852
aF0.005562113382427188
aF0.1596143922424684
aF0.0
aF0.044426026199755594
aF0.12451976797300998
aF0.0
aF0.007888262611541871
aF0.017770553299953227
aF0.0
aF0.028039458631889055
aF0.09736737721489602
aF0.0
aF6.559560649343854e-05
aF0.0008382407825754451
atp20
a(g18
(lp21
F0.17803929443504565
aF3.377215563812486
aF0.1566707908258682
aF3.2006958752264754
aF0.08657803901410059
aF2.5408338055605078
aF0.005562113382427193
aF1.1884156919928706
aF0.0
aF0.07008420349922019
aF1.8280418463166623
aF0.0
aF0.016278781898879394
aF0.8389478090076223
aF0.0
aF0.04234850683139523
aF0.905425272050499
aF0.0
aF0.0006200636312438167
aF0.09784165086783561
atp22
a.