(lp0
(VPt
p1
(lp2
F0.18999878420690688
aF3.2451556349645205
aF0.17301876595352803
aF3.0539032173888123
aF0.11218060296802848
aF2.325050335945068
aF0.015231439577291915
aF0.7518620452821032
aF3.561084429432991e-05
aF0.04524112066091029
aF1.0437281443248416
aF1.1224023627349624e-05
aF0.02160317741666872
aF0.47817681030769266
aF1.5653850517599336e-05
aF0.015039925966817405
aF0.46281629072872427
aF1.5448502571932222e-07
aF0.0010009061793871386
aF0.056517430978496395
atp3
a(g1
(lp4
F0.685557384253727
aF1.9292604565805116
aF0.6278653039444081
aF1.8119777820519958
aF0.4208129172311155
aF1.388137046949431
aF0.07566094400861777
aF0.5926567472287058
aF0.00371960015117889
aF0.2291182153485452
aF0.21392454295693744
aF0.00235170987705106
aF0.11286672672588502
aF0.08607483822133961
aF0.0008745518526499008
aF0.0908489742771704
aF0.12527225058524555
aF0.00014226639431463408
aF0.009119794867970973
aF0.03625707438340257
atp5
a(g1
(lp6
F0.08782636384463699
aF3.163859204411846
aF0.07741753158842901
aF2.949302977801425
aF0.0432003127861042
aF2.1514433444989574
aF0.002981881979130005
aF0.5904660236284915
aF1.2657564679383472e-05
aF0.018664529257068005
aF0.9854033435913646
aF3.601172857013291e-06
aF0.0051181249324827845
aF0.32037780299732327
aF5.972279992598085e-06
aF0.009423083783339
aF0.5119166588745125
aF3.9130501273319504e-08
aF8.418929041546722e-05
aF0.023452194903128176
atp7
a(g1
(lp8
F0.9617370312818695
aF0.6953828690667848
aF0.9024073245722771
aF0.642780455461875
aF0.6794329821760985
aF0.45381031865591714
aF0.22190765360364875
aF0.11673687981615426
aF0.005105212859517955
aF0.05381672810226152
aF0.04732520667992319
aF0.004852468772937375
aF0.029515354608074883
aF0.003786969016118721
aF0.0006879877531150132
aF0.025243338665184592
aF0.04144482345387835
aF0.0005615342963032218
aF0.007147911901933836
aF0.00013492835941408634
atp9
a(g1
(lp10
F0.49647966375306524
aF3.242272253648852
aF0.47228815197239005
aF3.0277321450911225
aF0.3758651752607901
aF2.2348106823030047
aF0.134746754357555
aF0.7026301789645828
aF0.0005479621645636622
aF0.20245667689529093
aF1.0693138336890446
aF0.00023228381168264654
aF0.1269332443337389
aF0.42591985149463235
aF0.00018980501242190666
aF0.052682957031664375
aF0.5217590787566683
aF6.128880632904519e-06
aF0.009357278728945456
aF0.046871907915569014
atp11
a(g1
(lp12
F0.2831094309619721
aF1.9752285590689251
aF0.25852016165512537
aF1.8227581645680857
aF0.17052573082501202
aF1.2703356404561919
aF0.02679789828225339
aF0.29598005958465523
aF0.0007222484785526709
aF0.03517735456802706
aF0.5489572859317456
aF0.00030067032605310667
aF0.01927469348406933
aF0.12692333768430056
aF0.00025422780940549244
aF0.009749277438255582
aF0.32019673606966326
aF7.635522950511237e-06
aF0.0009059702162842893
aF0.0029078689469371937
atp13
a(g1
(lp14
F0.4094664130983699
aF3.297230579810047
aF0.3830292120867741
aF3.075239378967988
aF0.2825505132147905
aF2.2502650005639375
aF0.07357268734872781
aF0.6558073385533572
aF0.0009535091730149688
aF0.2989248292048376
aF0.9586655834187513
aF0.0004345198822737093
aF0.1040052416840306
aF0.31472349691794194
aF0.00030910343415952823
aF0.12683608622642475
aF0.5162687310217117
aF1.3330392629958039e-05
aF0.002711882147192669
aF0.033883651821897086
atp15
a(g1
(lp16
F0.5262377807780905
aF2.868912624012306
aF0.48356839700659393
aF2.6775105278461404
aF0.3277101513302916
aF1.9788357693056609
aF0.056221915143403314
aF0.6872008728160369
aF0.003935130310472518
aF0.2733062615718638
aF0.6027325644109899
aF0.002745459546076459
aF0.10320875571500364
aF0.23873602440524305
aF0.0008069531765678257
aF0.12077040073179021
aF0.33233752025342445
aF0.00019131927132268311
aF0.005269568531489124
aF0.046513862118239324
atp17
a(VCu
p18
(lp19
F0.10117549699013642
aF1.3067282530675814
aF0.08862476831385004
aF1.2151016382675195
aF0.047925851649735424
aF0.8790798358675085
aF0.002762701565222725
aF0.2500372994973095
aF0.0
aF0.01839184541553441
aF0.08380873854682074
aF0.0
aF0.0036955426695037983
aF0.015103462351080328
aF0.0
aF0.011260909390730068
aF0.05604393641737758
aF0.0
aF4.5552296311064925e-05
aF0.0006115428034850125
atp20
a(g18
(lp21
F0.10117549699013667
aF2.3336845991110544
aF0.08862476831385027
aF2.1630132105120046
aF0.04792585164973556
aF1.533198549924721
aF0.0027627015652227356
aF0.35708387480331755
aF0.0
aF0.024075467744311553
aF0.6142087202692151
aF0.0
aF0.005764882088316283
aF0.1264945960872637
aF0.0
aF0.013124240262049343
aF0.3941903127609771
aF0.0
aF8.490702125225896e-05
aF0.0050135907682094735
atp22
a.