(lp0
(VPt
p1
(lp2
F1.0347226611249747
aF3.6880649047729728
aF1.012296825871087
aF3.4989503928280734
aF0.9252514363021687
aF2.772049031846416
aF0.700920466099804
aF1.1302945415775467
aF0.004373191211765704
aF1.328941958166909
aF1.5043214576963595
aF0.010151723261012295
aF1.3533151043186946
aF0.9101244949184059
aF0.00011935843487074192
aF0.5760065450136018
aF0.554141490388035
aF0.0034659183673839
aF0.7377037042650259
aF0.18190713271506015
atp3
a(g1
(lp4
F0.9379285193858067
aF1.546504731741944
aF0.8947634412757006
aF1.4508715940125159
aF0.7199732441253538
aF1.097185215710022
aF0.2698358119081199
aF0.3789675814280918
aF0.007306482184117218
aF0.31133098438372403
aF0.11785102602259417
aF0.0154582467915954
aF0.21253696735361657
aF0.02716533210498183
aF0.0002415715945755451
aF0.1004000256976831
aF0.08260858182983005
aF0.004840090627269604
aF0.03152622307500814
aF0.00845849608814294
atp5
a(g1
(lp6
F0.9650212398245606
aF3.1672787455674047
aF0.931619213826837
aF2.9552849028168398
aF0.7981695646310392
aF2.1623153288507226
aF0.4445973674131078
aF0.598106818670704
aF0.006026126765190764
aF1.413090039318415
aF1.2881195662156912
aF0.011775581381284672
aF0.3603920656831434
aF0.3292691945262468
aF0.00023375882897913816
aF0.9717053396816471
aF0.7947515315178766
aF0.003408351705539422
aF0.05041431390804331
aF0.02414414341571578
atp7
a(g1
(lp8
F0.46450951915984795
aF0.7844633375374732
aF0.42708048446330193
aF0.7331990264582612
aF0.2919652419794524
aF0.5441350829838956
aF0.05799436001578532
aF0.17094376349548845
aF0.0017895302061925924
aF0.20060489650331811
aF0.028850380838254586
aF0.0009338891514022693
aF0.04663400372134122
aF0.006966761904749009
aF0.0005077063246630383
aF0.114831845801428
aF0.018940071583230644
aF3.765631008659405e-05
aF0.0006922375674807571
aF0.00041653818679336207
atp9
a(g1
(lp10
F0.726820911290025
aF3.684061657410464
aF0.683043532808589
aF3.4740966100359025
aF0.5137922308318982
aF2.6797160614770124
aF0.14481084160357546
aF1.002264409552078
aF0.0062483848343741055
aF1.4579518092033419
aF1.6050171027193705
aF0.006741127609842596
aF0.2447394409506447
aF0.7192394974374603
aF0.0006954926225739796
aF1.1098461135314501
aF0.7096045388077773
aF0.0009422185338668305
aF0.015351677238892733
aF0.07150154577867168
atp11
a(g1
(lp12
F0.6887556946250013
aF2.53962154995204
aF0.6402416976911223
aF2.3530029395040364
aF0.4605116073288571
aF1.6649487914174808
aF0.11704525796206747
aF0.38398706825599477
aF0.003861969610248337
aF0.7559565390849805
aF0.8887576284388138
aF0.0027668816539236176
aF0.11628477237748122
aF0.19809057035545202
aF0.0007711427222665138
aF0.5385423845789443
aF0.527549012767322
aF0.00020355286199771186
aF0.0020136071030914748
aF0.004324520493386938
atp13
a(g1
(lp14
F0.45084307610240004
aF3.189101660076253
aF0.41338771746040553
aF2.9659525607313246
aF0.27951467462272617
aF2.1367630450989297
aF0.05383758809661781
aF0.5341849345113022
aF0.00023529299549588067
aF0.598864681255342
aF1.1326807594876038
aF7.778120110852962e-05
aF0.09868759614373035
aF0.2864539205546307
aF9.988483846943124e-05
aF0.41281605762420087
aF0.6611171543823002
aF1.1929066928954159e-06
aF0.0015053138385762203
aF0.012279552990364198
atp15
a(g1
(lp16
F0.5682927153701381
aF2.9516017448459317
aF0.520949669034652
aF2.764765422122679
aF0.3488643089121843
aF2.064590142041783
aF0.05714647490455572
aF0.6335915582337881
aF0.0019283196965556937
aF0.5483073481665308
aF0.9088763043537841
aF0.0010137412074368065
aF0.08063488595311423
aF0.2651082069597862
aF0.0005429516692329376
aF0.3892322897529926
aF0.544606869826509
aF4.147185153435756e-05
aF0.002256376443972826
aF0.036570426077329805
atp17
a(VCu
p18
(lp19
F0.10117549699013642
aF3.95294723289622
aF0.08862476831385004
aF3.7637151773122057
aF0.047925851649735424
aF3.0421979977598723
aF0.002762701565222725
aF1.4743755096702733
aF0.0
aF0.09106984611188264
aF2.7803912085588287
aF0.0
aF0.01294194237171608
aF1.2537964610032934
aF0.0
aF0.0638825611804599
aF1.460665537358854
aF0.0
aF8.387123537079905e-05
aF0.19594689940608642
atp20
a(g18
(lp21
F0.10117549699013667
aF1.883947103986534
aF0.08862476831385027
aF1.7596674051194892
aF0.04792585164973556
aF1.295844310973807
aF0.0027627015652227356
aF0.3718126583333585
aF0.0
aF0.0507861693139664
aF0.41876496577659483
aF0.0
aF0.006578581725527946
aF0.11118391095344868
aF0.0
aF0.036202929033296465
aF0.2444330228555415
aF0.0
aF4.463008100841969e-05
aF0.008646601245206595
atp22
a.