(lp0
(VPt
p1
(lp2
F0.0
aF7.12442749704115
aF0.0
aF6.733181588039035
aF0.0
aF5.240268262239714
aF0.0
aF1.966312997373356
aF0.0
aF0.0
aF10.20776970037469
aF0.0
aF0.0
aF3.090970787417603
aF0.0
aF0.0
aF5.875946327378224
aF0.0
aF0.0
aF0.3477048707560429
atp3
a(g1
(lp4
F0.0
aF7.941218997757113
aF0.0
aF7.512576547078841
aF0.0
aF5.873816985663452
aF0.0
aF2.260610555279703
aF0.0
aF0.0
aF13.544305231942772
aF0.0
aF0.0
aF4.1222573109970835
aF0.0
aF0.0
aF7.74464001803665
aF0.0
aF0.0
aF0.4534755240152751
atp5
a(g1
(lp6
F0.0
aF7.653014249011593
aF0.0
aF7.24159194109274
aF0.0
aF5.6830419122881874
aF0.0
aF2.338199761533001
aF0.0
aF0.0
aF11.9986369337249
aF0.0
aF0.0
aF4.0243152052959
aF0.0
aF0.0
aF6.608796174488008
aF0.0
aF0.0
aF0.4918956805585065
atp7
a(g1
(lp8
F0.0
aF7.21176025982047
aF0.0
aF6.824103311582423
aF0.0
aF5.35213982279992
aF0.0
aF2.161108338926714
aF0.0
aF0.0
aF10.349997452783725
aF0.0
aF0.0
aF3.583782585489513
aF0.0
aF0.0
aF5.48515615574892
aF0.0
aF0.0
aF0.3879504009457328
atp9
a(g1
(lp10
F0.0
aF7.807819614954427
aF0.0
aF7.402052277692653
aF0.0
aF5.860072497291403
aF0.0
aF2.47394154240127
aF0.0
aF0.0
aF13.222433364516197
aF0.0
aF0.0
aF4.480555632309313
aF0.0
aF0.0
aF7.322075574337345
aF0.0
aF0.0
aF0.5404500163964296
atp11
a(g1
(lp12
F0.0
aF9.145006854586248
aF0.0
aF8.709101092134143
aF0.0
aF7.029241495463802
aF0.0
aF3.1629201611396534
aF0.0
aF0.0
aF20.099025870342267
aF0.0
aF0.0
aF7.209769993705116
aF0.0
aF0.0
aF10.803231486775116
aF0.0
aF0.0
aF0.9257232504344185
atp13
a(g1
(lp14
F0.0726721295236112
aF8.526818601694352
aF0.06423670929064314
aF8.070932376378876
aF0.036229771574688596
aF6.33551268142234
aF0.002538752405133268
aF2.5310401644978717
aF0.0
aF0.19450552812166252
aF15.405958058709928
aF0.0
aF0.03011558408198678
aF5.171155989944077
aF0.0
aF0.13898840626551068
aF8.634717202681975
aF0.0
aF0.0006355847686976766
aF0.6815702596121879
atp15
a(g1
(lp16
F0.00014082684178499025
aF7.825001393333484
aF0.00011771429722336208
aF7.4216673479957
aF5.122153939655374e-05
aF5.873094377487623
aF1.0766910238954406e-06
aF2.360966768935728
aF0.0
aF0.00021808186113397764
aF13.064769273225252
aF0.0
aF2.030069068357574e-05
aF4.478308800323553
aF0.0
aF0.00017124272091808852
aF7.188241372266686
aF0.0
aF9.976471811884821e-08
aF0.5887504998362642
atp17
a(g1
(lp18
F0.0
aF8.124496563985826
aF0.0
aF7.673985704843913
aF0.0
aF5.951980963972573
aF0.0
aF2.175149823025741
aF0.0
aF0.0
aF13.917550125533632
aF0.0
aF0.0
aF4.007441810816652
aF0.0
aF0.0
aF8.256173239356066
aF0.0
aF0.0
aF0.4183513347783148
atp19
a(g1
(lp20
F0.0028772467796570563
aF9.551655797566692
aF0.002428482228181268
aF9.083614230786965
aF0.0011053967800335614
aF7.2765539373795285
aF2.8638182832969673e-05
aF3.1291656484094528
aF0.0
aF0.004384305424923824
aF22.016618694193543
aF0.0
aF0.0004866080360411953
aF7.2904559299333425
aF0.0
aF0.003315831977519374
aF12.215652623682685
aF0.0
aF3.1095923297244066e-06
aF0.8548817445191469
atp21
a(g1
(lp22
F0.1829928984564158
aF8.936519463311836
aF0.16674033228549623
aF8.441703775889907
aF0.10828051265532561
aF6.554217130639872
aF0.01459812724425144
aF2.433137298304786
aF0.0
aF0.6130170742449144
aF16.941721347921302
aF0.0
aF0.14559522167659805
aF5.103775827685219
aF0.0
aF0.37143277432929683
aF9.939387458490701
aF0.0
aF0.004309837535862147
aF0.5987717419796355
atp23
a(g1
(lp24
F0.021529274090480853
aF8.281348492051348
aF0.018550866046916758
aF7.855090567411599
aF0.00929426244096901
aF6.230609034335889
aF0.0003758767706894679
aF2.656216089452535
aF0.0
aF0.04638715977928297
aF15.089972406657694
aF0.0
aF0.004923670828221696
aF5.2174649607188694
aF0.0
aF0.03535665585852127
aF8.137872667437396
aF0.0
aF3.038721096963005e-05
aF0.6056301736191985
atp25
a(g1
(lp26
F0.0
aF7.91347926442194
aF0.0
aF7.494047857905856
aF0.0
aF5.894807614752967
aF0.0
aF2.389242722032792
aF0.0
aF0.0
aF13.308464919373145
aF0.0
aF0.0
aF4.323741992032502
aF0.0
aF0.0
aF7.5992434851774435
aF0.0
aF0.0
aF0.5008608115194111
atp27
a(g1
(lp28
F0.0
aF9.050939899625428
aF0.0
aF8.605427876831447
aF0.0
aF6.889358878893632
aF0.0
aF2.9927893305044213
aF0.0
aF0.0
aF19.20608064650933
aF0.0
aF0.0
aF6.670855561869969
aF0.0
aF0.0
aF10.51397348200996
aF0.0
aF0.0
aF0.8285013414406772
atp29
a(g1
(lp30
F0.05878459511283042
aF8.63575379785383
aF0.05167742547836939
aF8.174867298642397
aF0.028414839204871735
aF6.43075782129647
aF0.0017695637018609804
aF2.699844920195484
aF0.0
aF0.1415000964173873
aF16.1948268871226
aF0.0
aF0.021960480354089228
aF5.408663137164361
aF0.0
aF0.09914218432001407
aF8.844400447402691
aF0.0
aF0.0003873408559352605
aF0.5908517123068912
atp31
a(g1
(lp32
F0.0
aF8.296469596917504
aF0.0
aF7.872658263001174
aF0.0
aF6.242371153232317
aF0.0
aF2.542528265085609
aF0.0
aF0.0
aF15.145411222299458
aF0.0
aF0.0
aF5.218157836237165
aF0.0
aF0.0
aF8.313792916096151
aF0.0
aF0.0
aF0.6691625867448647
atp33
a(g1
(lp34
F0.0
aF7.196494363769644
aF0.0
aF6.798734034168394
aF0.0
aF5.2884491051788665
aF0.0
aF2.0127670205668378
aF0.0
aF0.0
aF10.23688248284037
aF0.0
aF0.0
aF3.345114361101912
aF0.0
aF0.0
aF5.697637030167256
aF0.0
aF0.0
aF0.3668434871930255
atp35
a(g1
(lp36
F0.0
aF7.9427288656157815
aF0.0
aF7.507397462164166
aF0.0
aF5.850949327302936
aF0.0
aF2.248894259906767
aF0.0
aF0.0
aF13.283066200275787
aF0.0
aF0.0
aF4.175742411294199
aF0.0
aF0.0
aF7.537473584470634
aF0.0
aF0.0
aF0.48021261121288594
atp37
a(g1
(lp38
F0.0
aF7.865184168295373
aF0.0
aF7.440718994883039
aF0.0
aF5.825352189585493
aF0.0
aF2.2737285942733076
aF0.0
aF0.0
aF12.947162428260276
aF0.0
aF0.0
aF4.209473863410276
aF0.0
aF0.0
aF7.233524981991735
aF0.0
aF0.0
aF0.4973697892261508
atp39
a(g1
(lp40
F0.0
aF7.592763121434304
aF0.0
aF7.184055896277034
aF0.0
aF5.623568622684243
aF0.0
aF2.1693720850933267
aF0.0
aF0.0
aF11.848178420438378
aF0.0
aF0.0
aF3.9120337505765277
aF0.0
aF0.0
aF6.561311646653743
aF0.0
aF0.0
aF0.4686498266929367
atp41
a(g1
(lp42
F0.0
aF9.270749091577244
aF0.0
aF8.872635018725719
aF0.0
aF7.31860864918902
aF0.0
aF3.5358294797397187
aF0.0
aF0.0
aF18.45688718813938
aF0.0
aF0.0
aF8.672268866817637
aF0.0
aF0.0
aF9.659035956535313
aF0.0
aF0.0
aF2.1715882177406836
atp43
a(g1
(lp44
F0.04504574753337939
aF9.478170277218682
aF0.03935480048656539
aF9.032925412965824
aF0.02102520763381969
aF7.3082090498940815
aF0.0011456007387164032
aF3.2603204237725096
aF0.0
aF0.07874300616170174
aF18.46445516118481
aF0.0
aF0.011317046145112811
aF7.508327329312921
aF0.0
aF0.05787522032684981
aF10.207519590966646
aF0.0
aF0.0002618352405158197
aF1.7155216940384133
atp45
a(g1
(lp46
F0.09599286667420995
aF8.983763208475029
aF0.08552976640002231
aF8.5615264730333
aF0.05005795188721975
aF6.9192281571962395
aF0.004165185159283864
aF3.0116430685658986
aF0.0
aF0.2251137168915803
aF15.754466009805254
aF0.0
aF0.03529474426166844
aF6.682740129478619
aF0.0
aF0.16038819016478414
aF8.265555428192854
aF0.0
aF0.0009550465380812715
aF1.3919410239892556
atp47
a(g1
(lp48
F0.0
aF7.835938031443227
aF0.0
aF7.441894995498437
aF0.0
aF5.920110401643315
aF0.0
aF2.3974852076506683
aF0.0
aF0.0
aF11.744060461037
aF0.0
aF0.0
aF4.1912645256791485
aF0.0
aF0.0
aF6.5834246614925025
aF0.0
aF0.0
aF0.7512806583640289
atp49
a(g1
(lp50
F0.0
aF10.315151174066994
aF0.0
aF9.876395502737338
aF0.0
aF8.16311358686385
aF0.0
aF3.990799145647748
aF0.0
aF0.0
aF23.207761558893655
aF0.0
aF0.0
aF10.939816960355381
aF0.0
aF0.0
aF12.264457513585256
aF0.0
aF0.0
aF2.8077161375460364
atp51
a(g1
(lp52
F0.22438772044185995
aF10.394160723426621
aF0.20617560700125617
aF9.904943442579208
aF0.1391887387260462
aF8.002932527328056
aF0.022469583658645882
aF3.503495318812667
aF0.0
aF0.5979162773069806
aF22.15941403233023
aF0.0
aF0.1557702776695783
aF8.822166019303662
aF0.0
aF0.37907527750937686
aF12.164027048078005
aF0.0
aF0.012546336869249615
aF1.8357618372685194
atp53
a(g1
(lp54
F0.3278122778808293
aF9.816560242122915
aF0.30648923843941844
aF9.363870885743811
aF0.2243026926349663
aF7.601469707984743
aF0.05266528329414731
aF3.399617170932262
aF0.0
aF1.0349126798437296
aF18.828064429141932
aF0.0
aF0.36724383107643993
aF8.559341303008582
aF0.0
aF0.5783079662728908
aF9.665575040770788
aF0.0
aF0.033720238925226256
aF1.8592027630213595
atp55
a(g1
(lp56
F0.005314516598659459
aF8.425060306320068
aF0.004505306226280678
aF7.992509411611899
aF0.0020928556458146307
aF6.328659614185972
aF5.958811185362573e-05
aF2.542682425733368
aF0.0
aF0.00675927261695906
aF13.8520546508821
aF0.0
aF0.0007731718489714716
aF4.782152251144852
aF0.0
aF0.004967778147143139
aF7.818021310929708
aF0.0
aF3.779214624307481e-06
aF0.7822277893404408
atp57
a(g1
(lp58
F0.0
aF10.350895268978917
aF0.0
aF9.90552755742297
aF0.0
aF8.171015891293875
aF0.0
aF3.982749031681195
aF0.0
aF0.0
aF22.85615206891121
aF0.0
aF0.0
aF11.051061159045162
aF0.0
aF0.0
aF11.825410382104824
aF0.0
aF0.0
aF2.7265006606681763
atp59
a(g1
(lp60
F0.32901288139699825
aF10.30843046263213
aF0.30745995919924246
aF9.803477511423255
aF0.22461591371193348
aF7.842507259761453
aF0.05257375843676875
aF3.250131122921838
aF0.0005915648824168243
aF0.8271578354976968
aF21.632951323319546
aF1.5545858716990935e-05
aF0.30244752224486904
aF7.812315118332331
aF0.0005472752260544272
aF0.48262975969256655
aF12.321192580465928
aF2.6100877964928923e-10
aF0.03559604673571491
aF1.5018657839269576
atp61
a(g1
(lp62
F0.34586721135917264
aF10.053150574836513
aF0.32423252787326723
aF9.593131619021367
aF0.24024091456604396
aF7.79855775535677
aF0.059740314100979755
aF3.521194576809329
aF0.0
aF0.9646560476712565
aF20.130762355224483
aF0.0
aF0.4110639312165158
aF8.985505701669684
aF0.0
aF0.5008905941641705
aF10.771059425028902
aF0.0
aF0.04369691977844447
aF2.2376309692502243
atp63
a(g1
(lp64
F0.0006482431181878777
aF8.690891765358778
aF0.0005435837733344694
aF8.25482929457935
aF0.00024005875204266607
aF6.5774053319897465
aF5.4049354037119646e-06
aF2.7575336229091216
aF0.0
aF0.0007572879981981564
aF14.693929055671099
aF0.0
aF8.305403525980278e-05
aF5.53954156868039
aF0.0
aF0.0005638938221139917
aF8.132603888781777
aF0.0
aF3.7799024101342747e-07
aF1.055453871991436
atp65
a(g1
(lp66
F0.0
aF9.532001777542044
aF0.0
aF9.115335706211782
aF0.0
aF7.4953038140294765
aF0.0
aF3.5953300167163667
aF0.0
aF0.0
aF18.919466488419655
aF0.0
aF0.0
aF9.217391013137163
aF0.0
aF0.0
aF9.540742664479295
aF0.0
aF0.0
aF2.141651375393669
atp67
a(g1
(lp68
F0.06425481238320996
aF9.625337856822355
aF0.05661278684046568
aF9.167395400117273
aF0.03145345367835881
aF7.386630341189342
aF0.002055514055189889
aF3.148624169196078
aF0.0
aF0.10332324821764464
aF18.700389665676216
aF0.0
aF0.020613677930495355
aF7.233798383299934
aF0.0
aF0.06545075129339394
aF10.341980642747306
aF0.0
aF0.00047866182847502883
aF1.4813772641004797
atp69
a(g1
(lp70
F0.05499683446260099
aF9.51841032814611
aF0.04826938011054489
aF9.087077729626385
aF0.02634217203451919
aF7.4051961591883
aF0.001584237312436104
aF3.359427086134201
aF0.0
aF0.10138334398674895
aF17.972916877318976
aF0.0
aF0.017954695993688985
aF8.248987115671945
aF0.0
aF0.06656745153666827
aF9.117760117801827
aF0.0
aF0.00031603422091075836
aF1.795091269373335
atp71
a(g1
(lp72
F0.0
aF8.420953028261023
aF0.0
aF8.00787357122436
aF0.0
aF6.413397511411938
aF0.0
aF2.72459290915447
aF0.0
aF0.0
aF13.579789015017786
aF0.0
aF0.0
aF5.484706566514562
aF0.0
aF0.0
aF7.222156817546088
aF0.0
aF0.0
aF1.0641682178314222
atp73
a(g1
(lp74
F0.0
aF8.356125156367069
aF0.0
aF7.932552372689593
aF0.0
aF6.300114714793037
aF0.0
aF2.5690879681190153
aF0.0
aF0.0
aF13.30773291237451
aF0.0
aF0.0
aF5.061017293263569
aF0.0
aF0.0
aF7.223111071045095
aF0.0
aF0.0
aF0.8558088243489301
atp75
a(g1
(lp76
F0.0
aF8.387068073138584
aF0.0
aF7.947225405608047
aF0.0
aF6.252595501740315
aF0.0
aF2.3911382834326242
aF0.0
aF0.0
aF13.31346263891352
aF0.0
aF0.0
aF4.457116188280048
aF0.0
aF0.0
aF7.532298047443508
aF0.0
aF0.0
aF0.6390607760191569
atp77
a(g1
(lp78
F0.0
aF8.442653712840523
aF0.0
aF8.022779129721924
aF0.0
aF6.398898820395287
aF0.0
aF2.619084520751941
aF0.0
aF0.0
aF13.550841824296398
aF0.0
aF0.0
aF5.134560757002571
aF0.0
aF0.0
aF7.442430536483878
aF0.0
aF0.0
aF0.936540554488873
atp79
a(g1
(lp80
F0.0
aF7.539505393150115
aF0.0
aF7.143864527512864
aF0.0
aF5.618940117298986
aF0.0
aF2.1563149886346213
aF0.0
aF0.0
aF10.423457857850488
aF0.0
aF0.0
aF3.5672056276904556
aF0.0
aF0.0
aF5.798928311657415
aF0.0
aF0.0
aF0.5206742243797828
atp81
a(g1
(lp82
F0.0
aF7.570646266856745
aF0.0
aF7.174417973225725
aF0.0
aF5.654096556169862
aF0.0
aF2.243589040034235
aF0.0
aF0.0
aF12.363075872567693
aF0.0
aF0.0
aF3.877406448415777
aF0.0
aF0.0
aF7.046781751522807
aF0.0
aF0.0
aF0.40619884347164437
atp83
a(g1
(lp84
F0.0
aF8.257405105805553
aF0.0
aF7.832926421288436
aF0.0
aF6.203608502196326
aF0.0
aF2.53398475771409
aF0.0
aF0.0
aF14.871250592713402
aF0.0
aF0.0
aF4.927379230881065
aF0.0
aF0.0
aF8.366981595970396
aF0.0
aF0.0
aF0.6064329502571632
atp85
a(g1
(lp86
F0.026893039955178034
aF8.584670695558891
aF0.023258488228557538
aF8.148010149242465
aF0.011854691340188921
aF6.480689418628337
aF0.0005192038411239114
aF2.7933412703545524
aF0.0
aF0.041919137528429344
aF13.972794413965328
aF0.0
aF0.004899055008570165
aF5.688899117385607
aF0.0
aF0.0329875619447222
aF7.41465474616627
aF0.0
aF8.74140027057197e-05
aF0.970995844864207
atp87
a(g1
(lp88
F0.0
aF7.628243516246171
aF0.0
aF7.223106780258408
aF0.0
aF5.684723083047422
aF0.0
aF2.331703405905224
aF0.0
aF0.0
aF11.136531351223285
aF0.0
aF0.0
aF4.12852881545955
aF0.0
aF0.0
aF5.835728390014247
aF0.0
aF0.0
aF0.5125284784191144
atp89
a(g1
(lp90
F0.0
aF8.752223025156304
aF0.0
aF8.33260200656664
aF0.0
aF6.721617021954842
aF0.0
aF3.0393029657264594
aF0.0
aF0.0
aF16.255191258371443
aF0.0
aF0.0
aF6.571609157457113
aF0.0
aF0.0
aF8.76972759361437
aF0.0
aF0.0
aF1.1525644462783555
atp91
a(g1
(lp92
F0.04592014289091692
aF9.786683105255797
aF0.04013575129657969
aF9.34802104743949
aF0.021484694645597754
aF7.650037586069528
aF0.0011813857067828613
aF3.6677098958332337
aF0.0
aF0.06428176091475372
aF21.6374887427537
aF0.0
aF0.010732447830682527
aF9.311526532346502
aF0.0
aF0.043531412453070656
aF11.239712230512776
aF0.0
aF0.00017348652596700735
aF1.8008799199606254
atp93
a(g1
(lp94
F0.6646134778995118
aF8.060099726056196
aF0.6336802339892587
aF7.63166038195402
aF0.5123772864321108
aF5.994451647648419
aF0.21342122815461118
aF2.3636268422871596
aF0.061731090150248955
aF1.3929859199620764
aF14.339131315591542
aF0.003313003935800594
aF0.6604931052687154
aF4.785014172060551
aF0.0527706177344363
aF0.7898869212837402
aF8.034551608156342
aF4.3778834885600916e-07
aF0.16032125407755365
aF0.648731413739868
atp95
a(g1
(lp96
F0.25820260220818564
aF7.305837220920435
aF0.2383074749382078
aF6.920004949418213
aF0.1644312722104883
aF5.4388988105810965
aF0.029728174838295596
aF2.096137048058906
aF0.0010201731787151352
aF0.5064907102991536
aF12.710630282614446
aF4.330996218526134e-05
aF0.1289129590409607
aF3.807378114429826
aF0.000900541594089514
aF0.3047550822803412
aF7.191255491081223
aF2.9252257619403957e-09
aF0.0062289819498561666
aF0.3416754931105498
atp97
a(g1
(lp98
F0.0
aF8.413086893798788
aF0.0
aF7.962557486986243
aF0.0
aF6.237734105419787
aF0.0
aF2.4115950131901918
aF0.0
aF0.0
aF16.156517871827287
aF0.0
aF0.0
aF4.736922878603884
aF0.0
aF0.0
aF9.617005015909934
aF0.0
aF0.0
aF0.5007184794899184
atp99
a(g1
(lp100
F0.15010756192520344
aF9.88735567535091
aF0.13575283432222132
aF9.423472936097443
aF0.08513860701907619
aF7.635391855444208
aF0.009764203698227664
aF3.5270484890411797
aF0.0
aF0.24969304729673342
aF22.534360791537466
aF0.0
aF0.05828755619477416
aF8.764324101893662
aF0.0
aF0.15668914793895639
aF12.24253003270793
aF0.0
aF0.0028030641699686226
aF1.5287349368728578
atp101
a(g1
(lp102
F1.153474106814763
aF7.307368000122701
aF1.1262821546909596
aF6.880848344172029
aF1.0184349474759582
aF5.266513419345349
aF0.7385489822286244
aF1.8588189748078139
aF0.2815441074001759
aF0.8308054214556394
aF12.680260601780306
aF0.00263915803992981
aF2.3805620690224414
aF3.37087284773301
aF0.2737727812075435
aF0.030461982926615824
aF7.630241092598787
aF2.113810691184852e-09
aF1.0956658433579582
aF0.2850185112054523
atp103
a(g1
(lp104
F0.2496264575193842
aF9.380252292369299
aF0.23043264590152301
aF8.941883488293742
aF0.15895146797924364
aF7.251629414404538
aF0.028357738062194316
aF3.349617526629916
aF0.0
aF0.6328086322799782
aF17.57798170465668
aF0.0
aF0.19306241442391353
aF8.080813852222613
aF0.0
aF0.3459805166636133
aF8.882546984320467
aF0.0
aF0.013842418878192882
aF1.6390570202805106
atp105
a(g1
(lp106
F0.0
aF9.057522595705118
aF0.0
aF8.625021781263724
aF0.0
aF6.953589913898703
aF0.0
aF3.088913949704926
aF0.0
aF0.0
aF16.733692144090757
aF0.0
aF0.0
aF7.001511857405364
aF0.0
aF0.0
aF9.063044890629707
aF0.0
aF0.0
aF1.3289694935384
atp107
a(g1
(lp108
F0.05342941901005847
aF9.554632567468696
aF0.046861415127725785
aF9.110771368802821
aF0.025492184229286022
aF7.395614793420688
aF0.0015105398925374528
aF3.4088702652781735
aF0.0
aF0.06368792871877522
aF20.62358828752516
aF0.0
aF0.012163578359752295
aF8.34088331693216
aF0.0
aF0.040601723784233504
aF10.956837160667735
aF0.0
aF0.00019552121285235828
aF1.5035520823171968
atp109
a(g1
(lp110
F0.31044124799586953
aF9.827910188769298
aF0.28947930731594024
aF9.347938997403581
aF0.2092618631465117
aF7.509697221473249
aF0.046404796189746064
aF3.3953072262052126
aF0.0
aF0.7507671925669976
aF18.54858367936305
aF0.0
aF0.3005808242806579
aF8.33316014424833
aF0.0
aF0.4115255068905864
aF9.503448407689687
aF0.0
aF0.05352498156123171
aF1.6414140418985408
atp111
a(g1
(lp112
F0.19451384319089715
aF7.4390482999584595
aF0.1776657650408065
aF7.045275227617176
aF0.11667544918227876
aF5.539889618137869
aF0.016572572193180427
aF2.18042161362677
aF8.727723661876669e-06
aF0.28636259668685926
aF13.596395868606944
aF3.5842942486493127e-07
aF0.07728174223333147
aF4.1308859190118055
aF7.735062005310437e-06
aF0.1601738976606831
aF7.802916969679983
aF2.200262375776038e-11
aF0.002736338890512377
aF0.4229460144752601
atp113
a(g1
(lp114
F0.0
aF7.387484290761132
aF0.0
aF6.987097260236636
aF0.0
aF5.460229401657989
aF0.0
aF2.0988697659214584
aF0.0
aF0.0
aF11.600341385617876
aF0.0
aF0.0
aF3.6564304905635465
aF0.0
aF0.0
aF6.580317758203643
aF0.0
aF0.0
aF0.38080406547145634
atp115
a(g1
(lp116
F0.0
aF7.627996828984179
aF0.0
aF7.229895064348753
aF0.0
aF5.703988404907362
aF0.0
aF2.282928902985948
aF0.0
aF0.0
aF13.84548881151775
aF0.0
aF0.0
aF4.300382133275696
aF0.0
aF0.0
aF7.882998611808452
aF0.0
aF0.0
aF0.46666940626221975
atp117
a(g1
(lp118
F0.053456758788342114
aF7.654837909998388
aF0.04688596182895363
aF7.243345541660048
aF0.025506971054052537
aF5.6766889592036085
aF0.001511810453951744
aF2.2268769356125953
aF0.0
aF0.056806175010708754
aF13.060243878959014
aF0.0
aF0.012065909579079888
aF4.1030412792438815
aF0.0
aF0.034539809476576595
aF7.334358129615143
aF0.0
aF0.00024917054781344825
aF0.43369527333115776
atp119
a(g1
(lp120
F0.00028938564120181714
aF7.445893931574049
aF0.00024218451395150063
aF7.05960597413431
aF0.00010597647719274765
aF5.576350818510388
aF2.286504261689606e-06
aF2.2227760436292203
aF0.0
aF0.0002320961736618038
aF12.306156391193591
aF0.0
aF3.082482989136585e-05
aF4.116863259140064
aF0.0
aF0.00016335883800963868
aF6.752530502353488
aF0.0
aF1.5974625765993302e-07
aF0.49473346950627356
atp121
a(VCu
p122
(lp123
F0.5848708980514818
aF0.36317953037847756
aF0.5644322196696638
aF0.3324868350233985
aF0.47852819537674285
aF0.22172128598272905
aF0.22237492624512348
aF0.03649328422892335
aF0.0
aF0.3467051031988417
aF0.039386531001171884
aF0.0
aF0.004201936362434577
aF0.001677174628732403
aF0.0
aF0.3352299891288445
aF0.03477414348710411
aF0.0
aF6.088233941004711e-07
aF2.0028847103516393e-07
atp124
a(g122
(lp125
F0.5848708980514818
aF4.630118596114922
aF0.5644322196696638
aF4.339421868148515
aF0.47852819537674285
aF3.2709300886753065
aF0.22237492624512348
aF1.266806142333831
aF0.0
aF0.01896130578255172
aF6.496484092095871
aF0.0
aF0.3319457337787245
aF1.053608144823507
aF0.0
aF0.00010226046036391733
aF4.398927407359
aF0.0
aF0.2894169039496181
aF0.017497516524680908
atp126
a.