(lp0
(VPt
p1
(lp2
F0.0
aF7.497672247804014
aF0.0
aF7.081369375685773
aF0.0
aF5.496361092488066
aF0.0
aF2.0402610207635123
aF0.0
aF0.0
aF11.27139723861826
aF0.0
aF0.0
aF3.6450002520711346
aF0.0
aF0.0
aF6.153660790678544
aF0.0
aF0.0
aF0.3987736452089378
atp3
a(g1
(lp4
F0.0
aF7.614319344622794
aF0.0
aF7.193193310739976
aF0.0
aF5.588689474808183
aF0.0
aF2.087296910330297
aF0.0
aF0.0
aF11.78671910227348
aF0.0
aF0.0
aF3.8096208861774623
aF0.0
aF0.0
aF6.438656037431043
aF0.0
aF0.0
aF0.4103395081921201
atp5
a(g1
(lp6
F0.0
aF7.587834633268024
aF0.0
aF7.17357257477981
aF0.0
aF5.596883801245586
aF0.0
aF2.150471419056462
aF0.0
aF0.0
aF11.681712031664627
aF0.0
aF0.0
aF3.930436286632058
aF0.0
aF0.0
aF6.281970869440828
aF0.0
aF0.0
aF0.4443608864137742
atp7
a(g1
(lp8
F0.0
aF7.558108206194029
aF0.0
aF7.145328566297574
aF0.0
aF5.574039590155296
aF0.0
aF2.1375260578021087
aF0.0
aF0.0
aF11.535552712072539
aF0.0
aF0.0
aF3.8729181645813306
aF0.0
aF0.0
aF6.207010272636023
aF0.0
aF0.0
aF0.437664595460322
atp9
a(g1
(lp10
F0.0
aF7.5246924446706025
aF0.0
aF7.110953328646787
aF0.0
aF5.538863589140379
aF0.0
aF2.112688152698139
aF0.0
aF0.0
aF11.40514578495572
aF0.0
aF0.0
aF3.8196985807511417
aF0.0
aF0.0
aF6.141375435001944
aF0.0
aF0.0
aF0.4290371174571426
atp11
a(g1
(lp12
F0.0
aF7.688576768278418
aF0.0
aF7.273111083571314
aF0.0
aF5.689945468827735
aF0.0
aF2.2103149420159394
aF0.0
aF0.0
aF12.157257665973393
aF0.0
aF0.0
aF4.123905757278887
aF0.0
aF0.0
aF6.533637896539069
aF0.0
aF0.0
aF0.48317337745762906
atp13
a(g1
(lp14
F0.004315359000518471
aF7.605224079777612
aF0.0036523145462123933
aF7.184768526303811
aF0.001683801244778798
aF5.584372542303441
aF4.628386825107627e-05
aF2.092931203778541
aF0.0
aF0.005771512248500641
aF11.572478985539218
aF0.0
aF0.000633527305588872
aF3.8195474346944485
aF0.0
aF0.004448443894582399
aF6.309417010975136
aF0.0
aF5.612229348705129e-06
aF0.43992265599329544
atp15
a(g1
(lp16
F0.0
aF7.614352408117368
aF0.0
aF7.20365900667411
aF0.0
aF5.637145516639066
aF0.0
aF2.181794106355495
aF0.0
aF0.0
aF11.868273095864579
aF0.0
aF0.0
aF4.02052666499173
aF0.0
aF0.0
aF6.373581641712133
aF0.0
aF0.0
aF0.4714893502354829
atp17
a(g1
(lp18
F0.0
aF7.583585659326951
aF0.0
aF7.1591604377269675
aF0.0
aF5.5442510550255895
aF0.0
aF2.0344052901820544
aF0.0
aF0.0
aF11.488148518256972
aF0.0
aF0.0
aF3.6657631518531515
aF0.0
aF0.0
aF6.332516153617374
aF0.0
aF0.0
aF0.3923648682994196
atp19
a(g1
(lp20
F0.0
aF7.659603330452779
aF0.0
aF7.244232354502756
aF0.0
aF5.661136738907372
aF0.0
aF2.1824956616259845
aF0.0
aF0.0
aF12.055148654688649
aF0.0
aF0.0
aF4.056377111799999
aF0.0
aF0.0
aF6.490530676734987
aF0.0
aF0.0
aF0.4682558140823115
atp21
a(g1
(lp22
F0.04587691982225363
aF7.501353756289566
aF0.04009713627894122
aF7.077952245907322
aF0.021461945468396734
aF5.4707591031903124
aF0.0011796044347549305
aF2.001574574953736
aF0.0
aF0.08301735606306437
aF11.02582695769857
aF0.0
aF0.013452555041977194
aF3.558398402114764
aF0.0
aF0.05845837519766052
aF6.082397268836061
aF0.0
aF0.0002020509723753724
aF0.40912586203144197
atp23
a(g1
(lp24
F0.0
aF7.6437820087199935
aF0.0
aF7.228863983371526
aF0.0
aF5.648498729694165
aF0.0
aF2.1814590148071225
aF0.0
aF0.0
aF11.946558803288726
aF0.0
aF0.0
aF4.022722583297897
aF0.0
aF0.0
aF6.423687620546418
aF0.0
aF0.0
aF0.4652671941478311
atp25
a(g1
(lp26
F0.0
aF7.637390456024841
aF0.0
aF7.2199436593094
aF0.0
aF5.628880865572068
aF0.0
aF2.138970879646222
aF0.0
aF0.0
aF11.8585157187644
aF0.0
aF0.0
aF3.9413650067944026
aF0.0
aF0.0
aF6.418350471878949
aF0.0
aF0.0
aF0.4353610286308581
atp27
a(g1
(lp28
F0.0
aF7.62369400049974
aF0.0
aF7.206356428009702
aF0.0
aF5.615517092530678
aF0.0
aF2.1289057863901992
aF0.0
aF0.0
aF11.848877456824743
aF0.0
aF0.0
aF3.911384753389298
aF0.0
aF0.0
aF6.436257944971829
aF0.0
aF0.0
aF0.4469255263197518
atp29
a(g1
(lp30
F0.0032897169949773907
aF7.476353135449992
aF0.002778979797955765
aF7.060084676194052
aF0.001269935197990166
aF5.481210847636879
aF3.350884236427966e-05
aF2.0671470704538444
aF0.0
aF0.004155161504746099
aF11.128321933460793
aF0.0
aF0.000479640722843917
aF3.691245626541098
aF0.0
aF0.003128403559164127
aF6.008285535417252
aF0.0
aF3.6763732316476372e-06
aF0.4123453959608242
atp31
a(g1
(lp32
F0.0
aF7.692616172514769
aF0.0
aF7.276334449576703
aF0.0
aF5.688510753282471
aF0.0
aF2.1932800448384144
aF0.0
aF0.0
aF12.153590909573841
aF0.0
aF0.0
aF4.093941052178107
aF0.0
aF0.0
aF6.555222194764491
aF0.0
aF0.0
aF0.47590616350580084
atp33
a(g1
(lp34
F0.0
aF7.5496379734452566
aF0.0
aF7.132453231368929
aF0.0
aF5.545427806977154
aF0.0
aF2.086923935975891
aF0.0
aF0.0
aF11.467450975103702
aF0.0
aF0.0
aF3.780623769338998
aF0.0
aF0.0
aF6.229537267765608
aF0.0
aF0.0
aF0.418126305849507
atp35
a(g1
(lp36
F0.0
aF7.556645620644733
aF0.0
aF7.138687139788972
aF0.0
aF5.549794195182564
aF0.0
aF2.093901155127728
aF0.0
aF0.0
aF11.550384360927623
aF0.0
aF0.0
aF3.802477916753542
aF0.0
aF0.0
aF6.2687201897033376
aF0.0
aF0.0
aF0.4234045885083232
atp37
a(g1
(lp38
F0.0
aF7.539927284826817
aF0.0
aF7.125482208831975
aF0.0
aF5.547885697358107
aF0.0
aF2.0985383143255754
aF0.0
aF0.0
aF11.493537096309339
aF0.0
aF0.0
aF3.8042694145722655
aF0.0
aF0.0
aF6.226059305945864
aF0.0
aF0.0
aF0.43128540598572596
atp39
a(g1
(lp40
F0.0
aF7.620285520945835
aF0.0
aF7.202865180304142
aF0.0
aF5.611310025429845
aF0.0
aF2.1187526693833356
aF0.0
aF0.0
aF11.763961745243828
aF0.0
aF0.0
aF3.8850578895963506
aF0.0
aF0.0
aF6.398754526193747
aF0.0
aF0.0
aF0.44239213371856045
atp41
a(g1
(lp42
F0.0
aF8.846995228050956
aF0.0
aF8.414656996031635
aF0.0
aF6.741724043297046
aF0.0
aF2.829795198854197
aF0.0
aF0.0
aF14.280339463476228
aF0.0
aF0.0
aF6.134062589814977
aF0.0
aF0.0
aF7.1775085293017815
aF0.0
aF0.0
aF1.1484268368732622
atp43
a(g1
(lp44
F0.0025776611315205577
aF8.847699801283731
aF0.0021741928236186153
aF8.412007482292776
aF0.0009866333007876311
aF6.727651547213831
aF2.520173009529557e-05
aF2.8041084317215548
aF0.0
aF0.0022350434802814543
aF14.22628905696136
aF0.0
aF0.00026567541968239424
aF6.029428352415584
aF0.0
aF0.0016708311447289138
aF7.2045686632083346
aF0.0
aF2.526180924584941e-06
aF1.1249876722703598
atp45
a(g1
(lp46
F0.003484054453948655
aF8.831661948065507
aF0.002944267794623156
aF8.39784892806807
aF0.001347850641431076
aF6.718647480769472
aF3.5857971815786154e-05
aF2.795552522078936
aF0.0
aF0.0033506954280323373
aF14.223197270018519
aF0.0
aF0.00036920269093663436
aF5.99462607476593
aF0.0
aF0.002572922429898927
aF7.221821767061992
aF0.0
aF3.6290158170402468e-06
aF1.114943423267415
atp47
a(g1
(lp48
F0.0
aF8.65953900547261
aF0.0
aF8.232038940004802
aF0.0
aF6.578220051257308
aF0.0
aF2.717176017113222
aF0.0
aF0.0
aF13.634085233771895
aF0.0
aF0.0
aF5.660868372610613
aF0.0
aF0.0
aF6.950173544989091
aF0.0
aF0.0
aF1.028875500883026
atp49
a(g1
(lp50
F0.0
aF8.925381822079112
aF0.0
aF8.490888506373318
aF0.0
aF6.805903809059799
aF0.0
aF2.8495947619440463
aF0.0
aF0.0
aF14.650948927070312
aF0.0
aF0.0
aF6.222110576042487
aF0.0
aF0.0
aF7.42676912058401
aF0.0
aF0.0
aF1.1673641308337757
atp51
a(g1
(lp52
F0.1271816366397442
aF8.855759357839398
aF0.11428096141117183
aF8.41260941061676
aF0.06958378370345589
aF6.697720559315216
aF0.006984228522626678
aF2.715649842721799
aF0.00017782946675406368
aF0.1964302088333812
aF14.097138358681528
aF5.043119493185981e-07
aF0.04560999998063965
aF5.753040647579956
aF0.00017632507167949574
aF0.12194855782514648
aF7.210701283674022
aF1.1405023871307477e-14
aF0.0017645635237192301
aF0.9982188040482681
atp53
a(g1
(lp54
F0.13612947326316557
aF8.875659963278926
aF0.12243067474645888
aF8.439253411434033
aF0.07490630453704594
aF6.748832933964576
aF0.007756307796540748
aF2.7971167169537887
aF0.0007032570118940864
aF0.2202738498784211
aF14.21693672416421
aF3.1049238261822065e-06
aF0.05081088511253475
aF6.068377079248362
aF0.0006940238897640794
aF0.13980849197193743
aF7.125673896455675
aF2.63707168658394e-13
aF0.0022023103719246186
aF1.0970644331387318
atp55
a(g1
(lp56
F0.0
aF8.742554972898084
aF0.0
aF8.30479651343423
aF0.0
aF6.6127835957830365
aF0.0
aF2.691528262974312
aF0.0
aF0.0
aF13.85523677032203
aF0.0
aF0.0
aF5.594390398201941
aF0.0
aF0.0
aF7.144613660241727
aF0.0
aF0.0
aF0.9816795505076226
atp57
a(g1
(lp58
F0.0
aF8.93859324068149
aF0.0
aF8.504321881529515
aF0.0
aF6.822413789094255
aF0.0
aF2.88376989987562
aF0.0
aF0.0
aF14.594624784721008
aF0.0
aF0.0
aF6.377800784702476
aF0.0
aF0.0
aF7.293182252197673
aF0.0
aF0.0
aF1.214100095999423
atp59
a(g1
(lp60
F0.16875121949335986
aF8.762957796710154
aF0.1527097306410199
aF8.319424216577387
aF0.0962234125230522
aF6.604725782531314
aF0.011537459232842173
aF2.6394777469561195
aF0.0018402905160946105
aF0.2500070244889174
aF13.69943126336988
aF5.649985825541882e-06
aF0.06789673490577436
aF5.463748622468593
aF0.0018234441066527147
aF0.14750740095609075
aF7.051294510923531
aF1.620079537679153e-13
aF0.0034750944699664284
aF0.9145118685807114
atp61
a(g1
(lp62
F0.15174545727611483
aF8.89460333843566
aF0.1367801456521012
aF8.455971152245521
aF0.08461450994131998
aF6.755272096731935
aF0.009307851713090317
aF2.7776890203291162
aF0.0015459855859521413
aF0.23170942021159147
aF14.313212370224939
aF7.667859979461866e-06
aF0.05890780026418238
aF5.991972229272184
aF0.00152320832235906
aF0.14055103909658104
aF7.246374279719713
aF9.21794764523487e-13
aF0.002696035672528125
aF1.0736116828595066
atp63
a(g1
(lp64
F0.0
aF8.82012542530424
aF0.0
aF8.384091109527022
aF0.0
aF6.698885439809013
aF0.0
aF2.7826052602576543
aF0.0
aF0.0
aF14.167492993179648
aF0.0
aF0.0
aF5.928668258111286
aF0.0
aF0.0
aF7.227655988830597
aF0.0
aF0.0
aF1.0983322602577745
atp65
a(g1
(lp66
F0.0
aF8.899542636762714
aF0.0
aF8.466759984160834
aF0.0
aF6.789968449677198
aF0.0
aF2.8586520476881025
aF0.0
aF0.0
aF14.471667420721863
aF0.0
aF0.0
aF6.277422879462629
aF0.0
aF0.0
aF7.247556749709885
aF0.0
aF0.0
aF1.182600523133214
atp67
a(g1
(lp68
F0.004099803200529233
aF8.748809849343662
aF0.0034685685022460976
aF8.309867721789306
aF0.0015962900991131413
aF6.612869703008332
aF4.352290607577184e-05
aF2.673376761198633
aF0.0
aF0.003473115454047785
aF13.764878165642312
aF0.0
aF0.0004639437211381102
aF5.553728952379191
aF0.0
aF0.0024809261912233974
aF7.064334407729686
aF0.0
aF3.953112384850436e-06
aF0.9553957229672323
atp69
a(g1
(lp70
F0.0024806739956420897
aF8.880403071067269
aF0.0020919236315343833
aF8.446353627511435
aF0.0009483255825985189
aF6.763774143926744
aF2.410802170414771e-05
aF2.8182875820698614
aF0.0
aF0.0021631761885092192
aF14.328343531844332
aF0.0
aF0.0002503664441216947
aF6.13476755817419
aF0.0
aF0.0016286808669805247
aF7.179081383797032
aF0.0
aF2.2482853268943034e-06
aF1.1219760432694843
atp71
a(g1
(lp72
F0.0
aF8.816720199884243
aF0.0
aF8.383319943309989
aF0.0
aF6.708222850884369
aF0.0
aF2.806964405739901
aF0.0
aF0.0
aF14.15987413397567
aF0.0
aF0.0
aF6.02513608776058
aF0.0
aF0.0
aF7.177698989886378
aF0.0
aF0.0
aF1.1433537864305963
atp73
a(g1
(lp74
F0.0
aF8.772657123208548
aF0.0
aF8.339058733464642
aF0.0
aF6.661859904155912
aF0.0
aF2.7602955908438487
aF0.0
aF0.0
aF13.965950499521568
aF0.0
aF0.0
aF5.886197426158694
aF0.0
aF0.0
aF7.081255642017651
aF0.0
aF0.0
aF1.0793787289451084
atp75
a(g1
(lp76
F0.0
aF8.765213020982682
aF0.0
aF8.328135651813838
aF0.0
aF6.637804335530964
aF0.0
aF2.707392738941143
aF0.0
aF0.0
aF13.946819732744693
aF0.0
aF0.0
aF5.669563988044823
aF0.0
aF0.0
aF7.172017048596327
aF0.0
aF0.0
aF1.0032579675716222
atp77
a(g1
(lp78
F0.0
aF8.804491819132155
aF0.0
aF8.36984823780369
aF0.0
aF6.686043189606811
aF0.0
aF2.7531720361797514
aF0.0
aF0.0
aF14.124295595748405
aF0.0
aF0.0
aF5.836302308724381
aF0.0
aF0.0
aF7.223766147760022
aF0.0
aF0.0
aF1.0595947211661758
atp79
a(g1
(lp80
F0.0
aF8.68016855723303
aF0.0
aF8.243819040513833
aF0.0
aF6.5579155544788845
aF0.0
aF2.6587370105127293
aF0.0
aF0.0
aF13.554533794312633
aF0.0
aF0.0
aF5.484727099204845
aF0.0
aF0.0
aF6.9856055955361835
aF0.0
aF0.0
aF0.9635655453965652
atp81
a(g1
(lp82
F0.0
aF7.548093078121355
aF0.0
aF7.134818080854253
aF0.0
aF5.5607071060839655
aF0.0
aF2.1093904728750137
aF0.0
aF0.0
aF11.449120205034582
aF0.0
aF0.0
aF3.7984656915791977
aF0.0
aF0.0
aF6.222166602027733
aF0.0
aF0.0
aF0.43945991551682767
atp83
a(g1
(lp84
F0.0
aF7.753860029658877
aF0.0
aF7.335719473981287
aF0.0
aF5.740527290759826
aF0.0
aF2.2221773415687633
aF0.0
aF0.0
aF12.119643715478036
aF0.0
aF0.0
aF4.1378986474521335
aF0.0
aF0.0
aF6.544845999598917
aF0.0
aF0.0
aF0.5094656634179433
atp85
a(g1
(lp86
F0.006697972539099959
aF7.799827624567939
aF0.005689561562958772
aF7.3779484737116166
aF0.0026678084445660583
aF5.771860877572663
aF7.932753213320055e-05
aF2.2525298767789534
aF0.0
aF0.004505265511666333
aF12.089403748528847
aF0.0
aF0.00040471364488701403
aF4.213900308749375
aF0.0
aF0.0036123774156379173
aF6.4544760980787
aF0.0
aF4.070312262865691e-06
aF0.5216710567938264
atp87
a(g1
(lp88
F0.0
aF7.737466045004504
aF0.0
aF7.3156030486373265
aF0.0
aF5.710121183395498
aF0.0
aF2.200760006983953
aF0.0
aF0.0
aF11.863856654114045
aF0.0
aF0.0
aF4.053784698636306
aF0.0
aF0.0
aF6.364334989616625
aF0.0
aF0.0
aF0.481023790320992
atp89
a(g1
(lp90
F0.0
aF7.697593116176978
aF0.0
aF7.27913805607912
aF0.0
aF5.686801670930601
aF0.0
aF2.1989745594342884
aF0.0
aF0.0
aF11.795524623318835
aF0.0
aF0.0
aF4.051140928560341
aF0.0
aF0.0
aF6.3192396917142615
aF0.0
aF0.0
aF0.48350975007070673
atp91
a(g1
(lp92
F0.0390291241859941
aF7.809104518244616
aF0.03399433860827346
aF7.388032373494845
aF0.017905804589449258
aF5.781484712306556
aF0.0009135163067939641
aF2.2440329820335214
aF0.0
aF0.027647691899439518
aF12.447870627437243
aF0.0
aF0.005789029868142872
aF4.2322675924674975
aF0.0
aF0.01659648097559096
aF6.700425157277364
aF0.0
aF7.548787080877461e-05
aF0.5052125078087871
atp93
a(g1
(lp94
F0.4535102591036917
aF7.471278375921445
aF0.4204934008304384
aF7.057126246068325
aF0.2975501326736505
aF5.481873136288652
aF0.0649306138701175
aF2.0535399090646447
aF0.06678019013762918
aF0.43937208448818776
aF11.228535554343626
aF0.0007272446966347551
aF0.1558724775816007
aF3.7166426724443546
aF0.0646451261689885
aF0.23362098333514408
aF6.124722225942662
aF9.09216762617498e-10
aF0.01690069355497131
aF0.4435825211230973
atp95
a(g1
(lp96
F0.05131392575469933
aF7.614848544314015
aF0.04494314051082603
aF7.20248256600337
aF0.02429454970321431
aF5.630520051498436
aF0.0014012745397893004
aF2.170644593147018
aF3.2178000343997816e-05
aF0.04184907941315288
aF11.88828941854586
aF3.594115127088557e-07
aF0.00872634338086915
aF3.989041302859038
aF3.1123411447559054e-05
aF0.025479481513327105
aF6.39768623612486
aF4.844164956518223e-13
aF0.00013294038237957268
aF0.4527327708085238
atp97
a(g1
(lp98
F0.0
aF7.606233114721088
aF0.0
aF7.182732251434298
aF0.0
aF5.571728033352229
aF0.0
aF2.0721326506713442
aF0.0
aF0.0
aF11.60847460154827
aF0.0
aF0.0
aF3.7380684550831162
aF0.0
aF0.0
aF6.392718325671146
aF0.0
aF0.0
aF0.4094892745284745
atp99
a(g1
(lp100
F0.16270856812337953
aF7.652460547158509
aF0.14627093167456
aF7.240068504325242
aF0.08947885028486258
aF5.668559890927944
aF0.009540233714649238
aF2.213290558186612
aF0.004387166933702239
aF0.13007578590833155
aF12.034421434794076
aF4.312042433555893e-05
aF0.039354069726349784
aF4.118132323652883
aF0.004260307532798134
aF0.0722873180329201
aF6.455316217286902
aF3.975908806239764e-11
aF0.0021359773915346695
aF0.4964093640668143
atp101
a(g1
(lp102
F0.9639051246264091
aF6.972195760612441
aF0.9249507835247038
aF6.568367415133997
aF0.7676858436268574
aF5.038568761640489
aF0.3539635403032281
aF1.7738799751467689
aF0.35533960099204687
aF0.44592728343197846
aF9.984728212393183
aF0.00018665534748130868
aF0.8293644525070867
aF2.9901144301540996
aF0.3547802227209765
aF0.031214350946376646
aF5.61798847559989
aF2.701137589959791e-14
aF0.28312065856544255
aF0.28692817468839327
atp103
a(g1
(lp104
F0.15664481769602695
aF7.781072386247286
aF0.14033788616603363
aF7.362667502709301
aF0.08449500691276202
aF5.767062787598041
aF0.008390973685342059
aF2.2519308927860973
aF0.005134214106742349
aF0.13917273397223665
aF12.213598472235754
aF6.259676323844103e-05
aF0.0393115728964367
aF4.224681374170272
aF0.004950911551488573
aF0.0796257490808137
aF6.516845915354703
aF1.0939482404184779e-10
aF0.0019091919520838082
aF0.5197451761004065
atp105
a(g1
(lp106
F0.0
aF7.907137771425534
aF0.0
aF7.481924186785835
aF0.0
aF5.85896181691839
aF0.0
aF2.277365282565663
aF0.0
aF0.0
aF12.415383103815195
aF0.0
aF0.0
aF4.336232691451388
aF0.0
aF0.0
aF6.6562709707904375
aF0.0
aF0.0
aF0.5523399233735511
atp107
a(g1
(lp108
F0.047795610551159065
aF7.635640874237984
aF0.041812372857418414
aF7.2209375509421
aF0.022475351137815614
aF5.639395537165226
aF0.001259916873355881
aF2.162982423089533
aF0.0
aF0.03248690551975722
aF11.93139048899863
aF0.0
aF0.007469018545199774
aF3.991863472327809
aF0.0
aF0.018534211670590828
aF6.469144272938169
aF0.0
aF0.00010306253172742865
aF0.47883739349168597
atp109
a(g1
(lp110
F0.3727074950785783
aF7.701419851575897
aF0.34314527356178304
aF7.28110620021597
aF0.23495842592104854
aF5.68191613273654
aF0.043805745006995314
aF2.184875329402682
aF0.041828993956732965
aF0.35168631537683853
aF11.59875155296853
aF0.0004441284865101462
aF0.12215715741588504
aF4.015840058199985
aF0.04052440944989051
aF0.18821300136336339
aF6.175579910801454
aF5.150406846301022e-10
aF0.011253102950088582
aF0.48727157001715793
atp111
a(g1
(lp112
F0.04386714214069999
aF7.636814885951569
aF0.03829455354899125
aF7.223217918089714
aF0.020384755644719026
aF5.647131306107053
aF0.001093420112224595
aF2.1837038437032454
aF1.2074233440971111e-05
aF0.03205287089179039
aF12.034861174910962
aF1.3918976416965764e-07
aF0.00698715451767083
aF4.059383176802266
aF1.166610966481406e-05
aF0.01884780080522462
aF6.50600403583486
aF2.0602360300448278e-13
aF9.221337886187493e-05
aF0.4816528329143148
atp113
a(g1
(lp114
F0.0
aF7.6559405198804455
aF0.0
aF7.2361621557584295
aF0.0
aF5.638266248376904
aF0.0
aF2.147197572715109
aF0.0
aF0.0
aF11.75559513982006
aF0.0
aF0.0
aF3.9286543143030745
aF0.0
aF0.0
aF6.381095435596984
aF0.0
aF0.0
aF0.4497264128505869
atp115
a(g1
(lp116
F0.0
aF7.579125285577457
aF0.0
aF7.1663449042428535
aF0.0
aF5.595005369124481
aF0.0
aF2.153141868174445
aF0.0
aF0.0
aF11.692796430069372
aF0.0
aF0.0
aF3.9289162511235185
aF0.0
aF0.0
aF6.316544003496451
aF0.0
aF0.0
aF0.4548922686629782
atp117
a(g1
(lp118
F0.005342260956996519
aF7.443038822518485
aF0.004529020613279106
aF7.032895790833984
aF0.00210429114458391
aF5.473610635513468
aF5.996916579343986e-05
aF2.0739529163564843
aF0.0
aF0.0029239048730515783
aF11.341559419403145
aF0.0
aF0.0003264680082431502
aF3.710278896992374
aF0.0
aF0.002197120266950765
aF6.170923373450331
aF0.0
aF2.7329965345985942e-06
aF0.40813311365703464
atp119
a(g1
(lp120
F0.0
aF7.479923210131502
aF0.0
aF7.0681797959543555
aF0.0
aF5.501288460764629
aF0.0
aF2.0790933528274254
aF0.0
aF0.0
aF11.488146687453732
aF0.0
aF0.0
aF3.758932619382139
aF0.0
aF0.0
aF6.276408257944757
aF0.0
aF0.0
aF0.4246867517451279
atp121
a(VCu
p122
(lp123
F0.8665432257782906
aF2.4126360378274656
aF0.857813786642067
aF2.2358200055777306
aF0.8184327182736991
aF1.5979949730284762
aF0.6580334533024313
aF0.47021593761004465
aF0.0
aF0.018951862700055378
aF1.7182717804918328
aF0.0
aF0.4603110896423357
aF0.2413613773700972
aF0.0
aF6.091711996761552e-05
aF1.2005205425922216
aF0.0
aF0.41748573662926564
aF0.002174995238393303
atp124
a(g122
(lp125
F0.8665432257782906
aF0.5408182382010438
aF0.857813786642067
aF0.4920501537074189
aF0.8184327182736991
aF0.32062863929502333
aF0.6580334533024313
aF0.05219652854053918
aF0.0
aF0.46896630182062415
aF0.08538159755899773
aF0.0
aF0.010296650521766959
aF0.007579881962930092
aF0.0
aF0.44265136646145836
aF0.06663843690636331
aF0.0
aF6.5983698300782585e-06
aF1.3660300464775564e-05
atp126
a.