(lp0
(VPt
p1
(lp2
F0.0
aF7.390442121916886
aF0.0
aF6.9849766764428045
aF0.0
aF5.4394295567647495
aF0.0
aF2.054842362512002
aF0.0
aF0.0
aF11.05889269416293
aF0.0
aF0.0
aF3.479048755511409
aF0.0
aF0.0
aF6.178041232545792
aF0.0
aF0.0
aF0.3808313017226544
atp3
a(g1
(lp4
F0.0
aF7.844865640715674
aF0.0
aF7.413998273248121
aF0.0
aF5.768680309434095
aF0.0
aF2.164579841269172
aF0.0
aF0.0
aF12.840206317946516
aF0.0
aF0.0
aF3.9816701534731993
aF0.0
aF0.0
aF7.197204465081302
aF0.0
aF0.0
aF0.4189762115255494
atp5
a(g1
(lp6
F0.0
aF7.724934345475438
aF0.0
aF7.30839383530295
aF0.0
aF5.726095892217658
aF0.0
aF2.2902363682406968
aF0.0
aF0.0
aF12.304330140628716
aF0.0
aF0.0
aF4.131930118425749
aF0.0
aF0.0
aF6.658094805539057
aF0.0
aF0.0
aF0.469119792467627
atp7
a(g1
(lp8
F0.0
aF7.460908078817929
aF0.0
aF7.056988511174545
aF0.0
aF5.521605305694911
aF0.0
aF2.1783097289170956
aF0.0
aF0.0
aF11.216812269369948
aF0.0
aF0.0
aF3.804402571382941
aF0.0
aF0.0
aF6.0016876138462845
aF0.0
aF0.0
aF0.41466273726023384
atp9
a(g1
(lp10
F0.0
aF7.745804224427476
aF0.0
aF7.337177445843921
aF0.0
aF5.783032114510785
aF0.0
aF2.359902574921453
aF0.0
aF0.0
aF12.702120812127939
aF0.0
aF0.0
aF4.35374448967724
aF0.0
aF0.0
aF6.83132069153404
aF0.0
aF0.0
aF0.4948619771487454
atp11
a(g1
(lp12
F0.0
aF8.399768612824053
aF0.0
aF7.970388136848811
aF0.0
aF6.325446623733681
aF0.0
aF2.633345714295249
aF0.0
aF0.0
aF15.682154735165277
aF0.0
aF0.0
aF5.449383424903883
aF0.0
aF0.0
aF8.431698566278563
aF0.0
aF0.0
aF0.6594367490099098
atp13
a(g1
(lp14
F0.01264355487425797
aF8.123769637900683
aF0.01081335995020295
aF7.686507816460008
aF0.005233077281238314
aF6.020945204107008
aF0.000180182268050707
aF2.358366409433077
aF0.0
aF0.020990579405411085
aF13.78070161219093
aF0.0
aF0.0024665820284428693
aF4.629067652826641
aF0.0
aF0.016117254960525906
aF7.568719838258523
aF0.0
aF3.1875487012406154e-05
aF0.5697160627501867
atp15
a(g1
(lp16
F0.0
aF7.8147060221249145
aF0.0
aF7.4056998933224785
aF0.0
aF5.839614992313958
aF0.0
aF2.3256230599140473
aF0.0
aF0.0
aF12.915465268356103
aF0.0
aF0.0
aF4.4170781206196965
aF0.0
aF0.0
aF6.997490562729967
aF0.0
aF0.0
aF0.5450648085642614
atp17
a(g1
(lp18
F0.0
aF7.925376317116925
aF0.0
aF7.485090986631244
aF0.0
aF5.804918649287665
aF0.0
aF2.12760162992616
aF0.0
aF0.0
aF12.978019636476732
aF0.0
aF0.0
aF3.91674417558619
aF0.0
aF0.0
aF7.424133240157481
aF0.0
aF0.0
aF0.39845965658066007
atp19
a(g1
(lp20
F0.0
aF8.50057103080806
aF0.0
aF8.053390541053718
aF0.0
aF6.340229752765522
aF0.0
aF2.522142038544151
aF0.0
aF0.0
aF15.954443243913625
aF0.0
aF0.0
aF5.211621437230898
aF0.0
aF0.0
aF8.814163004348332
aF0.0
aF0.0
aF0.5952005294406351
atp21
a(g1
(lp22
F0.06724933473473599
aF8.181182730047096
aF0.059321037476562984
aF7.719460673363041
aF0.03313892668972332
aF5.96553961329024
aF0.002221357606841228
aF2.1810997972720183
aF0.0
aF0.14364696209140662
aF13.628300070639334
aF0.0
aF0.026495098930000807
aF4.191560777338185
aF0.0
aF0.09611479094731552
aF7.810669272942286
aF0.0
aF0.00046753458480452596
aF0.4860168551143154
atp23
a(g1
(lp24
F0.0
aF8.03554515785704
aF0.0
aF7.610123981792205
aF0.0
aF5.989367927322939
aF0.0
aF2.4251566532646325
aF0.0
aF0.0
aF13.774129981116042
aF0.0
aF0.0
aF4.676183566613213
aF0.0
aF0.0
aF7.414381050582943
aF0.0
aF0.0
aF0.5335893834294209
atp25
a(g1
(lp26
F0.0
aF7.902404524101778
aF0.0
aF7.483442118454585
aF0.0
aF5.88409781549342
aF0.0
aF2.3524971684186986
aF0.0
aF0.0
aF13.191264400359891
aF0.0
aF0.0
aF4.410651810481303
aF0.0
aF0.0
aF7.228552350072012
aF0.0
aF0.0
aF0.47921922319157734
atp27
a(g1
(lp28
F0.0
aF8.3412245706115
aF0.0
aF7.905413867152402
aF0.0
aF6.2338589878076425
aF0.0
aF2.499999357313248
aF0.0
aF0.0
aF15.2795291064177
aF0.0
aF0.0
aF5.090790731065692
aF0.0
aF0.0
aF8.391270517934085
aF0.0
aF0.0
aF0.6026897393941179
atp29
a(g1
(lp30
F0.00859097342851724
aF8.069659065203465
aF0.007315302470051256
aF7.63115617965496
aF0.0034689861288223793
aF5.9717270229031865
aF0.0001086900558289731
aF2.401196290492101
aF0.0
aF0.012308108690256224
aF13.722827127229012
aF0.0
aF0.001593120521813103
aF4.57945315972784
aF0.0
aF0.00899742293109692
aF7.429490793409198
aF0.0
aF1.628661360483688e-05
aF0.5008624412297923
atp31
a(g1
(lp32
F0.0
aF8.11378721855559
aF0.0
aF7.689242337965995
aF0.0
aF6.06159040167294
aF0.0
aF2.413314123854038
aF0.0
aF0.0
aF14.168693051562059
aF0.0
aF0.0
aF4.808837846220375
aF0.0
aF0.0
aF7.717608751898656
aF0.0
aF0.0
aF0.5800277372493768
atp33
a(g1
(lp34
F0.0
aF7.4935230271598
aF0.0
aF7.081929945160312
aF0.0
aF5.516495509587668
aF0.0
aF2.1024030663129842
aF0.0
aF0.0
aF11.343005514058422
aF0.0
aF0.0
aF3.709076837133629
aF0.0
aF0.0
aF6.247523352690851
aF0.0
aF0.0
aF0.40187276345927936
atp35
a(g1
(lp36
F0.0
aF7.828399519130555
aF0.0
aF7.398392739598936
aF0.0
aF5.763313765105562
aF0.0
aF2.208147951110644
aF0.0
aF0.0
aF12.751715061302132
aF0.0
aF0.0
aF4.103163631413161
aF0.0
aF0.0
aF7.054760278876631
aF0.0
aF0.0
aF0.46020208444773
atp37
a(g1
(lp38
F0.0
aF7.809506665458735
aF0.0
aF7.388110976152987
aF0.0
aF5.783091547275176
aF0.0
aF2.24966727501347
aF0.0
aF0.0
aF12.767689178387883
aF0.0
aF0.0
aF4.191419730909151
aF0.0
aF0.0
aF7.0150863935967145
aF0.0
aF0.0
aF0.48414379523594303
atp39
a(g1
(lp40
F0.0
aF7.717966743923834
aF0.0
aF7.301641850359283
aF0.0
aF5.711830830093814
aF0.0
aF2.196127132169972
aF0.0
aF0.0
aF12.299449617061432
aF0.0
aF0.0
aF4.061462048386197
aF0.0
aF0.0
aF6.75260130627331
aF0.0
aF0.0
aF0.470884400001287
atp41
a(g1
(lp42
F0.0
aF9.047312216385679
aF0.0
aF8.63698672717526
aF0.0
aF7.04300412253748
aF0.0
aF3.236294879393458
aF0.0
aF0.0
aF16.21639424020967
aF0.0
aF0.0
aF7.544411321837653
aF0.0
aF0.0
aF8.18802868937197
aF0.0
aF0.0
aF1.717567491653736
atp43
a(g1
(lp44
F0.00687660645665847
aF9.094285422896965
aF0.005842723716870807
aF8.65456250044666
aF0.0027427233288094426
aF6.957277486111538
aF8.198406176872091e-05
aF3.00722532628918
aF0.0
aF0.007058478868756389
aF15.864495458748534
aF0.0
aF0.0008441258250673498
aF6.638593757773896
aF0.0
aF0.005343267745117836
aF8.387341948082407
aF0.0
aF1.1593300290284975e-05
aF1.4099049583315886
atp45
a(g1
(lp46
F0.021412657973115572
aF8.975170819385486
aF0.018448800733299162
aF8.548949163157864
aF0.009239447820628193
aF6.894753244788589
aF0.0003729702614878937
aF2.9792855039855954
aF0.0
aF0.029737180303451766
aF15.419848000750903
aF0.0
aF0.0037017464328464793
aF6.595939972305092
aF0.0
aF0.022336154753589944
aF7.9644049182656715
aF0.0
aF5.222634524437787e-05
aF1.3493102639343988
atp47
a(g1
(lp48
F0.0
aF8.245281358425764
aF0.0
aF7.835868809242759
aF0.0
aF6.254411732328809
aF0.0
aF2.5734815250015415
aF0.0
aF0.0
aF12.84424218118796
aF0.0
aF0.0
aF4.892771812101362
aF0.0
aF0.0
aF6.9573189762648
aF0.0
aF0.0
aF0.9152527181031037
atp49
a(g1
(lp50
F0.0
aF9.5894580349024
aF0.0
aF9.15502954991288
aF0.0
aF7.461995374012808
aF0.0
aF3.3954308692188113
aF0.0
aF0.0
aF18.48332912004977
aF0.0
aF0.0
aF8.358122406466443
aF0.0
aF0.0
aF9.541330822309389
aF0.0
aF0.0
aF1.8894730118992518
atp51
a(g1
(lp52
F0.13565042522908186
aF9.520494106086042
aF0.12169071184312491
aF9.053438661531146
aF0.0736411550036747
aF7.2421555025528335
aF0.007334536832261889
aF3.0056603684186545
aF0.0015925195246359529
aF0.2317303851051309
aF17.27072175994071
aF1.0216647170235604e-05
aF0.04968570143231171
aF6.841094966782284
aF0.0015622586814991375
aF0.15168136692826217
aF9.193674427935939
aF2.6463511179115438e-12
aF0.0022003233717047266
aF1.2713031011993279
atp53
a(g1
(lp54
F0.18859220809783578
aF9.428383103768265
aF0.17113146661637152
aF8.985556821565504
aF0.10927724607125663
aF7.262170423300125
aF0.014061001563095069
aF3.1637826315111868
aF0.0032223949054593776
aF0.3810753345861132
aF16.89754408201968
aF5.980399666175731e-06
aF0.10050579303087998
aF7.556437873962201
aF0.003204520094712163
aF0.23623428439686978
aF8.507224035559737
aF3.8016207069085996e-14
aF0.0057102386536329415
aF1.5255606413648706
atp55
a(g1
(lp56
F0.0
aF8.618921004865049
aF0.0
aF8.180696219699746
aF0.0
aF6.492140822234213
aF0.0
aF2.6242943655553144
aF0.0
aF0.0
aF14.087762639228076
aF0.0
aF0.0
aF5.163865446553292
aF0.0
aF0.0
aF7.7114416776414565
aF0.0
aF0.0
aF0.8958429883933187
atp57
a(g1
(lp58
F0.0
aF9.610860113352738
aF0.0
aF9.172031489676236
aF0.0
aF7.468135690492531
aF0.0
aF3.4162955654438867
aF0.0
aF0.0
aF18.206091245419778
aF0.0
aF0.0
aF8.550594580108083
aF0.0
aF0.0
aF9.187387229656236
aF0.0
aF0.0
aF1.9170656584905992
atp59
a(g1
(lp60
F0.22905579538429444
aF9.411672877003511
aF0.2080734765661078
aF8.933130221214773
aF0.13373606641314556
aF7.081443088227628
aF0.018209914674487834
aF2.8072423260295367
aF0.01061084260852775
aF0.3508454226025927
aF16.658669478709296
aF7.195600225517829e-05
aF0.10127391324391102
aF6.097255455106127
aF0.01039786960456183
aF0.21304202799906852
aF9.124785259136198
aF2.1989379934235668e-11
aF0.007278410249775169
aF1.038366053224608
atp61
a(g1
(lp62
F0.21593407014009133
aF9.561330341513719
aF0.1965421198762193
aF9.110412825287648
aF0.12740560087928962
aF7.353349256781452
aF0.017795918532939478
aF3.1848399883121257
aF0.005973550968157934
aF0.3794143650766628
aF17.60014394009926
aF1.3165726192157448e-05
aF0.12100193346346233
aF7.573526743948419
aF0.0059342272559727086
aF0.21706353673192516
aF9.197578669866068
aF1.4002744189144247e-13
aF0.007832588398089759
aF1.630458021493377
atp63
a(g1
(lp64
F0.0
aF8.806684432960228
aF0.0
aF8.368549528933855
aF0.0
aF6.6795092318909335
aF0.0
aF2.79639066386751
aF0.0
aF0.0
aF14.742466197997249
aF0.0
aF0.0
aF5.781804121708145
aF0.0
aF0.0
aF7.950391670765135
aF0.0
aF0.0
aF1.1171128771111514
atp65
a(g1
(lp66
F0.0
aF9.250544894326605
aF0.0
aF8.82899815944534
aF0.0
aF7.192431302185595
aF0.0
aF3.2868775147516405
aF0.0
aF0.0
aF16.779977183790287
aF0.0
aF0.0
aF7.949047592028045
aF0.0
aF0.0
aF8.3427277185261
aF0.0
aF0.0
aF1.7428033809241317
atp67
a(g1
(lp68
F0.012290391579852534
aF9.125393091179122
aF0.01050765616093676
aF8.678424261528297
aF0.005076915493795523
aF6.947749448332845
aF0.00017349803114239016
aF2.8872257480952386
aF0.0
aF0.01116026538069587
aF15.904398459366307
aF0.0
aF0.0018600769540549117
aF6.239200366262053
aF0.0
aF0.007400164126767187
aF8.498180313631602
aF0.0
aF2.3753515449373343e-05
aF1.1796888111069732
atp69
a(g1
(lp70
F0.010371977191973093
aF9.298854030418344
aF0.008849846185933733
aF8.869092942368528
aF0.00423653069305724
aF7.197907141370199
aF0.00013869102364393726
aF3.2120510694723863
aF0.0
aF0.010855488406047309
aF16.679121733437956
aF0.0
aF0.0016153302335254057
aF7.636449139807776
aF0.0
aF0.007524591622015321
aF8.335418418373028
aF0.0
aF1.8139356664504832e-05
aF1.6115964751885716
atp71
a(g1
(lp72
F0.0
aF8.6610640802823
aF0.0
aF8.237813460125572
aF0.0
aF6.604872962214826
aF0.0
aF2.8163441269950495
aF0.0
aF0.0
aF14.179733497041404
aF0.0
aF0.0
aF5.882779189021355
aF0.0
aF0.0
aF7.441183473619479
aF0.0
aF0.0
aF1.1885421544874957
atp73
a(g1
(lp74
F0.0
aF8.58916753792944
aF0.0
aF8.161433224832356
aF0.0
aF6.510707878277465
aF0.0
aF2.707718969332892
aF0.0
aF0.0
aF13.919629345804228
aF0.0
aF0.0
aF5.591540102540678
aF0.0
aF0.0
aF7.380552161208642
aF0.0
aF0.0
aF1.0277866038756898
atp75
a(g1
(lp76
F0.0
aF8.598772535347099
aF0.0
aF8.15727380680913
aF0.0
aF6.454381516163083
aF0.0
aF2.5395911381366205
aF0.0
aF0.0
aF13.867885419332593
aF0.0
aF0.0
aF4.970569712578077
aF0.0
aF0.0
aF7.634049239314785
aF0.0
aF0.0
aF0.7962610455927654
atp77
a(g1
(lp78
F0.0
aF8.721555370438066
aF0.0
aF8.29188101880534
aF0.0
aF6.627363020184008
aF0.0
aF2.73530369625714
aF0.0
aF0.0
aF14.379145729899172
aF0.0
aF0.0
aF5.629731674085196
aF0.0
aF0.0
aF7.713894489739598
aF0.0
aF0.0
aF1.0499455722902624
atp79
a(g1
(lp80
F0.0
aF8.105241810537947
aF0.0
aF7.687298776050495
aF0.0
aF6.075388143437576
aF0.0
aF2.388091884433959
aF0.0
aF0.0
aF12.06031763369598
aF0.0
aF0.0
aF4.367004810808266
aF0.0
aF0.0
aF6.578309128688294
aF0.0
aF0.0
aF0.7080979491354672
atp81
a(g1
(lp82
F0.0
aF7.721113220363535
aF0.0
aF7.313805456969995
aF0.0
aF5.75554542043676
aF0.0
aF2.2810445506995594
aF0.0
aF0.0
aF12.27465051582668
aF0.0
aF0.0
aF4.084110143686939
aF0.0
aF0.0
aF6.758651927753667
aF0.0
aF0.0
aF0.4641390320412148
atp83
a(g1
(lp84
F0.0
aF8.05839496581322
aF0.0
aF7.633616833850314
aF0.0
aF6.007623962810802
aF0.0
aF2.3810099023893576
aF0.0
aF0.0
aF13.51072036346216
aF0.0
aF0.0
aF4.546135380647614
aF0.0
aF0.0
aF7.4650605287191265
aF0.0
aF0.0
aF0.5658954100036537
atp85
a(g1
(lp86
F0.009774219204770602
aF8.42317383662409
aF0.008334300873448636
aF7.988830890049698
aF0.003977510650091411
aF6.3295802302271875
aF0.000128370320286344
aF2.6495382229435545
aF0.0
aF0.009326603874491139
aF13.750359471970553
aF0.0
aF0.0008793471594381141
aF5.307828675974416
aF0.0
aF0.0075907238218372655
aF7.226056524955839
aF0.0
aF1.5432823915208507e-05
aF0.7964299950881952
atp87
a(g1
(lp88
F0.0
aF7.805176603545128
aF0.0
aF7.3854532993109325
aF0.0
aF5.791255188522567
aF0.0
aF2.3171103326277542
aF0.0
aF0.0
aF11.863710038443157
aF0.0
aF0.0
aF4.214615488920285
aF0.0
aF0.0
aF6.307728245943999
aF0.0
aF0.0
aF0.5111886122812943
atp89
a(g1
(lp90
F0.0
aF8.32167266229142
aF0.0
aF7.901249233750895
aF0.0
aF6.296425100358338
aF0.0
aF2.7033369911475056
aF0.0
aF0.0
aF14.196141093038012
aF0.0
aF0.0
aF5.446335169129459
aF0.0
aF0.0
aF7.476537099992408
aF0.0
aF0.0
aF0.8029987260400884
atp91
a(g1
(lp92
F0.0220063145859612
aF8.774758551320081
aF0.018968515002599013
aF8.34335096923953
aF0.009518881969117751
aF6.683788204063656
aF0.00038785936051659894
aF2.897467582093569
aF0.0
aF0.0173975345169501
aF16.574624379844277
aF0.0
aF0.003114291083162703
aF6.33370233110484
aF0.0
aF0.011294135597160929
aF8.739879897306432
aF0.0
aF3.8023431458486145e-05
aF0.9665174737005036
atp93
a(g1
(lp94
F0.5637850887517898
aF7.914629626816297
aF0.5268095591216637
aF7.493741823803606
aF0.38629514270732945
aF5.8867303850303765
aF0.09919891280923068
aF2.328339997224073
aF0.11460004703601885
aF0.7213089442827305
aF13.228207348050113
aF0.0013584795223205988
aF0.26342696509026975
aF4.577117929235814
aF0.11061935417774837
aF0.41732885425810773
aF7.231529898071611
aF2.1842599369544846e-09
aF0.042436782265608326
aF0.6355139911335381
atp95
a(g1
(lp96
F0.13159937994861878
aF7.635995279595935
aF0.11769181639250498
aF7.235888144248535
aF0.0702340952011179
aF5.704347714390726
aF0.006605756813438508
aF2.2667191021736115
aF0.0022625490572319444
aF0.1537811498755763
aF12.909144878298886
aF1.9981524098874306e-05
aF0.035436223619562654
aF4.246424842374318
aF0.0022036478960242127
aF0.09316676906696136
aF7.05097145543583
aF1.340493244918928e-11
aF0.0010269485154618728
aF0.467640354789351
atp97
a(g1
(lp98
F0.0
aF8.147097609645813
aF0.0
aF7.705288743723695
aF0.0
aF6.02013043860511
aF0.0
aF2.3225328321242595
aF0.0
aF0.0
aF14.032857806995205
aF0.0
aF0.0
aF4.422317108339925
aF0.0
aF0.0
aF7.980688527571625
aF0.0
aF0.0
aF0.4957462064219476
atp99
a(g1
(lp100
F0.14514989003884485
aF8.472886808478092
aF0.12934769029994972
aF8.038402741111321
aF0.07594521365587115
aF6.374613017478507
aF0.0066957806448118586
aF2.6515609505479647
aF0.005767883233854235
aF0.12059916881656657
aF15.881096945720486
aF7.970240308837136e-05
aF0.030087481713586446
aF5.518145101644195
aF0.00553523504628137
aF0.07331174080764705
aF8.683311841897474
aF2.018161381664865e-10
aF0.0013343513823256357
aF0.7380987724281686
atp101
a(g1
(lp102
F1.16541922165453
aF6.908924317059611
aF1.1286311771233026
aF6.502225614584
aF0.9762378037248248
aF4.964031394406265
aF0.5350991302216412
aF1.7201517579643169
aF0.5522461147434937
aF0.48463311599952796
aF10.858545630899268
aF0.0009513947706540078
aF1.247758643591222
aF2.9329047423250136
aF0.5494017364915422
aF0.017548233417147886
aF6.429925529384758
aF4.839521138941894e-12
aF0.5215559214189354
aF0.24615036919778313
atp103
a(g1
(lp104
F0.1817464265723835
aF8.66901694636055
aF0.16426203162567116
aF8.235643466438306
aF0.10301845104504653
aF6.575410442755854
aF0.012313466063137265
aF2.8313029107596774
aF0.004583002347620387
aF0.24984931435068952
aF15.175201520117769
aF2.645262423576756e-05
aF0.07451708653305149
aF6.053394610417587
aF0.004504551829125785
aF0.14020324235887657
aF7.8469084587840445
aF4.999497095284626e-12
aF0.0032956235532172443
aF0.9773834631578933
atp105
a(g1
(lp106
F0.0
aF8.763667688623382
aF0.0
aF8.32894311546523
aF0.0
aF6.657784902772621
aF0.0
aF2.8538415465403575
aF0.0
aF0.0
aF15.316836102010987
aF0.0
aF0.0
aF6.1408255914434635
aF0.0
aF0.0
aF8.069509515747662
aF0.0
aF0.0
aF1.0022364002266677
atp107
a(g1
(lp108
F0.03281006500024246
aF8.4390400964906
aF0.028474257640115335
aF8.014017332289502
aF0.014749052275815128
aF6.3803895546412885
aF0.0006967533278350147
aF2.671279052526022
aF6.174194839593441e-06
aF0.021916666119878525
aF15.656233671406245
aF7.123285393501252e-08
aF0.004719931221736624
aF5.612548231451952
aF5.965334038294272e-06
aF0.013013409790230905
aF8.461060374650694
aF1.0569022550994081e-13
aF6.569406826510742e-05
aF0.8159265451414579
atp109
a(g1
(lp110
F0.281828118262187
aF8.971868400113454
aF0.2574682753696593
aF8.519829530921092
aF0.1700034709035725
aF6.791357864865675
aF0.02652336694168257
aF2.9303568753180307
aF0.01935035256007802
aF0.36119861350247745
aF15.634916384431097
aF0.00013608428967165412
aF0.12053750858535892
aF6.407070197006146
aF0.01894777528976844
aF0.20678182758325006
aF8.038066212487433
aF4.6348390747342854e-11
aF0.012593617538510932
aF1.0712235202075062
atp111
a(g1
(lp112
F0.0963599577455957
aF7.71565253041927
aF0.08557577926289797
aF7.309094648782096
aF0.04938904787039886
aF5.758257728928406
aF0.003920257181594464
aF2.310752649851111
aF0.0007009306475166186
aF0.08513244954479841
aF13.481879678029728
aF6.317208416059454e-06
aF0.021748648752333247
aF4.456879917749518
aF0.0006823155663771754
aF0.047444100320257
aF7.49559144816319
aF4.501796949279654e-12
aF0.0004766550766891215
aF0.5428444327191428
atp113
a(g1
(lp114
F0.0
aF7.694296200439474
aF0.0
aF7.279402831576326
aF0.0
aF5.699342947123221
aF0.0
aF2.2278545090456316
aF0.0
aF0.0
aF12.244517977737763
aF0.0
aF0.0
aF4.0578737523276995
aF0.0
aF0.0
aF6.784630616852457
aF0.0
aF0.0
aF0.4677157806954546
atp115
a(g1
(lp116
F0.0
aF7.783244951749488
aF0.0
aF7.375010369972457
aF0.0
aF5.816460303922333
aF0.0
aF2.3527030612819884
aF0.0
aF0.0
aF13.123934875250606
aF0.0
aF0.0
aF4.480654560977222
aF0.0
aF0.0
aF7.15023937700285
aF0.0
aF0.0
aF0.5574732491971096
atp117
a(g1
(lp118
F0.014591163734378106
aF7.691108373764527
aF0.012501952753897006
aF7.279733565863281
aF0.0061019856702585066
aF5.714196723776389
aF0.00021856735807828805
aF2.2692551537436545
aF0.0
aF0.00874325197371688
aF12.811000587213032
aF0.0
aF0.0015432187634781792
aF4.193368204029863
aF0.0
aF0.005637802419273234
aF7.0522168617906935
aF0.0
aF2.16954774750525e-05
aF0.4754919820291769
atp119
a(g1
(lp120
F0.0
aF7.574306755969558
aF0.0
aF7.174046686090918
aF0.0
aF5.644510220379511
aF0.0
aF2.232036224873287
aF0.0
aF0.0
aF12.3985428816254
aF0.0
aF0.0
aF4.147119268284892
aF0.0
aF0.0
aF6.7948785307091395
aF0.0
aF0.0
aF0.4971522019422622
atp121
a(VCu
p122
(lp123
F0.8738687015424786
aF0.7280232740905765
aF0.8655691663828042
aF0.6690326444480884
aF0.8280663599314577
aF0.4597262386739752
aF0.67418112416554
aF0.10400379368399185
aF0.0
aF0.7091357053933205
aF0.1683341335682929
aF0.0
aF0.0144604587847368
aF0.012152482551981326
aF0.0
aF0.671595083012454
aF0.13767360228875283
aF0.0
aF1.1969665712469831e-05
aF1.799058530875348e-05
atp124
a(g122
(lp125
F0.8738687015424786
aF2.82571456649914
aF0.8655691663828042
aF2.627569212613303
aF0.8280663599314577
aF1.9129410928029098
aF0.67418112416554
aF0.6484631722698091
aF0.0
aF0.02838048472768327
aF2.5095459371653255
aF0.0
aF0.695215679450374
aF0.3237285225061225
aF0.0
aF9.306791349942864e-05
aF1.8044790729562863
aF0.0
aF0.6282374482944068
aF0.0026024182975897367
atp126
a.