(lp0
(VPt
p1
(lp2
F0.0
aF7.087142807189695
aF0.0
aF6.697688807642056
aF0.0
aF5.211380922903105
aF0.0
aF1.9516405594599557
aF0.0
aF0.0
aF10.087389217380567
aF0.0
aF0.0
aF3.0381733482844306
aF0.0
aF0.0
aF5.828681958199125
aF0.0
aF0.0
aF0.3430280707386043
atp3
a(g1
(lp4
F0.0
aF7.946454461208004
aF0.0
aF7.5185574723337885
aF0.0
aF5.882480800214214
aF0.0
aF2.2724063689903438
aF0.0
aF0.0
aF13.607942205326372
aF0.0
aF0.0
aF4.135105687895907
aF0.0
aF0.0
aF7.799840618897841
aF0.0
aF0.0
aF0.4586262045988869
atp5
a(g1
(lp6
F0.0
aF7.638710373237725
aF0.0
aF7.228083588165641
aF0.0
aF5.67301227418873
aF0.0
aF2.3403521482257346
aF0.0
aF0.0
aF11.934482446555812
aF0.0
aF0.0
aF4.00178064273936
aF0.0
aF0.0
aF6.595737012239162
aF0.0
aF0.0
aF0.4966890135858578
atp7
a(g1
(lp8
F0.0
aF7.178806421114831
aF0.0
aF6.793278587964478
aF0.0
aF5.329555325888383
aF0.0
aF2.1580742947075415
aF0.0
aF0.0
aF10.237886719226886
aF0.0
aF0.0
aF3.554682227768315
aF0.0
aF0.0
aF5.420228446937689
aF0.0
aF0.0
aF0.38525619734134786
atp9
a(g1
(lp10
F0.0
aF7.807159293214702
aF0.0
aF7.401749583280346
aF0.0
aF5.8613253756287
aF0.0
aF2.4807923887621572
aF0.0
aF0.0
aF13.24417262004413
aF0.0
aF0.0
aF4.476458783954797
aF0.0
aF0.0
aF7.370997723113595
aF0.0
aF0.0
aF0.546965522886461
atp11
a(g1
(lp12
F0.0
aF9.232232202081779
aF0.0
aF8.79574151354257
aF0.0
aF7.112589049159173
aF0.0
aF3.2278998068416778
aF0.0
aF0.0
aF20.64334164608857
aF0.0
aF0.0
aF7.4398920766343055
aF0.0
aF0.0
aF11.102491731724859
aF0.0
aF0.0
aF0.9674044664289205
atp13
a(g1
(lp14
F0.07920913417086228
aF8.575649519946934
aF0.07018097934926387
aF8.117540690910772
aF0.040019975293968287
aF6.373734472573136
aF0.002951178852536694
aF2.5526717885858115
aF0.0
aF0.2191836984410831
aF15.597355818638889
aF0.0
aF0.034567290867231586
aF5.239356174203806
aF0.0
aF0.15573768299179525
aF8.765875574302012
aF0.0
aF0.0007528771692292456
aF0.6989484372721377
atp15
a(g1
(lp16
F0.0005633684342628367
aF7.822528025009552
aF0.00047222182946992405
aF7.4201164229943295
aF0.00020815399561018678
aF5.874676875970736
aF4.6460838013113925e-06
aF2.3656761727813675
aF0.0
aF0.0009070282705375069
aF13.062450169877087
aF0.0
aF8.603660852726969e-05
aF4.484708870469054
aF0.0
aF0.0007096025317273381
aF7.197571292243603
aF0.0
aF4.5153957947645565e-07
aF0.5953601177502184
atp17
a(g1
(lp18
F0.0
aF8.140971410830906
aF0.0
aF7.689594261191958
aF0.0
aF5.964105689622912
aF0.0
aF2.179664411772976
aF0.0
aF0.0
aF14.002470728617388
aF0.0
aF0.0
aF4.012061561126294
aF0.0
aF0.0
aF8.340014554184508
aF0.0
aF0.0
aF0.4214468396120645
atp19
a(g1
(lp20
F0.0038676282396723797
aF9.685693541152617
aF0.0032707718900779393
aF9.215751003410915
aF0.0015023401585171623
aF7.399814701479627
aF4.059373849197881e-05
aF3.217213537052416
aF0.0
aF0.006139731249738191
aF22.85540663678299
aF0.0
aF0.0006836464309847519
aF7.60554170125876
aF0.0
aF0.004643933926879389
aF12.676065906866851
aF0.0
aF4.530767766386457e-06
aF0.9004482619742467
atp21
a(g1
(lp22
F0.194197305181928
aF9.036654397573734
aF0.17736926163962255
aF8.5381203979446
aF0.1164562904402918
aF6.635335822966331
aF0.016522401211272582
aF2.472881632252592
aF0.0
aF0.6721700023780677
aF17.401929849914012
aF0.0
aF0.16298627736119947
aF5.244741737809293
aF0.0
aF0.40380372063589703
aF10.23114035119433
aF0.0
aF0.004990878647896615
aF0.6201980918818033
atp23
a(g1
(lp24
F0.025506727756712925
aF8.307728529016806
aF0.0220393761614173
aF7.881543786500539
aF0.011185752143220646
aF6.257160291137043
aF0.0004803513070490946
aF2.68206183301223
aF0.0
aF0.05710109200073896
aF15.227840532339316
aF0.0
aF0.006094200027521386
aF5.278702832886066
aF0.0
aF0.04354157136704929
aF8.221756630134887
aF0.0
aF4.346289645249349e-05
aF0.617047966253933
atp25
a(g1
(lp26
F0.0
aF7.906971077899974
aF0.0
aF7.487505389157513
aF0.0
aF5.888360284043922
aF0.0
aF2.3863571609473375
aF0.0
aF0.0
aF13.286794739100058
aF0.0
aF0.0
aF4.295135371780046
aF0.0
aF0.0
aF7.632157324751867
aF0.0
aF0.0
aF0.5035487579176284
atp27
a(g1
(lp28
F0.0
aF9.13930012410584
aF0.0
aF8.692632459515576
aF0.0
aF6.971437014391152
aF0.0
aF3.0576911101357958
aF0.0
aF0.0
aF19.715791586429166
aF0.0
aF0.0
aF6.885857738074206
aF0.0
aF0.0
aF10.792545356895792
aF0.0
aF0.0
aF0.8621749686105767
atp29
a(g1
(lp30
F0.0645853860387019
aF8.707519322632516
aF0.05691153545870335
aF8.24398555727156
aF0.03163876058853806
aF6.489568136262576
aF0.0020734961771998474
aF2.7377106920605874
aF0.0
aF0.1615769571831786
aF16.51128608137522
aF0.0
aF0.02533782651593326
aF5.5195243103189515
aF0.0
aF0.11302602475803797
aF9.02729362589257
aF0.0
aF0.00046210818682521917
aF0.6058409911211365
atp31
a(g1
(lp32
F2.492725277791345e-07
aF8.311441361915172
aF2.0780206183263435e-07
aF7.887991569854426
aF8.92997642049103e-08
aF6.2586192960093205
aF1.7714041675604132e-09
aF2.5568202384202707
aF0.0
aF3.782040918315909e-07
aF15.22645496636687
aF0.0
aF3.7327530646582366e-08
aF5.260782668335306
aF0.0
aF2.929738363164939e-07
aF8.363443086016273
aF0.0
aF1.805715006257339e-10
aF0.6804654971200509
atp33
a(g1
(lp34
F0.0
aF7.154082115798332
aF0.0
aF6.7582031044299535
aF0.0
aF5.255451285649209
aF0.0
aF1.9991975496542302
aF0.0
aF0.0
aF10.082959547066627
aF0.0
aF0.0
aF3.295502249474259
aF0.0
aF0.0
aF5.618733678353308
aF0.0
aF0.0
aF0.36231651654604324
atp35
a(g1
(lp36
F0.0
aF7.952458741064145
aF0.0
aF7.516761695910306
aF0.0
aF5.858810737572023
aF0.0
aF2.2537586521611446
aF0.0
aF0.0
aF13.330055988602268
aF0.0
aF0.0
aF4.1821331365389876
aF0.0
aF0.0
aF7.588777598311103
aF0.0
aF0.0
aF0.48248154142380634
atp37
a(g1
(lp38
F0.0
aF7.867015626656579
aF0.0
aF7.442258940595845
aF0.0
aF5.82600604307858
aF0.0
aF2.274012620324951
aF0.0
aF0.0
aF12.939249229128162
aF0.0
aF0.0
aF4.204065257131175
aF0.0
aF0.0
aF7.243537467441105
aF0.0
aF0.0
aF0.49829588620650317
atp39
a(g1
(lp40
F0.0
aF7.571388755213425
aF0.0
aF7.163884730387592
aF0.0
aF5.608024076094082
aF0.0
aF2.1636953797216485
aF0.0
aF0.0
aF11.768660322899438
aF0.0
aF0.0
aF3.886200595113768
aF0.0
aF0.0
aF6.524026806795448
aF0.0
aF0.0
aF0.4676839316403557
atp41
a(g1
(lp42
F0.0
aF9.295898355669987
aF0.0
aF8.898663695256612
aF0.0
aF7.347431022427812
aF0.0
aF3.5647129635321644
aF0.0
aF0.0
aF18.726706829304266
aF0.0
aF0.0
aF8.785559462137027
aF0.0
aF0.0
aF9.847636137155206
aF0.0
aF0.0
aF2.214658363220637
atp43
a(g1
(lp44
F0.04934174993722003
aF9.534392458411478
aF0.043196177486140915
aF9.088262458269677
aF0.023297230650165614
aF7.359166271978563
aF0.0013264898960146005
aF3.29526920720994
aF0.0
aF0.08979740386131663
aF18.84998250744073
aF0.0
aF0.01305528214307521
aF7.636519137307391
aF0.0
aF0.06588162749908638
aF10.469126267165763
aF0.0
aF0.0003112923098908045
aF1.7533841015405838
atp45
a(g1
(lp46
F0.10502678641464587
aF8.986437030929647
aF0.09383962610930818
aF8.564361350801974
aF0.05563504982076816
aF6.9222106528267995
aF0.004915100725985397
aF3.013281444368838
aF0.0
aF0.2561276456295881
aF15.790230772465168
aF0.0
aF0.04099992482680918
aF6.6882817199449205
aF0.0
aF0.18146820206732686
aF8.298847900855394
aF0.0
aF0.0011708811649899533
aF1.3928525060460173
atp47
a(g1
(lp48
F0.0
aF7.787912743352561
aF0.0
aF7.395804886665503
aF0.0
aF5.881419893204148
aF0.0
aF2.3782299990484956
aF0.0
aF0.0
aF11.611208286176499
aF0.0
aF0.0
aF4.119636900192597
aF0.0
aF0.0
aF6.528632399057525
aF0.0
aF0.0
aF0.7340776875366349
atp49
a(g1
(lp50
F0.0
aF10.40581677764379
aF0.0
aF9.966196782460015
aF0.0
aF8.249236204893894
aF0.0
aF4.062579934639567
aF0.0
aF0.0
aF23.83057269295263
aF0.0
aF0.0
aF11.272109062111168
aF0.0
aF0.0
aF12.630170050301189
aF0.0
aF0.0
aF2.92510071186436
atp51
a(g1
(lp52
F0.23071667202507637
aF10.5093808554592
aF0.21224385902515347
aF10.01738014070365
aF0.14408079835491633
aF8.103918317824236
aF0.023864708411162568
aF3.5716666632103014
aF0.0
aF0.634165239503136
aF22.850228814791322
aF0.0
aF0.16714674689254572
aF9.11051172485318
aF0.0
aF0.4017185673105136
aF12.584475252295919
aF0.0
aF0.014019924973880807
aF1.9201004424899781
atp53
a(g1
(lp54
F0.33989900227354286
aF9.861496865035074
aF0.31836028118234627
aF9.407184260309158
aF0.2349382991326359
aF7.638608438752964
aF0.05733585254556503
aF3.4232217792047024
aF0.0
aF1.1051891962954394
aF19.04762681999919
aF0.0
aF0.40047536056129973
aF8.663656574762616
aF0.0
aF0.6123571421755695
aF9.807451687567395
aF0.0
aF0.03798741194269548
aF1.895601236655614
atp55
a(g1
(lp56
F0.00735006276754752
aF8.402125305744345
aF0.006248930135197026
aF7.970436800579248
aF0.0029419922372559853
aF6.310204445212881
aF8.914152763469697e-05
aF2.5349180556089985
aF0.0
aF0.00975343237375526
aF13.814673861551135
aF0.0
aF0.0011341230292027992
aF4.748254498939462
aF0.0
aF0.007143400965211783
aF7.815038159169033
aF0.0
aF6.287230698113839e-06
aF0.7711378645215964
atp57
a(g1
(lp58
F9.942872788387563e-05
aF10.448446687073183
aF8.307330440548284e-05
aF10.002035102089993
aF3.6073113930000645e-05
aF8.262924575489631
aF7.509980329653235e-07
aF4.057093990023728
aF0.0
aF0.00010424569446957128
aF23.505261738946924
aF0.0
aF1.1014893025512674e-05
aF11.396332010961595
aF0.0
aF7.951791007595262e-05
aF12.204074947178592
aF0.0
aF6.187807464800203e-08
aF2.843082969839703
atp59
a(g1
(lp60
F0.3365236990003021
aF10.430962436144972
aF0.3149641980047178
aF9.922988018171857
aF0.2316769905141065
aF7.949426896531986
aF0.055798208042931036
aF3.318019631042919
aF0.00020994378635066422
aF0.8754937838923569
aF22.362817564070035
aF6.0495002935420625e-06
aF0.32448385955463827
aF8.08942464715108
aF0.00019279303631117628
aF0.5105165263701921
aF12.78398262750709
aF1.329098750741292e-10
aF0.03968504269814294
aF1.5810716602847454
atp61
a(g1
(lp62
F0.35796741231297624
aF10.109399056530126
aF0.3361591782796491
aF9.647944240674471
aF0.25109407982283444
aF7.847704902483073
aF0.06481980400589955
aF3.5561734678151558
aF0.0
aF1.0286477283931676
aF20.410932819109377
aF0.0
aF0.4476058998455625
aF9.14175549141459
aF0.0
aF0.5303204933553609
aF10.945923583891657
aF0.0
aF0.049293486311046394
aF2.3016913685456255
atp63
a(g1
(lp64
F0.0014871042384858903
aF8.674011617106668
aF0.0012508128221019245
aF8.238479570866355
aF0.0005602490928783566
aF6.563471098057975
aF1.3469242282049974e-05
aF2.753003282475669
aF0.0
aF0.001817230450551831
aF14.671887817937797
aF0.0
aF0.0002035090522868744
aF5.515008958799762
aF0.0
aF0.0013466365586084674
aF8.136641512738374
aF0.0
aF1.0261792919149088e-06
aF1.0492213476165066
atp65
a(g1
(lp66
F0.0
aF9.574133474725013
aF0.0
aF9.1572650323769
aF0.0
aF7.5363645953511025
aF0.0
aF3.6330173801165526
aF0.0
aF0.0
aF19.230521368913752
aF0.0
aF0.0
aF9.374848081351052
aF0.0
aF0.0
aF9.728124844470573
aF0.0
aF0.0
aF2.189786762316034
atp67
a(g1
(lp68
F0.07057170408082276
aF9.702537990584839
aF0.0623310129284038
aF9.242491066354955
aF0.035026755963566844
aF7.452903914795294
aF0.002413183911466803
aF3.1881166113735557
aF0.0
aF0.11887197019310426
aF19.131588172562164
aF0.0
aF0.024062418990324196
aF7.391462889350034
aF0.0
aF0.07501119684820692
aF10.626686465336423
aF0.0
aF0.0005808415056260297
aF1.5287244394570259
atp69
a(g1
(lp70
F0.060431658669944856
aF9.54109454806369
aF0.053161792840752356
aF9.109370198450334
aF0.029324192397129276
aF7.425353930867244
aF0.0018533704578814964
aF3.3704837362300535
aF0.0
aF0.11636188647695805
aF18.111891818662638
aF0.0
aF0.02091892404106037
aF8.29697600075423
aF0.0
aF0.07599880811007693
aF9.211444071214629
aF0.0
aF0.00038020278377903793
aF1.807170192545399
atp71
a(g1
(lp72
F0.0
aF8.392945905733288
aF0.0
aF7.981113834347337
aF0.0
aF6.391263065330536
aF0.0
aF2.71439453073512
aF0.0
aF0.0
aF13.507129216882102
aF0.0
aF0.0
aF5.443139913792207
aF0.0
aF0.0
aF7.1887061910636865
aF0.0
aF0.0
aF1.0492520479687109
atp73
a(g1
(lp74
F0.0
aF8.327911180316486
aF0.0
aF7.905078762899278
aF0.0
aF6.275637852123348
aF0.0
aF2.5544952813898667
aF0.0
aF0.0
aF13.229483817904185
aF0.0
aF0.0
aF5.005742726940206
aF0.0
aF0.0
aF7.194385288152855
aF0.0
aF0.0
aF0.8382313166548232
atp75
a(g1
(lp76
F0.0
aF8.363317358487556
aF0.0
aF7.923892292128279
aF0.0
aF6.230982816198002
aF0.0
aF2.3768399726847607
aF0.0
aF0.0
aF13.246767981583398
aF0.0
aF0.0
aF4.411312636479917
aF0.0
aF0.0
aF7.508676761976878
aF0.0
aF0.0
aF0.6260824383874748
atp77
a(g1
(lp78
F0.0
aF8.402664922485924
aF0.0
aF7.98412877107935
aF0.0
aF6.365767581450915
aF0.0
aF2.601615129074929
aF0.0
aF0.0
aF13.420364668188864
aF0.0
aF0.0
aF5.0668147421242296
aF0.0
aF0.0
aF7.387253612208704
aF0.0
aF0.0
aF0.9198948690110088
atp79
a(g1
(lp80
F0.0
aF7.471355264281085
aF0.0
aF7.0784684277995895
aF0.0
aF5.564248703725911
aF0.0
aF2.1291758742776596
aF0.0
aF0.0
aF10.230585983605284
aF0.0
aF0.0
aF3.4813089610494647
aF0.0
aF0.0
aF5.702647183420586
aF0.0
aF0.0
aF0.5017887610275229
atp81
a(g1
(lp82
F0.0
aF7.548765386651546
aF0.0
aF7.153607424176021
aF0.0
aF5.637129778979275
aF0.0
aF2.234780958762908
aF0.0
aF0.0
aF12.369355388800662
aF0.0
aF0.0
aF3.8461851515180543
aF0.0
aF0.0
aF7.082068311565242
aF0.0
aF0.0
aF0.39896365478807894
atp83
a(g1
(lp84
F0.0
aF8.283465681119345
aF0.0
aF7.85906330727651
aF0.0
aF6.229682511318654
aF0.0
aF2.5560863544582126
aF0.0
aF0.0
aF15.048440641222932
aF0.0
aF0.0
aF4.98391382674317
aF0.0
aF0.0
aF8.482595692912245
aF0.0
aF0.0
aF0.613954352982463
atp85
a(g1
(lp86
F0.027951244034873646
aF8.58640074885608
aF0.024190133748850588
aF8.149563540940466
aF0.012368550946211082
aF6.481954332447856
aF0.0005497101151980609
aF2.7982514038532877
aF0.0
aF0.04501913462555816
aF13.954549700714065
aF0.0
aF0.005300693252492272
aF5.6963120204393505
aF0.0
aF0.03531228511410799
aF7.4293215673379205
aF0.0
aF9.037457004055251e-05
aF0.9870810694750269
atp87
a(g1
(lp88
F0.0
aF7.602459812637795
aF0.0
aF7.199353096393728
aF0.0
aF5.668534771515346
aF0.0
aF2.3312889095657727
aF0.0
aF0.0
aF11.03923797914363
aF0.0
aF0.0
aF4.113484966423878
aF0.0
aF0.0
aF5.7757156311858076
aF0.0
aF0.0
aF0.5130911809191623
atp89
a(g1
(lp90
F0.0
aF8.7947867399299
aF0.0
aF8.375051255386662
aF0.0
aF6.7624807615249365
aF0.0
aF3.0685628884654905
aF0.0
aF0.0
aF16.49339495848481
aF0.0
aF0.0
aF6.682111548474366
aF0.0
aF0.0
aF8.944163376349305
aF0.0
aF0.0
aF1.1971032224204063
atp91
a(g1
(lp92
F0.04841637704426635
aF9.894575708034216
aF0.042367791371854764
aF9.454897579896466
aF0.022804772848559682
aF7.752190651286835
aF0.001286446099229599
aF3.7496752835525684
aF0.0
aF0.07096236316987131
aF22.255835522422903
aF0.0
aF0.011791739664473212
aF9.663952592012889
aF0.0
aF0.048232173849784364
aF11.563814724632024
aF0.0
aF0.00019580745859751176
aF1.9063852757344626
atp93
a(g1
(lp94
F0.6729069564203102
aF8.063953099014547
aF0.6427139314017196
aF7.634458407106611
aF0.5239733035892414
aF5.993485502991215
aF0.2263097055971991
aF2.357158658140412
aF0.05629373711415882
aF1.4641163799454466
aF14.436970469112948
aF0.0033766324632631653
aF0.7025007099050827
aF4.780413853211189
aF0.047267663982296655
aF0.8288780938065896
aF8.12074663275157
aF6.118697500581e-07
aF0.1727612215201599
aF0.641453351343611
atp95
a(g1
(lp96
F0.2715904534625098
aF7.260158163067021
aF0.2513047134676836
aF6.875873981456445
aF0.17544375331928783
aF5.400240033725098
aF0.033436732489831436
aF2.069470069390178
aF0.0008796709114144196
aF0.5513046060160396
aF12.650340385517323
aF4.153238060617439e-05
aF0.1418325085135462
aF3.743353108214371
aF0.0007659747978551986
aF0.33148295308095616
aF7.1862326055316315
aF3.80610580707438e-09
aF0.00725337731987619
aF0.32595534593840975
atp97
a(g1
(lp98
F0.0
aF8.448636970842324
aF0.0
aF7.996902209486173
aF0.0
aF6.266643586208686
aF0.0
aF2.423277997603293
aF0.0
aF0.0
aF16.446329338681437
aF0.0
aF0.0
aF4.781180549257788
aF0.0
aF0.0
aF9.840508158165052
aF0.0
aF0.0
aF0.5027541761991431
atp99
a(g1
(lp100
F0.15170963626348988
aF10.060597101466728
aF0.13725487592623548
aF9.593576752368147
aF0.08623558254950693
aF7.792102923741339
aF0.009972918500813072
aF3.641433288009737
aF0.0
aF0.26443196349472065
aF23.419029981184643
aF0.0
aF0.06128226603814194
aF9.245751362369136
aF0.0
aF0.16666859971641576
aF12.709780863256036
aF0.0
aF0.0030444706204808235
aF1.6640250130321952
atp101
a(g1
(lp102
F1.1473485547237
aF7.359194384919761
aF1.1211306258733889
aF6.929762078828069
aF1.017745820801468
aF5.304300207730045
aF0.7535626861227271
aF1.873537783173513
aF0.25485001481208325
aF0.8695822502396909
aF12.907220503860225
aF0.0028841820849739627
aF2.487726894371997
aF3.4245584163889795
aF0.24638968102313336
aF0.03335907520531436
aF7.779496943423402
aF4.041797605685718e-09
aF1.1490600744074415
aF0.28961039611108785
atp103
a(g1
(lp104
F0.2570109490828812
aF9.444677799647277
aF0.23755852480082343
aF9.005973403210177
aF0.16486043655545682
aF7.313092495286097
aF0.030248859328873362
aF3.395672076548602
aF0.0
aF0.6785074520521505
aF17.816344737975303
aF0.0
aF0.20817104492512473
aF8.286006565155846
aF0.0
aF0.3704631244923934
aF9.001241258001876
aF0.0
aF0.016445489026274945
aF1.7162817264272443
atp105
a(g1
(lp106
F0.0
aF9.079144968072518
aF0.0
aF8.646809345762492
aF0.0
aF6.975135488820182
aF0.0
aF3.105114433838571
aF0.0
aF0.0
aF16.88528475571678
aF0.0
aF0.0
aF7.066264082218525
aF0.0
aF0.0
aF9.197825689329639
aF0.0
aF0.0
aF1.3654499106222397
atp107
a(g1
(lp108
F0.05484020457851478
aF9.698262664397843
aF0.048128622025632575
aF9.251604474744902
aF0.026257029012949323
aF7.524951955990144
aF0.001576794426633686
aF3.50403061539384
aF0.0
aF0.06867877848473773
aF21.287913352601397
aF0.0
aF0.012987509574444292
aF8.73380575744174
aF0.0
aF0.044049466338424485
aF11.297615902125262
aF0.0
aF0.0002120749234049807
aF1.6119109326612788
atp109
a(g1
(lp110
F0.315777582177051
aF9.918100794862916
aF0.29469820131113483
aF9.434641393865986
aF0.21385141868691118
aF7.5829445915111116
aF0.04827248372993367
aF3.440329070609245
aF0.0
aF0.7948936732582832
aF18.881530472338262
aF0.0
aF0.3211499531339482
aF8.542722138063782
aF0.0
aF0.4346362772831267
aF9.684074874037721
aF0.0
aF0.05891570012762166
aF1.7056516835561826
atp111
a(g1
(lp112
F0.20556402915650493
aF7.398993435116244
aF0.18818690386652007
aF7.006626462714821
aF0.12489606305370145
aF5.506161427595842
aF0.01862767666575362
aF2.157905535453429
aF1.6264642957727183e-07
aF0.31287744600011624
aF13.561249059232887
aF7.390238965623016e-09
aF0.0851064026090114
aF4.074666116675983
aF1.4234767365084315e-07
aF0.17509297999822626
aF7.809010413896838
aF6.0674494166685e-13
aF0.003233400535941595
aF0.4062447344230317
atp113
a(g1
(lp114
F0.0
aF7.35087376342468
aF0.0
aF6.952175875885962
aF0.0
aF5.4314020951504105
aF0.0
aF2.0828243699930193
aF0.0
aF0.0
aF11.519879330316964
aF0.0
aF0.0
aF3.6102263965983803
aF0.0
aF0.0
aF6.552495994098876
aF0.0
aF0.0
aF0.3716905930956835
atp115
a(g1
(lp116
F0.0
aF7.6002713728323155
aF0.0
aF7.203257540694366
aF0.0
aF5.6809029017562995
aF0.0
aF2.265662601129817
aF0.0
aF0.0
aF13.922027493743734
aF0.0
aF0.0
aF4.255448513703838
aF0.0
aF0.0
aF7.9799731293246365
aF0.0
aF0.0
aF0.4495966653464544
atp117
a(g1
(lp118
F0.05837073754161644
aF7.645507219792409
aF0.05130467653900799
aF7.233921172959658
aF0.028187109663794327
aF5.666736867991812
aF0.0017488136840862886
aF2.2159251360861454
aF0.0
aF0.06483315047988879
aF13.064246502172816
aF0.0
aF0.013938011634694165
aF4.080393099311353
aF0.0
aF0.03924201143056402
aF7.354926349089882
aF0.0
aF0.00029136656985906455
aF0.42612246403517784
atp119
a(g1
(lp120
F0.0008401875982694425
aF7.423362888502766
aF0.0007051180252356102
aF7.0386195924001544
aF0.0003125862253410874
aF5.560688669779974
aF7.163639516237214e-06
aF2.2160553246515913
aF0.0
aF0.0007100321270903065
aF12.261353254783195
aF0.0
aF9.45813703907415e-05
aF4.099023804744033
aF0.0
aF0.0004999169611438392
aF6.728898580267572
aF0.0
aF5.084559208525534e-07
aF0.4920667349026219
atp121
a(VCu
p122
(lp123
F0.554673957362328
aF0.34238046836985314
aF0.5335916741203373
aF0.3128255564508308
aF0.44575579052652126
aF0.20661645890320726
aF0.193434070143272
aF0.03235065914394936
aF0.0
aF0.31478945234044386
aF0.03507353132981761
aF0.0
aF0.003752480749368674
aF0.001444777009872423
aF0.0
aF0.3045099562774187
aF0.031087676370293943
aF0.0
aF4.967782325020382e-07
aF1.5030540034733504e-07
atp124
a(g122
(lp125
F0.554673957362328
aF4.79729152325725
aF0.5335916741203373
aF4.4988018581560505
aF0.44575579052652126
aF3.39994304136932
aF0.193434070143272
aF1.3277520801624578
aF0.0
aF0.018478026917698297
aF6.942158845582707
aF0.0
aF0.3000639061721142
aF1.151853133251095
aF0.0
aF0.00010843716028683423
aF4.6725715903832885
aF0.0
aF0.25882419085821423
aF0.020596125515253007
atp126
a.