(lp0
(VPt
p1
(lp2
F0.0
aF7.310354785168456
aF0.0
aF6.909601893945377
aF0.0
aF5.381530866743323
aF0.0
aF2.0330119724298936
aF0.0
aF0.0
aF10.809814840607174
aF0.0
aF0.0
aF3.360209427803734
aF0.0
aF0.0
aF6.099962286979443
aF0.0
aF0.0
aF0.37121849592018563
atp3
a(g1
(lp4
F0.0
aF7.890898005011398
aF0.0
aF7.459950991323867
aF0.0
aF5.813414351978335
aF0.0
aF2.1978969168216946
aF0.0
aF0.0
aF13.124424530090687
aF0.0
aF0.0
aF4.039424728209027
aF0.0
aF0.0
aF7.406852081681264
aF0.0
aF0.0
aF0.4294165201145505
atp5
a(g1
(lp6
F0.0
aF7.714721919382387
aF0.0
aF7.299459971832647
aF0.0
aF5.723578002941252
aF0.0
aF2.315222998669038
aF0.0
aF0.0
aF12.267242545613737
aF0.0
aF0.0
aF4.118485104481574
aF0.0
aF0.0
aF6.666360610239467
aF0.0
aF0.0
aF0.47499394510260456
atp7
a(g1
(lp8
F0.0
aF7.3813536509452495
aF0.0
aF6.982612768894806
aF0.0
aF5.467579626808222
aF0.0
aF2.1740719877265686
aF0.0
aF0.0
aF10.93560338637606
aF0.0
aF0.0
aF3.7324684320498
aF0.0
aF0.0
aF5.832586778782883
aF0.0
aF0.0
aF0.40452614954393307
atp9
a(g1
(lp10
F0.0
aF7.7821950753549265
aF0.0
aF7.374751046667075
aF0.0
aF5.825388502714233
aF0.0
aF2.4133283709252593
aF0.0
aF0.0
aF12.959092287560011
aF0.0
aF0.0
aF4.438109867273919
aF0.0
aF0.0
aF7.016944884072457
aF0.0
aF0.0
aF0.510603427350934
atp11
a(g1
(lp12
F0.0
aF8.653693993125191
aF0.0
aF8.22164166731199
aF0.0
aF6.563001658761548
aF0.0
aF2.8077295424501
aF0.0
aF0.0
aF17.127003854421098
aF0.0
aF0.0
aF6.010461352750823
aF0.0
aF0.0
aF9.198076034960758
aF0.0
aF0.0
aF0.7359882683135417
atp13
a(g1
(lp14
F0.03118982609890894
aF8.263136246411177
aF0.027046932998605795
aF7.819567785233346
aF0.013958129325369795
aF6.130408897763775
aF0.0006476515579053161
aF2.4185159440976327
aF0.0
aF0.06356532751100406
aF14.352887789087124
aF0.0
aF0.008471119838203936
aF4.817113672111737
aF0.0
aF0.04735623663639851
aF7.933379864621013
aF0.0
aF0.00013761522170018051
aF0.604330185792275
atp15
a(g1
(lp16
F0.0
aF7.827165689839252
aF0.0
aF7.419638567849958
aF0.0
aF5.85759635208409
aF0.0
aF2.3386111618286605
aF0.0
aF0.0
aF13.01155912633157
aF0.0
aF0.0
aF4.444836894114956
aF0.0
aF0.0
aF7.091344481288247
aF0.0
aF0.0
aF0.5589939829424528
atp17
a(g1
(lp18
F0.0
aF8.004335328128473
aF0.0
aF7.560189051536062
aF0.0
aF5.864042306044705
aF0.0
aF2.1468812901139955
aF0.0
aF0.0
aF13.338531988454134
aF0.0
aF0.0
aF3.9603747532048104
aF0.0
aF0.0
aF7.726522934353531
aF0.0
aF0.0
aF0.40446718046782076
atp19
a(g1
(lp20
F0.0
aF8.833628802903934
aF0.0
aF8.378181218373909
aF0.0
aF6.628721876138197
aF0.0
aF2.6937872593079666
aF0.0
aF0.0
aF17.754101850328226
aF0.0
aF0.0
aF5.791637766478989
aF0.0
aF0.0
aF9.84408598122194
aF0.0
aF0.0
aF0.6616656493363655
atp21
a(g1
(lp22
F0.1071329268789698
aF8.424544365767757
aF0.09578155989756013
aF7.951121881123929
aF0.056952144855178084
aF6.15059184921552
aF0.00509999934809145
aF2.253696982939983
aF0.0
aF0.2763662895289582
aF14.66273030157718
aF0.0
aF0.05663207569743711
aF4.458195411981698
aF0.0
aF0.17768120855625677
aF8.481982996497203
aF0.0
aF0.0012613404929546226
aF0.5148530987717225
atp23
a(g1
(lp24
F0.0026579165125436965
aF8.129347490640168
aF0.002242289527547036
aF7.7031033994409155
aF0.0010183849985188858
aF6.079228432926225
aF2.6113770738378832e-05
aF2.5083836940994875
aF0.0
aF0.004187765255204225
aF14.271579756999817
aF0.0
aF0.0004402603926158982
aF4.874386015740276
aF0.0
aF0.0031811362364320217
aF7.675394130521741
aF0.0
aF1.7574673047354174e-06
aF0.5553143560598487
atp25
a(g1
(lp26
F0.0
aF7.918673702284227
aF0.0
aF7.4997829521895225
aF0.0
aF5.901349446177733
aF0.0
aF2.379557577795584
aF0.0
aF0.0
aF13.290231070628362
aF0.0
aF0.0
aF4.4179251478238735
aF0.0
aF0.0
aF7.363643937790612
aF0.0
aF0.0
aF0.486430323061563
atp27
a(g1
(lp28
F0.0
aF8.572128057339807
aF0.0
aF8.13279808933365
aF0.0
aF6.445050860915475
aF0.0
aF2.6518751038879906
aF0.0
aF0.0
aF16.50931467348973
aF0.0
aF0.0
aF5.571284743726232
aF0.0
aF0.0
aF9.056209505434412
aF0.0
aF0.0
aF0.6689447519442498
atp29
a(g1
(lp30
F0.023186832666775348
aF8.261096038510551
aF0.020002952815764124
aF7.814999957057776
aF0.010077403281699811
aF6.127306140978587
aF0.0004181543137545372
aF2.5047653419312645
aF0.0
aF0.04117785370839527
aF14.563848186181822
aF0.0
aF0.0058091636510548385
aF4.8581704132508134
aF0.0
aF0.029461163923863214
aF7.90542169004285
aF0.0
aF7.640539302995703e-05
aF0.5277199240395072
atp31
a(g1
(lp32
F0.0
aF8.19391740082214
aF0.0
aF7.7689154205237125
aF0.0
aF6.137262757133049
aF0.0
aF2.4615620197716916
aF0.0
aF0.0
aF14.5890456816857
aF0.0
aF0.0
aF4.967744618565276
aF0.0
aF0.0
aF7.97347597660715
aF0.0
aF0.0
aF0.6104142725519178
atp33
a(g1
(lp34
F0.0
aF7.403891946634242
aF0.0
aF6.9966991277277915
aF0.0
aF5.448704828275528
aF0.0
aF2.0770601311450383
aF0.0
aF0.0
aF11.005713313756438
aF0.0
aF0.0
aF3.596448432060456
aF0.0
aF0.0
aF6.084443996623064
aF0.0
aF0.0
aF0.39081038410109326
atp35
a(g1
(lp36
F0.0
aF7.875173277618782
aF0.0
aF7.442828368440177
aF0.0
aF5.798536529654122
aF0.0
aF2.2235219621060054
aF0.0
aF0.0
aF12.959928800086002
aF0.0
aF0.0
aF4.1351955132799505
aF0.0
aF0.0
aF7.227461880527778
aF0.0
aF0.0
aF0.46775934117717155
atp37
a(g1
(lp38
F0.0
aF7.844010610989067
aF0.0
aF7.421322938740587
aF0.0
aF5.811601808445594
aF0.0
aF2.266571237483174
aF0.0
aF0.0
aF12.915514830894455
aF0.0
aF0.0
aF4.223170650191231
aF0.0
aF0.0
aF7.138085669211307
aF0.0
aF0.0
aF0.4915382301018106
atp39
a(g1
(lp40
F0.0
aF7.689177795301865
aF0.0
aF7.274834996882244
aF0.0
aF5.692659418943175
aF0.0
aF2.1925595662705355
aF0.0
aF0.0
aF12.203778662551802
aF0.0
aF0.0
aF4.028118322247719
aF0.0
aF0.0
aF6.72146091609695
aF0.0
aF0.0
aF0.4717210162815113
atp41
a(g1
(lp42
F0.0
aF9.123456730574715
aF0.0
aF8.718480728298552
aF0.0
aF7.142447501052396
aF0.0
aF3.351645592603597
aF0.0
aF0.0
aF16.963774052035948
aF0.0
aF0.0
aF7.968450331115203
aF0.0
aF0.0
aF8.65376618470094
aF0.0
aF0.0
aF1.892020331713992
atp43
a(g1
(lp44
F0.018539882945475167
aF9.20918213475592
aF0.015938579731720907
aF8.767786244844114
aF0.007901237399391458
aF7.062777268437573
aF0.00030419353988862444
aF3.0875063298021606
aF0.0
aF0.023776314610660255
aF16.631341957434177
aF0.0
aF0.0030994586139801534
aF6.901839754899804
aF0.0
aF0.017750792851958592
aF8.934475578174965
aF0.0
aF5.50852684560068e-05
aF1.5150019911422974
atp45
a(g1
(lp46
F0.044432326717678626
aF8.980980532056797
aF0.038807218014229365
aF8.55639734437857
aF0.02070377492543852
aF6.907536509933737
aF0.0011208095181326745
aF2.9970645396277082
aF0.0
aF0.07708451298050807
aF15.563931637866816
aF0.0
aF0.010554377473217389
aF6.645409893804862
aF0.0
aF0.05677007286233363
aF8.084603012482525
aF0.0
aF0.0002004413445271584
aF1.3744665466353445
atp47
a(g1
(lp48
F0.0
aF8.104255463496397
aF0.0
aF7.699905628562966
aF0.0
aF6.138325424365006
aF0.0
aF2.510740835308836
aF0.0
aF0.0
aF12.478899397138402
aF0.0
aF0.0
aF4.630809491538989
aF0.0
aF0.0
aF6.856388670582358
aF0.0
aF0.0
aF0.8560604803388305
atp49
a(g1
(lp50
F0.0
aF9.825592627866541
aF0.0
aF9.390296756082009
aF0.0
aF7.692426454292013
aF0.0
aF3.5922308451348104
aF0.0
aF0.0
aF19.964832427273517
aF0.0
aF0.0
aF9.18027905713875
aF0.0
aF0.0
aF10.383298468215958
aF0.0
aF0.0
aF2.180583596530364
atp51
a(g1
(lp52
F0.1687798078611187
aF9.794758281661759
aF0.15321760440562535
aF9.320325101049525
aF0.09782748614993819
aF7.478913904822107
aF0.012241544327383025
aF3.155154568854507
aF0.00024168840406357025
aF0.3523304440218316
aF18.727259213260133
aF2.8397434456285497e-06
aF0.08273708632875622
aF7.417138093942777
aF0.00023336551653833996
aF0.22662061931974187
aF10.076623674729662
aF4.447642280087192e-12
aF0.004799174924397651
aF1.4303445608078187
atp53
a(g1
(lp54
F0.23724859820614425
aF9.567801519871823
aF0.21825500094074762
aF9.122185686966908
aF0.14828494163783443
aF7.3872287495935325
aF0.024867651869750325
aF3.2532064492415165
aF0.0008604353640507974
aF0.5868553786414493
aF17.59532702371655
aF3.2901321735591546e-06
aF0.17586843685874048
aF7.930823489174182
aF0.0008506399740412396
aF0.3489464137752505
aF8.907411495531596
aF1.8185538318025398e-13
aF0.012290196267420263
aF1.6458228898207616
atp55
a(g1
(lp56
F0.0
aF8.556262275265231
aF0.0
aF8.119519628036109
aF0.0
aF6.4377665333302705
aF0.0
aF2.595325093832154
aF0.0
aF0.0
aF14.04102174280769
aF0.0
aF0.0
aF5.0202362669203735
aF0.0
aF0.0
aF7.787263361733656
aF0.0
aF0.0
aF0.8563244215968835
atp57
a(g1
(lp58
F0.0
aF9.842979375985953
aF0.0
aF9.401916727167034
aF0.0
aF7.687721504668046
aF0.0
aF3.590490116272139
aF0.0
aF0.0
aF19.590367661340622
aF0.0
aF0.0
aF9.30211018102023
aF0.0
aF0.0
aF9.959048277252611
aF0.0
aF0.0
aF2.1538323824452577
atp59
a(g1
(lp60
F0.26771704714068484
aF9.68833662969271
aF0.24627670622952672
aF9.200181195310813
aF0.16772633904677306
aF7.30929147512439
aF0.029381905306665356
aF2.928231437507115
aF0.006148487974061166
aF0.5070955203658766
aF18.09838439850138
aF7.63258170567704e-05
aF0.1637521811769924
aF6.555262054202644
aF0.005925079996013546
aF0.30117787325265094
aF10.060101607920865
aF1.40704100696375e-10
aF0.014578074525846389
aF1.155049502750156
atp61
a(g1
(lp62
F0.26045014572980274
aF9.741110109826828
aF0.240237784570481
aF9.287470961079693
aF0.16539374450980923
aF7.518679595574014
aF0.029787066928047966
aF3.3119819802256267
aF0.00228768533079259
aF0.5626329933516949
aF18.537896657675734
aF1.0520056666587937e-05
aF0.2034515500538026
aF8.08956720736652
aF0.0022564132140169596
aF0.3089241524800741
aF9.775740100669848
aF1.0090340027805465e-12
aF0.016289180069643514
aF1.8516099893436533
atp63
a(g1
(lp64
F0.0
aF8.775353247451585
aF0.0
aF8.337388550472927
aF0.0
aF6.650302317875799
aF0.0
aF2.7847191344910134
aF0.0
aF0.0
aF14.770952545760748
aF0.0
aF0.0
aF5.697567458133128
aF0.0
aF0.0
aF8.055832940844926
aF0.0
aF0.0
aF1.0974131429882867
atp65
a(g1
(lp66
F0.0
aF9.332788788478211
aF0.0
aF8.913849492425722
aF0.0
aF7.286536007624734
aF0.0
aF3.389099332836272
aF0.0
aF0.0
aF17.411134251203656
aF0.0
aF0.0
aF8.366412110209875
aF0.0
aF0.0
aF8.675775240964372
aF0.0
aF0.0
aF1.8777435595198537
atp67
a(g1
(lp68
F0.027680904775081932
aF9.271906067913477
aF0.023952039631914047
aF8.822096457673478
aF0.012237011408266217
aF7.077863020171929
aF0.0005418467092805136
aF2.9652929251864175
aF0.0
aF0.03163173856967126
aF16.7205679155611
aF0.0
aF0.005704395719723427
aF6.525263175049189
aF0.0
aF0.020547296444339985
aF9.036136269846828
aF0.0
aF9.686570638690168e-05
aF1.268069730001947
atp69
a(g1
(lp70
F0.023388126432636623
aF9.388102620100298
aF0.020179463224644714
aF8.958131980995024
aF0.010173012281896716
aF7.284676958334327
aF0.0004234112219577345
aF3.2808740979071382
aF0.0
aF0.03084560246110203
aF17.193900323979626
aF0.0
aF0.004953927768201418
aF7.916769349588681
aF0.0
aF0.020902650247226207
aF8.626424148151498
aF0.0
aF7.000140037702697e-05
aF1.7008240672705992
atp71
a(g1
(lp72
F0.0
aF8.58098358708122
aF0.0
aF8.161056419318689
aF0.0
aF6.540887642074035
aF0.0
aF2.7859687792127446
aF0.0
aF0.0
aF13.993832925231501
aF0.0
aF0.0
aF5.74346566130133
aF0.0
aF0.0
aF7.390711250655927
aF0.0
aF0.0
aF1.1490535332169074
atp73
a(g1
(lp74
F0.0
aF8.512025016084836
aF0.0
aF8.085215421994677
aF0.0
aF6.43908899011775
aF0.0
aF2.6584448843640818
aF0.0
aF0.0
aF13.728135695409721
aF0.0
aF0.0
aF5.4001033253643
aF0.0
aF0.0
aF7.350797045227682
aF0.0
aF0.0
aF0.9648615520347846
atp75
a(g1
(lp76
F0.0
aF8.52941034173896
aF0.0
aF8.087901575564327
aF0.0
aF6.385828635424546
aF0.0
aF2.485734421894411
aF0.0
aF0.0
aF13.708048028159526
aF0.0
aF0.0
aF4.77535561365924
aF0.0
aF0.0
aF7.639889786400214
aF0.0
aF0.0
aF0.7344878527878217
atp77
a(g1
(lp78
F0.0
aF8.641213729659992
aF0.0
aF8.21453610725503
aF0.0
aF6.562464506187363
aF0.0
aF2.703866902037127
aF0.0
aF0.0
aF14.173513441695569
aF0.0
aF0.0
aF5.482986200099219
aF0.0
aF0.0
aF7.676533011239274
aF0.0
aF0.0
aF1.0193894378914592
atp79
a(g1
(lp80
F0.0
aF7.909349214379013
aF0.0
aF7.498875070224902
aF0.0
aF5.916207842816266
aF0.0
aF2.305415840271825
aF0.0
aF0.0
aF11.490401869026718
aF0.0
aF0.0
aF4.06821542939158
aF0.0
aF0.0
aF6.319417187510145
aF0.0
aF0.0
aF0.6359763718568558
atp81
a(g1
(lp82
F0.0
aF7.68269009497378
aF0.0
aF7.279566130590881
aF0.0
aF5.735289862189598
aF0.0
aF2.280784377818006
aF0.0
aF0.0
aF12.336326701981642
aF0.0
aF0.0
aF4.037705591928922
aF0.0
aF0.0
aF6.865596013441074
aF0.0
aF0.0
aF0.44719837197962575
atp83
a(g1
(lp84
F0.0
aF8.1264685553492
aF0.0
aF7.701478534302561
aF0.0
aF6.073009565880083
aF0.0
aF2.428803671052493
aF0.0
aF0.0
aF13.960157696491558
aF0.0
aF0.0
aF4.663905680838645
aF0.0
aF0.0
aF7.765441612226736
aF0.0
aF0.0
aF0.576658948769543
atp85
a(g1
(lp86
F0.01639380331650278
aF8.518778422918523
aF0.014068739320898952
aF8.08329596823129
aF0.006917350635707757
aF6.419258529912041
aF0.00025636958944273025
aF2.72598867424137
aF0.0
aF0.01935880474013283
aF13.935371189985458
aF0.0
aF0.0020352130816603748
aF5.52163165888572
aF0.0
aF0.015582752553377625
aF7.320024553856945
aF0.0
aF4.1399651264252814e-05
aF0.8707082883445254
atp87
a(g1
(lp88
F0.0
aF7.7548933483393885
aF0.0
aF7.339478589746719
aF0.0
aF5.762168933798651
aF0.0
aF2.326305878538518
aF0.0
aF0.0
aF11.638635854310643
aF0.0
aF0.0
aF4.193900029247108
aF0.0
aF0.0
aF6.157855843596388
aF0.0
aF0.0
aF0.5111722436427855
atp89
a(g1
(lp90
F0.0
aF8.490359860487729
aF0.0
aF8.070185418940335
aF0.0
aF6.463663683808263
aF0.0
aF2.840945569577126
aF0.0
aF0.0
aF14.925704831745039
aF0.0
aF0.0
aF5.880921297523557
aF0.0
aF0.0
aF7.885804535966349
aF0.0
aF0.0
aF0.9231549702628803
atp91
a(g1
(lp92
F0.03023145625202739
aF9.140632681466164
aF0.026200688796118084
aF8.706664201774938
aF0.013485121476265238
aF7.03302179862295
aF0.0006179483077657585
aF3.1719568274337093
aF0.0
aF0.03015664835755132
aF18.26098047019166
aF0.0
aF0.00525975648022322
aF7.327256435396275
aF0.0
aF0.01987829666307899
aF9.546152041188764
aF0.0
aF7.219060126776806e-05
aF1.2295653754854958
atp93
a(g1
(lp94
F0.6035508468461805
aF7.980161321306027
aF0.5683906657143136
aF7.557053616238129
aF0.4331389585548786
aF5.9405434049253785
aF0.13626595528893226
aF2.3545378229690166
aF0.09717762300445763
aF0.9432230457275959
aF13.652066269350476
aF0.0022468033395588167
aF0.3918148521260209
aF4.686611837512811
aF0.0907372903241687
aF0.5412210690205737
aF7.517340896122912
aF2.592871303629914e-08
aF0.07918051723383478
aF0.6519317562617094
atp95
a(g1
(lp96
F0.1763177731718222
aF7.533621100855018
aF0.1597678939356369
aF7.138609761786332
aF0.10130706574325005
aF5.6251058426218625
aF0.01253455385715584
aF2.218836125552144
aF0.0019194423117761864
aF0.25899118649245534
aF12.904305033052529
aF3.495560764769867e-05
aF0.06211091058390732
aF4.117284619804586
aF0.0018182821754326988
aF0.15645320487906256
aF7.135612461295391
aF1.9999928787568133e-10
aF0.0022008574709211667
aF0.4264535373098543
atp97
a(g1
(lp98
F0.0
aF8.233373818695284
aF0.0
aF7.788612500910834
aF0.0
aF6.0903251284014415
aF0.0
aF2.3516883047408226
aF0.0
aF0.0
aF14.687370524027603
aF0.0
aF0.0
aF4.520395538884482
aF0.0
aF0.0
aF8.482056495725164
aF0.0
aF0.0
aF0.4961832554664058
atp99
a(g1
(lp100
F0.1447400452679336
aF8.908221545292228
aF0.12986738882019472
aF8.463564405288833
aF0.0786960114719477
aF6.75716540991529
aF0.007958838103406621
aF2.905386322825526
aF0.0023250124543066457
aF0.161621507140584
aF17.85482571591669
aF5.621351050659061e-05
aF0.039814691448658956
aF6.388225756428249
aF0.0021642095349084746
aF0.09893806080636182
aF9.761368880341442
aF7.395388645684274e-10
aF0.0017753221509344609
aF0.9239184779758051
atp101
a(g1
(lp102
F1.1700443317291664
aF7.025077632979148
aF1.1366759092217933
aF6.612862803141241
aF1.0001390140823307
aF5.053462811418187
aF0.6154752898700879
aF1.7638236130353717
aF0.45784826792014305
aF0.5955735090669978
aF11.435211682248175
aF0.001361478096523066
aF1.6352929211893201
aF3.064998042583732
aF0.45378800508891515
aF0.02014704097608766
aF6.816937748703018
aF3.548210241004762e-11
aF0.7200772340181992
aF0.2571462015123267
atp103
a(g1
(lp104
F0.19969356812441813
aF8.95810698705317
aF0.18230498584673457
aF8.521951276780056
aF0.11955318177650917
aF6.847522749405526
aF0.01705192968269289
aF3.038706832867254
aF0.0008744218926856674
aF0.36374158933000866
aF16.11234393135855
aF9.17868489297416e-06
aF0.10926934492229617
aF6.810347137882636
aF0.0008474539657542393
aF0.20123736110564694
aF8.22952158813611
aF1.0288542818789873e-11
aF0.004761626762884145
aF1.205846616733436
atp105
a(g1
(lp106
F0.0
aF8.894353732902143
aF0.0
aF8.46019677712451
aF0.0
aF6.788175037487688
aF0.0
aF2.9585657041355145
aF0.0
aF0.0
aF15.834800763035014
aF0.0
aF0.0
aF6.509422143855492
aF0.0
aF0.0
aF8.373440928838521
aF0.0
aF0.0
aF1.1204108461920175
atp107
a(g1
(lp108
F0.04134402556072214
aF8.775639675543147
aF0.03605400352518569
aF8.345306153349725
aF0.019097127287231425
aF6.688006045746504
aF0.0009999010880030977
aF2.892020954364746
aF0.0
aF0.034668810690766924
aF17.142949742590535
aF0.0
aF0.007161392661304043
aF6.376209988283921
aF0.0
aF0.021103115009891576
aF9.208859685510957
aF0.0
aF0.00010692928988903784
aF0.9946996745200165
atp109
a(g1
(lp110
F0.2804539506220408
aF9.302033785320832
aF0.2584238174117192
aF8.840429510872044
aF0.17740700489266634
aF7.0739010730488205
aF0.03233946345259927
aF3.1191075927858023
aF0.00712134938359559
aF0.47581116555911823
aF16.71937538979679
aF8.382833179006725e-05
aF0.17309006081494668
aF7.138362802812269
aF0.006875670914863974
aF0.2672175315674053
aF8.558149159996807
aF1.320168005035532e-10
aF0.023390701740349053
aF1.2834526897688532
atp111
a(g1
(lp112
F0.129263891736072
aF7.636596202349944
aF0.11614069606794529
aF7.234427226900031
aF0.07070607475697449
aF5.699394477336438
aF0.007120738156485752
aF2.280151293810296
aF0.00034309665938394294
aF0.1427542751699456
aF13.62099809269417
aF6.2611805358710985e-06
aF0.03733615532282483
aF4.382763339639111
aF0.000324978385647253
aF0.07951961247994528
aF7.663566459592664
aF3.6042376988085925e-11
aF0.0009989989285074823
aF0.5087316630233109
atp113
a(g1
(lp114
F0.0
aF7.5902139525221255
aF0.0
aF7.180250371571842
aF0.0
aF5.618518901578935
aF0.0
aF2.1851912548015555
aF0.0
aF0.0
aF12.034761545700196
aF0.0
aF0.0
aF3.918587125332461
aF0.0
aF0.0
aF6.723761747142032
aF0.0
aF0.0
aF0.43588372530708697
atp115
a(g1
(lp116
F0.0
aF7.745868669654029
aF0.0
aF7.341217420340809
aF0.0
aF5.794235382603476
aF0.0
aF2.344229740802007
aF0.0
aF0.0
aF13.369982977181213
aF0.0
aF0.0
aF4.462358381095996
aF0.0
aF0.0
aF7.370371965485047
aF0.0
aF0.0
aF0.5400771769767994
atp117
a(g1
(lp118
F0.026335713987841833
aF7.696949434548888
aF0.022768187093986415
aF7.285515150624872
aF0.011585179726076065
aF5.719513759815028
aF0.0005034327155614079
aF2.2708082221517927
aF0.0
aF0.01988372524017328
aF12.985450188986219
aF0.0
aF0.003850919194328577
aF4.200012855635
aF0.0
aF0.012468846971434498
aF7.196543258088231
aF0.0
aF6.938366852723816e-05
aF0.46855855937578417
atp119
a(g1
(lp120
F0.0
aF7.548732239243496
aF0.0
aF7.153321281132943
aF0.0
aF5.639452674006149
aF0.0
aF2.2422135027757357
aF0.0
aF0.0
aF12.450306467363237
aF0.0
aF0.0
aF4.172347605322055
aF0.0
aF0.0
aF6.826554287401534
aF0.0
aF0.0
aF0.502706771485299
atp121
a(VCu
p122
(lp123
F0.7747573154338591
aF0.5471457443365734
aF0.7611527132870208
aF0.5032608189580002
aF0.7010676790031349
aF0.3455780945294593
aF0.4786303139530422
aF0.071849193582646
aF0.0
aF0.5720931613713294
aF0.09220317654250171
aF0.0
aF0.008946043828784972
aF0.005422750126711531
aF0.0
aF0.5483496364137356
aF0.07800123832358821
aF0.0
aF3.7620127553338758e-06
aF4.038624269959827e-06
atp124
a(g122
(lp125
F0.7747573154338591
aF3.4836280042439745
aF0.7611527132870208
aF3.2493402887848934
aF0.7010676790031349
aF2.3987076056944923
aF0.4786303139530422
aF0.8641355749410834
aF0.0
aF0.02339476552692267
aF3.7712275836954054
aF0.0
aF0.5576444396731918
aF0.527068619595333
aF0.0
aF8.263750244650012e-05
aF2.6566233877100602
aF0.0
aF0.5034560895508655
aF0.005480811698070922
atp126
a.